

Microchip MPLAB XC8 Assembler V3.00 build 20241204225717 
                                                                                               Tue Apr 21 17:12:31 2026

Microchip MPLAB XC8 C Compiler v3.00 (Free license) build 20241204225717 Og9 
     1                           	processor	18F4321
     2                           	fnconf	rparam,??,?,0
     3                           	pagewidth 120
     4                           	opt	flic
     5                           	psect	idataCOMRAM,global,class=CODE,space=0,delta=1,noexec
     6                           	psect	mediumconst,global,reloc=2,class=MEDIUMCONST,space=0,delta=1,noexec
     7                           	psect	cinit,global,reloc=2,class=CODE,space=0,delta=1
     8                           	psect	bssCOMRAM,global,class=COMRAM,space=1,delta=1,lowdata,noexec
     9                           	psect	dataCOMRAM,global,class=COMRAM,space=1,delta=1,lowdata,noexec
    10                           	psect	bssBANK0,global,class=BANK0,space=1,delta=1,lowdata,noexec
    11                           	psect	cstackCOMRAM,global,class=COMRAM,space=1,delta=1,lowdata,noexec
    12                           	psect	text0,global,reloc=2,class=CODE,space=0,delta=1
    13                           	psect	text1,global,reloc=2,class=CODE,space=0,delta=1
    14                           	psect	text2,global,reloc=2,class=CODE,space=0,delta=1
    15                           	psect	text3,global,reloc=2,class=CODE,space=0,delta=1
    16                           	psect	text4,global,reloc=2,class=CODE,space=0,delta=1
    17                           	psect	text5,global,reloc=2,class=CODE,space=0,delta=1
    18                           	psect	text6,global,reloc=2,class=CODE,space=0,delta=1
    19                           	psect	text7,global,reloc=2,class=CODE,space=0,delta=1
    20                           	psect	text8,global,reloc=2,class=CODE,space=0,delta=1
    21                           	psect	text9,global,reloc=2,class=CODE,space=0,delta=1
    22                           	psect	text10,global,reloc=2,class=CODE,space=0,delta=1
    23                           	psect	text11,global,reloc=2,class=CODE,space=0,delta=1
    24                           	psect	text12,global,reloc=2,class=CODE,space=0,delta=1
    25                           	psect	text13,global,reloc=2,class=CODE,space=0,delta=1
    26                           	psect	text14,global,reloc=2,class=CODE,space=0,delta=1
    27                           	psect	text15,global,reloc=2,class=CODE,space=0,delta=1
    28                           	psect	text16,global,reloc=2,class=CODE,space=0,delta=1
    29                           	psect	text17,global,reloc=2,class=CODE,space=0,delta=1
    30                           	psect	text18,global,reloc=2,class=CODE,space=0,delta=1
    31                           	psect	text19,global,reloc=2,class=CODE,space=0,delta=1
    32                           	psect	text20,global,reloc=2,class=CODE,space=0,delta=1
    33                           	psect	text21,global,reloc=2,class=CODE,space=0,delta=1
    34                           	psect	text22,global,reloc=2,class=CODE,space=0,delta=1
    35                           	psect	text23,global,reloc=2,class=CODE,space=0,delta=1
    36                           	psect	text24,global,reloc=2,class=CODE,space=0,delta=1
    37                           	psect	text25,global,reloc=2,class=CODE,space=0,delta=1
    38                           	psect	text26,global,reloc=2,class=CODE,space=0,delta=1
    39                           	psect	text27,global,reloc=2,class=CODE,space=0,delta=1
    40                           	psect	text28,global,reloc=2,class=CODE,space=0,delta=1
    41                           	psect	text29,global,reloc=2,class=CODE,space=0,delta=1
    42                           	psect	text30,global,reloc=2,class=CODE,space=0,delta=1
    43                           	psect	text31,global,reloc=2,class=CODE,space=0,delta=1
    44                           	psect	intcode,global,reloc=2,class=CODE,space=0,delta=1
    45                           	psect	text33,global,reloc=2,class=CODE,space=0,delta=1
    46                           	psect	intsave_regs,global,class=BIGRAM,space=1,delta=1,noexec
    47                           	psect	rparam,global,class=COMRAM,space=1,delta=1,noexec
    48                           	psect	temp,global,ovrld,common,class=COMRAM,space=1,delta=1,lowdata
    49                           	psect	idloc,global,abs,ovrld,class=IDLOC,space=5,delta=1,noexec
    50                           	psect	config,global,abs,ovrld,class=CONFIG,space=4,delta=1,noexec
    51   000000                     
    52                           ; Generated 05/12/2024 GMT
    53                           ; 
    54                           ; Copyright © 2024, Microchip Technology Inc. and its subsidiaries ("Microchip")
    55                           ; All rights reserved.
    56                           ; 
    57                           ; This software is developed by Microchip Technology Inc. and its subsidiaries ("Microch
      +                          ip").
    58                           ; 
    59                           ; Redistribution and use in source and binary forms, with or without modification, are
    60                           ; permitted provided that the following conditions are met:
    61                           ; 
    62                           ;     1. Redistributions of source code must retain the above copyright notice, this lis
      +                          t of
    63                           ;        conditions and the following disclaimer.
    64                           ; 
    65                           ;     2. Redistributions in binary form must reproduce the above copyright notice, this 
      +                          list
    66                           ;        of conditions and the following disclaimer in the documentation and/or other
    67                           ;        materials provided with the distribution. Publication is not required when
    68                           ;        this file is used in an embedded application.
    69                           ; 
    70                           ;     3. Microchip's name may not be used to endorse or promote products derived from th
      +                          is
    71                           ;        software without specific prior written permission.
    72                           ; 
    73                           ; THIS SOFTWARE IS PROVIDED BY MICROCHIP "AS IS" AND ANY EXPRESS OR IMPLIED WARRANTIES,
    74                           ; INCLUDING, BUT NOT LIMITED TO, THE IMPLIED WARRANTIES OF MERCHANTABILITY AND FITNESS F
      +                          OR
    75                           ; PURPOSE ARE DISCLAIMED.  IN NO EVENT SHALL MICROCHIP BE LIABLE FOR ANY DIRECT, INDIREC
      +                          T,
    76                           ; INCIDENTAL, SPECIAL, EXEMPLARY, OR CONSEQUENTIAL DAMAGES (INCLUDING BUT NOT LIMITED TO
    77                           ; PROCUREMENT OF SUBSTITUTE GOODS OR SERVICES; LOSS OF USE, DATA OR PROFITS; OR BUSINESS
    78                           ; INTERRUPTION) HOWSOEVER CAUSED AND ON ANY THEORY OF LIABILITY, WHETHER IN CONTRACT, ST
      +                          RICT
    79                           ; LIABILITY, OR TORT (INCLUDING NEGLIGENCE OR OTHERWISE) ARISING IN ANY WAY OUT OF THE U
      +                          SE OF
    80                           ; THIS SOFTWARE, EVEN IF ADVISED OF THE POSSIBILITY OF SUCH DAMAGE.
    81                           ; 
    82                           ; 
    83                           ; Code-generator required, PIC18F4321 Definitions
    84                           ; 
    85                           ; SFR Addresses
    86   000FE0                     bsr             equ	4064
    87   000FE9                     fsr0            equ	4073
    88   000FEA                     fsr0h           equ	4074
    89   000FE9                     fsr0l           equ	4073
    90   000FE1                     fsr1            equ	4065
    91   000FE2                     fsr1h           equ	4066
    92   000FE1                     fsr1l           equ	4065
    93   000FD9                     fsr2            equ	4057
    94   000FDA                     fsr2h           equ	4058
    95   000FD9                     fsr2l           equ	4057
    96   000FEF                     indf0           equ	4079
    97   000FE7                     indf1           equ	4071
    98   000FDF                     indf2           equ	4063
    99   000FF2                     intcon          equ	4082
   100   000000                     nvmcon          equ	0
   101   000FF9                     pcl             equ	4089
   102   000FFA                     pclath          equ	4090
   103   000FFB                     pclatu          equ	4091
   104   000FEB                     plusw0          equ	4075
   105   000FE3                     plusw1          equ	4067
   106   000FDB                     plusw2          equ	4059
   107   000FED                     postdec0        equ	4077
   108   000FE5                     postdec1        equ	4069
   109   000FDD                     postdec2        equ	4061
   110   000FEE                     postinc0        equ	4078
   111   000FE6                     postinc1        equ	4070
   112   000FDE                     postinc2        equ	4062
   113   000FEC                     preinc0         equ	4076
   114   000FE4                     preinc1         equ	4068
   115   000FDC                     preinc2         equ	4060
   116   000FF3                     prod            equ	4083
   117   000FF4                     prodh           equ	4084
   118   000FF3                     prodl           equ	4083
   119   000FD8                     status          equ	4056
   120   000FF5                     tablat          equ	4085
   121   000FF6                     tblptr          equ	4086
   122   000FF7                     tblptrh         equ	4087
   123   000FF6                     tblptrl         equ	4086
   124   000FF8                     tblptru         equ	4088
   125   000FFD                     tosl            equ	4093
   126   000FE8                     wreg            equ	4072
   127   000F80                     PORTA           equ	3968	;# 
   128   000F81                     PORTB           equ	3969	;# 
   129   000F82                     PORTC           equ	3970	;# 
   130   000F83                     PORTD           equ	3971	;# 
   131   000F84                     PORTE           equ	3972	;# 
   132   000F89                     LATA            equ	3977	;# 
   133   000F8A                     LATB            equ	3978	;# 
   134   000F8B                     LATC            equ	3979	;# 
   135   000F8C                     LATD            equ	3980	;# 
   136   000F8D                     LATE            equ	3981	;# 
   137   000F92                     TRISA           equ	3986	;# 
   138   000F92                     DDRA            equ	3986	;# 
   139   000F93                     TRISB           equ	3987	;# 
   140   000F93                     DDRB            equ	3987	;# 
   141   000F94                     TRISC           equ	3988	;# 
   142   000F94                     DDRC            equ	3988	;# 
   143   000F95                     TRISD           equ	3989	;# 
   144   000F95                     DDRD            equ	3989	;# 
   145   000F96                     TRISE           equ	3990	;# 
   146   000F96                     DDRE            equ	3990	;# 
   147   000F9B                     OSCTUNE         equ	3995	;# 
   148   000F9D                     PIE1            equ	3997	;# 
   149   000F9E                     PIR1            equ	3998	;# 
   150   000F9F                     IPR1            equ	3999	;# 
   151   000FA0                     PIE2            equ	4000	;# 
   152   000FA1                     PIR2            equ	4001	;# 
   153   000FA2                     IPR2            equ	4002	;# 
   154   000FA6                     EECON1          equ	4006	;# 
   155   000FA7                     EECON2          equ	4007	;# 
   156   000FA8                     EEDATA          equ	4008	;# 
   157   000FA9                     EEADR           equ	4009	;# 
   158   000FAB                     RCSTA           equ	4011	;# 
   159   000FAB                     RCSTA1          equ	4011	;# 
   160   000FAC                     TXSTA           equ	4012	;# 
   161   000FAC                     TXSTA1          equ	4012	;# 
   162   000FAD                     TXREG           equ	4013	;# 
   163   000FAD                     TXREG1          equ	4013	;# 
   164   000FAE                     RCREG           equ	4014	;# 
   165   000FAE                     RCREG1          equ	4014	;# 
   166   000FAF                     SPBRG           equ	4015	;# 
   167   000FAF                     SPBRG1          equ	4015	;# 
   168   000FB0                     SPBRGH          equ	4016	;# 
   169   000FB1                     T3CON           equ	4017	;# 
   170   000FB2                     TMR3            equ	4018	;# 
   171   000FB2                     TMR3L           equ	4018	;# 
   172   000FB3                     TMR3H           equ	4019	;# 
   173   000FB4                     CMCON           equ	4020	;# 
   174   000FB5                     CVRCON          equ	4021	;# 
   175   000FB6                     ECCP1AS         equ	4022	;# 
   176   000FB7                     ECCP1DEL        equ	4023	;# 
   177   000FB7                     PWM1CON         equ	4023	;# 
   178   000FB8                     BAUDCON         equ	4024	;# 
   179   000FB8                     BAUDCTL         equ	4024	;# 
   180   000FBA                     CCP2CON         equ	4026	;# 
   181   000FBB                     CCPR2           equ	4027	;# 
   182   000FBB                     CCPR2L          equ	4027	;# 
   183   000FBC                     CCPR2H          equ	4028	;# 
   184   000FBD                     CCP1CON         equ	4029	;# 
   185   000FBD                     ECCP1CON        equ	4029	;# 
   186   000FBE                     CCPR1           equ	4030	;# 
   187   000FBE                     CCPR1L          equ	4030	;# 
   188   000FBF                     CCPR1H          equ	4031	;# 
   189   000FC0                     ADCON2          equ	4032	;# 
   190   000FC1                     ADCON1          equ	4033	;# 
   191   000FC2                     ADCON0          equ	4034	;# 
   192   000FC3                     ADRES           equ	4035	;# 
   193   000FC3                     ADRESL          equ	4035	;# 
   194   000FC4                     ADRESH          equ	4036	;# 
   195   000FC5                     SSPCON2         equ	4037	;# 
   196   000FC6                     SSPCON1         equ	4038	;# 
   197   000FC7                     SSPSTAT         equ	4039	;# 
   198   000FC8                     SSPADD          equ	4040	;# 
   199   000FC9                     SSPBUF          equ	4041	;# 
   200   000FCA                     T2CON           equ	4042	;# 
   201   000FCB                     PR2             equ	4043	;# 
   202   000FCB                     MEMCON          equ	4043	;# 
   203   000FCC                     TMR2            equ	4044	;# 
   204   000FCD                     T1CON           equ	4045	;# 
   205   000FCE                     TMR1            equ	4046	;# 
   206   000FCE                     TMR1L           equ	4046	;# 
   207   000FCF                     TMR1H           equ	4047	;# 
   208   000FD0                     RCON            equ	4048	;# 
   209   000FD1                     WDTCON          equ	4049	;# 
   210   000FD2                     HLVDCON         equ	4050	;# 
   211   000FD2                     LVDCON          equ	4050	;# 
   212   000FD3                     OSCCON          equ	4051	;# 
   213   000FD5                     T0CON           equ	4053	;# 
   214   000FD6                     TMR0            equ	4054	;# 
   215   000FD6                     TMR0L           equ	4054	;# 
   216   000FD7                     TMR0H           equ	4055	;# 
   217   000FD8                     STATUS          equ	4056	;# 
   218   000FD9                     FSR2            equ	4057	;# 
   219   000FD9                     FSR2L           equ	4057	;# 
   220   000FDA                     FSR2H           equ	4058	;# 
   221   000FDB                     PLUSW2          equ	4059	;# 
   222   000FDC                     PREINC2         equ	4060	;# 
   223   000FDD                     POSTDEC2        equ	4061	;# 
   224   000FDE                     POSTINC2        equ	4062	;# 
   225   000FDF                     INDF2           equ	4063	;# 
   226   000FE0                     BSR             equ	4064	;# 
   227   000FE1                     FSR1            equ	4065	;# 
   228   000FE1                     FSR1L           equ	4065	;# 
   229   000FE2                     FSR1H           equ	4066	;# 
   230   000FE3                     PLUSW1          equ	4067	;# 
   231   000FE4                     PREINC1         equ	4068	;# 
   232   000FE5                     POSTDEC1        equ	4069	;# 
   233   000FE6                     POSTINC1        equ	4070	;# 
   234   000FE7                     INDF1           equ	4071	;# 
   235   000FE8                     WREG            equ	4072	;# 
   236   000FE9                     FSR0            equ	4073	;# 
   237   000FE9                     FSR0L           equ	4073	;# 
   238   000FEA                     FSR0H           equ	4074	;# 
   239   000FEB                     PLUSW0          equ	4075	;# 
   240   000FEC                     PREINC0         equ	4076	;# 
   241   000FED                     POSTDEC0        equ	4077	;# 
   242   000FEE                     POSTINC0        equ	4078	;# 
   243   000FEF                     INDF0           equ	4079	;# 
   244   000FF0                     INTCON3         equ	4080	;# 
   245   000FF1                     INTCON2         equ	4081	;# 
   246   000FF2                     INTCON          equ	4082	;# 
   247   000FF3                     PROD            equ	4083	;# 
   248   000FF3                     PRODL           equ	4083	;# 
   249   000FF4                     PRODH           equ	4084	;# 
   250   000FF5                     TABLAT          equ	4085	;# 
   251   000FF6                     TBLPTR          equ	4086	;# 
   252   000FF6                     TBLPTRL         equ	4086	;# 
   253   000FF7                     TBLPTRH         equ	4087	;# 
   254   000FF8                     TBLPTRU         equ	4088	;# 
   255   000FF9                     PCLAT           equ	4089	;# 
   256   000FF9                     PC              equ	4089	;# 
   257   000FF9                     PCL             equ	4089	;# 
   258   000FFA                     PCLATH          equ	4090	;# 
   259   000FFB                     PCLATU          equ	4091	;# 
   260   000FFC                     STKPTR          equ	4092	;# 
   261   000FFD                     TOS             equ	4093	;# 
   262   000FFD                     TOSL            equ	4093	;# 
   263   000FFE                     TOSH            equ	4094	;# 
   264   000FFF                     TOSU            equ	4095	;# 
   265   000F80                     PORTA           equ	3968	;# 
   266   000F81                     PORTB           equ	3969	;# 
   267   000F82                     PORTC           equ	3970	;# 
   268   000F83                     PORTD           equ	3971	;# 
   269   000F84                     PORTE           equ	3972	;# 
   270   000F89                     LATA            equ	3977	;# 
   271   000F8A                     LATB            equ	3978	;# 
   272   000F8B                     LATC            equ	3979	;# 
   273   000F8C                     LATD            equ	3980	;# 
   274   000F8D                     LATE            equ	3981	;# 
   275   000F92                     TRISA           equ	3986	;# 
   276   000F92                     DDRA            equ	3986	;# 
   277   000F93                     TRISB           equ	3987	;# 
   278   000F93                     DDRB            equ	3987	;# 
   279   000F94                     TRISC           equ	3988	;# 
   280   000F94                     DDRC            equ	3988	;# 
   281   000F95                     TRISD           equ	3989	;# 
   282   000F95                     DDRD            equ	3989	;# 
   283   000F96                     TRISE           equ	3990	;# 
   284   000F96                     DDRE            equ	3990	;# 
   285   000F9B                     OSCTUNE         equ	3995	;# 
   286   000F9D                     PIE1            equ	3997	;# 
   287   000F9E                     PIR1            equ	3998	;# 
   288   000F9F                     IPR1            equ	3999	;# 
   289   000FA0                     PIE2            equ	4000	;# 
   290   000FA1                     PIR2            equ	4001	;# 
   291   000FA2                     IPR2            equ	4002	;# 
   292   000FA6                     EECON1          equ	4006	;# 
   293   000FA7                     EECON2          equ	4007	;# 
   294   000FA8                     EEDATA          equ	4008	;# 
   295   000FA9                     EEADR           equ	4009	;# 
   296   000FAB                     RCSTA           equ	4011	;# 
   297   000FAB                     RCSTA1          equ	4011	;# 
   298   000FAC                     TXSTA           equ	4012	;# 
   299   000FAC                     TXSTA1          equ	4012	;# 
   300   000FAD                     TXREG           equ	4013	;# 
   301   000FAD                     TXREG1          equ	4013	;# 
   302   000FAE                     RCREG           equ	4014	;# 
   303   000FAE                     RCREG1          equ	4014	;# 
   304   000FAF                     SPBRG           equ	4015	;# 
   305   000FAF                     SPBRG1          equ	4015	;# 
   306   000FB0                     SPBRGH          equ	4016	;# 
   307   000FB1                     T3CON           equ	4017	;# 
   308   000FB2                     TMR3            equ	4018	;# 
   309   000FB2                     TMR3L           equ	4018	;# 
   310   000FB3                     TMR3H           equ	4019	;# 
   311   000FB4                     CMCON           equ	4020	;# 
   312   000FB5                     CVRCON          equ	4021	;# 
   313   000FB6                     ECCP1AS         equ	4022	;# 
   314   000FB7                     ECCP1DEL        equ	4023	;# 
   315   000FB7                     PWM1CON         equ	4023	;# 
   316   000FB8                     BAUDCON         equ	4024	;# 
   317   000FB8                     BAUDCTL         equ	4024	;# 
   318   000FBA                     CCP2CON         equ	4026	;# 
   319   000FBB                     CCPR2           equ	4027	;# 
   320   000FBB                     CCPR2L          equ	4027	;# 
   321   000FBC                     CCPR2H          equ	4028	;# 
   322   000FBD                     CCP1CON         equ	4029	;# 
   323   000FBD                     ECCP1CON        equ	4029	;# 
   324   000FBE                     CCPR1           equ	4030	;# 
   325   000FBE                     CCPR1L          equ	4030	;# 
   326   000FBF                     CCPR1H          equ	4031	;# 
   327   000FC0                     ADCON2          equ	4032	;# 
   328   000FC1                     ADCON1          equ	4033	;# 
   329   000FC2                     ADCON0          equ	4034	;# 
   330   000FC3                     ADRES           equ	4035	;# 
   331   000FC3                     ADRESL          equ	4035	;# 
   332   000FC4                     ADRESH          equ	4036	;# 
   333   000FC5                     SSPCON2         equ	4037	;# 
   334   000FC6                     SSPCON1         equ	4038	;# 
   335   000FC7                     SSPSTAT         equ	4039	;# 
   336   000FC8                     SSPADD          equ	4040	;# 
   337   000FC9                     SSPBUF          equ	4041	;# 
   338   000FCA                     T2CON           equ	4042	;# 
   339   000FCB                     PR2             equ	4043	;# 
   340   000FCB                     MEMCON          equ	4043	;# 
   341   000FCC                     TMR2            equ	4044	;# 
   342   000FCD                     T1CON           equ	4045	;# 
   343   000FCE                     TMR1            equ	4046	;# 
   344   000FCE                     TMR1L           equ	4046	;# 
   345   000FCF                     TMR1H           equ	4047	;# 
   346   000FD0                     RCON            equ	4048	;# 
   347   000FD1                     WDTCON          equ	4049	;# 
   348   000FD2                     HLVDCON         equ	4050	;# 
   349   000FD2                     LVDCON          equ	4050	;# 
   350   000FD3                     OSCCON          equ	4051	;# 
   351   000FD5                     T0CON           equ	4053	;# 
   352   000FD6                     TMR0            equ	4054	;# 
   353   000FD6                     TMR0L           equ	4054	;# 
   354   000FD7                     TMR0H           equ	4055	;# 
   355   000FD8                     STATUS          equ	4056	;# 
   356   000FD9                     FSR2            equ	4057	;# 
   357   000FD9                     FSR2L           equ	4057	;# 
   358   000FDA                     FSR2H           equ	4058	;# 
   359   000FDB                     PLUSW2          equ	4059	;# 
   360   000FDC                     PREINC2         equ	4060	;# 
   361   000FDD                     POSTDEC2        equ	4061	;# 
   362   000FDE                     POSTINC2        equ	4062	;# 
   363   000FDF                     INDF2           equ	4063	;# 
   364   000FE0                     BSR             equ	4064	;# 
   365   000FE1                     FSR1            equ	4065	;# 
   366   000FE1                     FSR1L           equ	4065	;# 
   367   000FE2                     FSR1H           equ	4066	;# 
   368   000FE3                     PLUSW1          equ	4067	;# 
   369   000FE4                     PREINC1         equ	4068	;# 
   370   000FE5                     POSTDEC1        equ	4069	;# 
   371   000FE6                     POSTINC1        equ	4070	;# 
   372   000FE7                     INDF1           equ	4071	;# 
   373   000FE8                     WREG            equ	4072	;# 
   374   000FE9                     FSR0            equ	4073	;# 
   375   000FE9                     FSR0L           equ	4073	;# 
   376   000FEA                     FSR0H           equ	4074	;# 
   377   000FEB                     PLUSW0          equ	4075	;# 
   378   000FEC                     PREINC0         equ	4076	;# 
   379   000FED                     POSTDEC0        equ	4077	;# 
   380   000FEE                     POSTINC0        equ	4078	;# 
   381   000FEF                     INDF0           equ	4079	;# 
   382   000FF0                     INTCON3         equ	4080	;# 
   383   000FF1                     INTCON2         equ	4081	;# 
   384   000FF2                     INTCON          equ	4082	;# 
   385   000FF3                     PROD            equ	4083	;# 
   386   000FF3                     PRODL           equ	4083	;# 
   387   000FF4                     PRODH           equ	4084	;# 
   388   000FF5                     TABLAT          equ	4085	;# 
   389   000FF6                     TBLPTR          equ	4086	;# 
   390   000FF6                     TBLPTRL         equ	4086	;# 
   391   000FF7                     TBLPTRH         equ	4087	;# 
   392   000FF8                     TBLPTRU         equ	4088	;# 
   393   000FF9                     PCLAT           equ	4089	;# 
   394   000FF9                     PC              equ	4089	;# 
   395   000FF9                     PCL             equ	4089	;# 
   396   000FFA                     PCLATH          equ	4090	;# 
   397   000FFB                     PCLATU          equ	4091	;# 
   398   000FFC                     STKPTR          equ	4092	;# 
   399   000FFD                     TOS             equ	4093	;# 
   400   000FFD                     TOSL            equ	4093	;# 
   401   000FFE                     TOSH            equ	4094	;# 
   402   000FFF                     TOSU            equ	4095	;# 
   403   000F80                     PORTA           equ	3968	;# 
   404   000F81                     PORTB           equ	3969	;# 
   405   000F82                     PORTC           equ	3970	;# 
   406   000F83                     PORTD           equ	3971	;# 
   407   000F84                     PORTE           equ	3972	;# 
   408   000F89                     LATA            equ	3977	;# 
   409   000F8A                     LATB            equ	3978	;# 
   410   000F8B                     LATC            equ	3979	;# 
   411   000F8C                     LATD            equ	3980	;# 
   412   000F8D                     LATE            equ	3981	;# 
   413   000F92                     TRISA           equ	3986	;# 
   414   000F92                     DDRA            equ	3986	;# 
   415   000F93                     TRISB           equ	3987	;# 
   416   000F93                     DDRB            equ	3987	;# 
   417   000F94                     TRISC           equ	3988	;# 
   418   000F94                     DDRC            equ	3988	;# 
   419   000F95                     TRISD           equ	3989	;# 
   420   000F95                     DDRD            equ	3989	;# 
   421   000F96                     TRISE           equ	3990	;# 
   422   000F96                     DDRE            equ	3990	;# 
   423   000F9B                     OSCTUNE         equ	3995	;# 
   424   000F9D                     PIE1            equ	3997	;# 
   425   000F9E                     PIR1            equ	3998	;# 
   426   000F9F                     IPR1            equ	3999	;# 
   427   000FA0                     PIE2            equ	4000	;# 
   428   000FA1                     PIR2            equ	4001	;# 
   429   000FA2                     IPR2            equ	4002	;# 
   430   000FA6                     EECON1          equ	4006	;# 
   431   000FA7                     EECON2          equ	4007	;# 
   432   000FA8                     EEDATA          equ	4008	;# 
   433   000FA9                     EEADR           equ	4009	;# 
   434   000FAB                     RCSTA           equ	4011	;# 
   435   000FAB                     RCSTA1          equ	4011	;# 
   436   000FAC                     TXSTA           equ	4012	;# 
   437   000FAC                     TXSTA1          equ	4012	;# 
   438   000FAD                     TXREG           equ	4013	;# 
   439   000FAD                     TXREG1          equ	4013	;# 
   440   000FAE                     RCREG           equ	4014	;# 
   441   000FAE                     RCREG1          equ	4014	;# 
   442   000FAF                     SPBRG           equ	4015	;# 
   443   000FAF                     SPBRG1          equ	4015	;# 
   444   000FB0                     SPBRGH          equ	4016	;# 
   445   000FB1                     T3CON           equ	4017	;# 
   446   000FB2                     TMR3            equ	4018	;# 
   447   000FB2                     TMR3L           equ	4018	;# 
   448   000FB3                     TMR3H           equ	4019	;# 
   449   000FB4                     CMCON           equ	4020	;# 
   450   000FB5                     CVRCON          equ	4021	;# 
   451   000FB6                     ECCP1AS         equ	4022	;# 
   452   000FB7                     ECCP1DEL        equ	4023	;# 
   453   000FB7                     PWM1CON         equ	4023	;# 
   454   000FB8                     BAUDCON         equ	4024	;# 
   455   000FB8                     BAUDCTL         equ	4024	;# 
   456   000FBA                     CCP2CON         equ	4026	;# 
   457   000FBB                     CCPR2           equ	4027	;# 
   458   000FBB                     CCPR2L          equ	4027	;# 
   459   000FBC                     CCPR2H          equ	4028	;# 
   460   000FBD                     CCP1CON         equ	4029	;# 
   461   000FBD                     ECCP1CON        equ	4029	;# 
   462   000FBE                     CCPR1           equ	4030	;# 
   463   000FBE                     CCPR1L          equ	4030	;# 
   464   000FBF                     CCPR1H          equ	4031	;# 
   465   000FC0                     ADCON2          equ	4032	;# 
   466   000FC1                     ADCON1          equ	4033	;# 
   467   000FC2                     ADCON0          equ	4034	;# 
   468   000FC3                     ADRES           equ	4035	;# 
   469   000FC3                     ADRESL          equ	4035	;# 
   470   000FC4                     ADRESH          equ	4036	;# 
   471   000FC5                     SSPCON2         equ	4037	;# 
   472   000FC6                     SSPCON1         equ	4038	;# 
   473   000FC7                     SSPSTAT         equ	4039	;# 
   474   000FC8                     SSPADD          equ	4040	;# 
   475   000FC9                     SSPBUF          equ	4041	;# 
   476   000FCA                     T2CON           equ	4042	;# 
   477   000FCB                     PR2             equ	4043	;# 
   478   000FCB                     MEMCON          equ	4043	;# 
   479   000FCC                     TMR2            equ	4044	;# 
   480   000FCD                     T1CON           equ	4045	;# 
   481   000FCE                     TMR1            equ	4046	;# 
   482   000FCE                     TMR1L           equ	4046	;# 
   483   000FCF                     TMR1H           equ	4047	;# 
   484   000FD0                     RCON            equ	4048	;# 
   485   000FD1                     WDTCON          equ	4049	;# 
   486   000FD2                     HLVDCON         equ	4050	;# 
   487   000FD2                     LVDCON          equ	4050	;# 
   488   000FD3                     OSCCON          equ	4051	;# 
   489   000FD5                     T0CON           equ	4053	;# 
   490   000FD6                     TMR0            equ	4054	;# 
   491   000FD6                     TMR0L           equ	4054	;# 
   492   000FD7                     TMR0H           equ	4055	;# 
   493   000FD8                     STATUS          equ	4056	;# 
   494   000FD9                     FSR2            equ	4057	;# 
   495   000FD9                     FSR2L           equ	4057	;# 
   496   000FDA                     FSR2H           equ	4058	;# 
   497   000FDB                     PLUSW2          equ	4059	;# 
   498   000FDC                     PREINC2         equ	4060	;# 
   499   000FDD                     POSTDEC2        equ	4061	;# 
   500   000FDE                     POSTINC2        equ	4062	;# 
   501   000FDF                     INDF2           equ	4063	;# 
   502   000FE0                     BSR             equ	4064	;# 
   503   000FE1                     FSR1            equ	4065	;# 
   504   000FE1                     FSR1L           equ	4065	;# 
   505   000FE2                     FSR1H           equ	4066	;# 
   506   000FE3                     PLUSW1          equ	4067	;# 
   507   000FE4                     PREINC1         equ	4068	;# 
   508   000FE5                     POSTDEC1        equ	4069	;# 
   509   000FE6                     POSTINC1        equ	4070	;# 
   510   000FE7                     INDF1           equ	4071	;# 
   511   000FE8                     WREG            equ	4072	;# 
   512   000FE9                     FSR0            equ	4073	;# 
   513   000FE9                     FSR0L           equ	4073	;# 
   514   000FEA                     FSR0H           equ	4074	;# 
   515   000FEB                     PLUSW0          equ	4075	;# 
   516   000FEC                     PREINC0         equ	4076	;# 
   517   000FED                     POSTDEC0        equ	4077	;# 
   518   000FEE                     POSTINC0        equ	4078	;# 
   519   000FEF                     INDF0           equ	4079	;# 
   520   000FF0                     INTCON3         equ	4080	;# 
   521   000FF1                     INTCON2         equ	4081	;# 
   522   000FF2                     INTCON          equ	4082	;# 
   523   000FF3                     PROD            equ	4083	;# 
   524   000FF3                     PRODL           equ	4083	;# 
   525   000FF4                     PRODH           equ	4084	;# 
   526   000FF5                     TABLAT          equ	4085	;# 
   527   000FF6                     TBLPTR          equ	4086	;# 
   528   000FF6                     TBLPTRL         equ	4086	;# 
   529   000FF7                     TBLPTRH         equ	4087	;# 
   530   000FF8                     TBLPTRU         equ	4088	;# 
   531   000FF9                     PCLAT           equ	4089	;# 
   532   000FF9                     PC              equ	4089	;# 
   533   000FF9                     PCL             equ	4089	;# 
   534   000FFA                     PCLATH          equ	4090	;# 
   535   000FFB                     PCLATU          equ	4091	;# 
   536   000FFC                     STKPTR          equ	4092	;# 
   537   000FFD                     TOS             equ	4093	;# 
   538   000FFD                     TOSL            equ	4093	;# 
   539   000FFE                     TOSH            equ	4094	;# 
   540   000FFF                     TOSU            equ	4095	;# 
   541   000F80                     PORTA           equ	3968	;# 
   542   000F81                     PORTB           equ	3969	;# 
   543   000F82                     PORTC           equ	3970	;# 
   544   000F83                     PORTD           equ	3971	;# 
   545   000F84                     PORTE           equ	3972	;# 
   546   000F89                     LATA            equ	3977	;# 
   547   000F8A                     LATB            equ	3978	;# 
   548   000F8B                     LATC            equ	3979	;# 
   549   000F8C                     LATD            equ	3980	;# 
   550   000F8D                     LATE            equ	3981	;# 
   551   000F92                     TRISA           equ	3986	;# 
   552   000F92                     DDRA            equ	3986	;# 
   553   000F93                     TRISB           equ	3987	;# 
   554   000F93                     DDRB            equ	3987	;# 
   555   000F94                     TRISC           equ	3988	;# 
   556   000F94                     DDRC            equ	3988	;# 
   557   000F95                     TRISD           equ	3989	;# 
   558   000F95                     DDRD            equ	3989	;# 
   559   000F96                     TRISE           equ	3990	;# 
   560   000F96                     DDRE            equ	3990	;# 
   561   000F9B                     OSCTUNE         equ	3995	;# 
   562   000F9D                     PIE1            equ	3997	;# 
   563   000F9E                     PIR1            equ	3998	;# 
   564   000F9F                     IPR1            equ	3999	;# 
   565   000FA0                     PIE2            equ	4000	;# 
   566   000FA1                     PIR2            equ	4001	;# 
   567   000FA2                     IPR2            equ	4002	;# 
   568   000FA6                     EECON1          equ	4006	;# 
   569   000FA7                     EECON2          equ	4007	;# 
   570   000FA8                     EEDATA          equ	4008	;# 
   571   000FA9                     EEADR           equ	4009	;# 
   572   000FAB                     RCSTA           equ	4011	;# 
   573   000FAB                     RCSTA1          equ	4011	;# 
   574   000FAC                     TXSTA           equ	4012	;# 
   575   000FAC                     TXSTA1          equ	4012	;# 
   576   000FAD                     TXREG           equ	4013	;# 
   577   000FAD                     TXREG1          equ	4013	;# 
   578   000FAE                     RCREG           equ	4014	;# 
   579   000FAE                     RCREG1          equ	4014	;# 
   580   000FAF                     SPBRG           equ	4015	;# 
   581   000FAF                     SPBRG1          equ	4015	;# 
   582   000FB0                     SPBRGH          equ	4016	;# 
   583   000FB1                     T3CON           equ	4017	;# 
   584   000FB2                     TMR3            equ	4018	;# 
   585   000FB2                     TMR3L           equ	4018	;# 
   586   000FB3                     TMR3H           equ	4019	;# 
   587   000FB4                     CMCON           equ	4020	;# 
   588   000FB5                     CVRCON          equ	4021	;# 
   589   000FB6                     ECCP1AS         equ	4022	;# 
   590   000FB7                     ECCP1DEL        equ	4023	;# 
   591   000FB7                     PWM1CON         equ	4023	;# 
   592   000FB8                     BAUDCON         equ	4024	;# 
   593   000FB8                     BAUDCTL         equ	4024	;# 
   594   000FBA                     CCP2CON         equ	4026	;# 
   595   000FBB                     CCPR2           equ	4027	;# 
   596   000FBB                     CCPR2L          equ	4027	;# 
   597   000FBC                     CCPR2H          equ	4028	;# 
   598   000FBD                     CCP1CON         equ	4029	;# 
   599   000FBD                     ECCP1CON        equ	4029	;# 
   600   000FBE                     CCPR1           equ	4030	;# 
   601   000FBE                     CCPR1L          equ	4030	;# 
   602   000FBF                     CCPR1H          equ	4031	;# 
   603   000FC0                     ADCON2          equ	4032	;# 
   604   000FC1                     ADCON1          equ	4033	;# 
   605   000FC2                     ADCON0          equ	4034	;# 
   606   000FC3                     ADRES           equ	4035	;# 
   607   000FC3                     ADRESL          equ	4035	;# 
   608   000FC4                     ADRESH          equ	4036	;# 
   609   000FC5                     SSPCON2         equ	4037	;# 
   610   000FC6                     SSPCON1         equ	4038	;# 
   611   000FC7                     SSPSTAT         equ	4039	;# 
   612   000FC8                     SSPADD          equ	4040	;# 
   613   000FC9                     SSPBUF          equ	4041	;# 
   614   000FCA                     T2CON           equ	4042	;# 
   615   000FCB                     PR2             equ	4043	;# 
   616   000FCB                     MEMCON          equ	4043	;# 
   617   000FCC                     TMR2            equ	4044	;# 
   618   000FCD                     T1CON           equ	4045	;# 
   619   000FCE                     TMR1            equ	4046	;# 
   620   000FCE                     TMR1L           equ	4046	;# 
   621   000FCF                     TMR1H           equ	4047	;# 
   622   000FD0                     RCON            equ	4048	;# 
   623   000FD1                     WDTCON          equ	4049	;# 
   624   000FD2                     HLVDCON         equ	4050	;# 
   625   000FD2                     LVDCON          equ	4050	;# 
   626   000FD3                     OSCCON          equ	4051	;# 
   627   000FD5                     T0CON           equ	4053	;# 
   628   000FD6                     TMR0            equ	4054	;# 
   629   000FD6                     TMR0L           equ	4054	;# 
   630   000FD7                     TMR0H           equ	4055	;# 
   631   000FD8                     STATUS          equ	4056	;# 
   632   000FD9                     FSR2            equ	4057	;# 
   633   000FD9                     FSR2L           equ	4057	;# 
   634   000FDA                     FSR2H           equ	4058	;# 
   635   000FDB                     PLUSW2          equ	4059	;# 
   636   000FDC                     PREINC2         equ	4060	;# 
   637   000FDD                     POSTDEC2        equ	4061	;# 
   638   000FDE                     POSTINC2        equ	4062	;# 
   639   000FDF                     INDF2           equ	4063	;# 
   640   000FE0                     BSR             equ	4064	;# 
   641   000FE1                     FSR1            equ	4065	;# 
   642   000FE1                     FSR1L           equ	4065	;# 
   643   000FE2                     FSR1H           equ	4066	;# 
   644   000FE3                     PLUSW1          equ	4067	;# 
   645   000FE4                     PREINC1         equ	4068	;# 
   646   000FE5                     POSTDEC1        equ	4069	;# 
   647   000FE6                     POSTINC1        equ	4070	;# 
   648   000FE7                     INDF1           equ	4071	;# 
   649   000FE8                     WREG            equ	4072	;# 
   650   000FE9                     FSR0            equ	4073	;# 
   651   000FE9                     FSR0L           equ	4073	;# 
   652   000FEA                     FSR0H           equ	4074	;# 
   653   000FEB                     PLUSW0          equ	4075	;# 
   654   000FEC                     PREINC0         equ	4076	;# 
   655   000FED                     POSTDEC0        equ	4077	;# 
   656   000FEE                     POSTINC0        equ	4078	;# 
   657   000FEF                     INDF0           equ	4079	;# 
   658   000FF0                     INTCON3         equ	4080	;# 
   659   000FF1                     INTCON2         equ	4081	;# 
   660   000FF2                     INTCON          equ	4082	;# 
   661   000FF3                     PROD            equ	4083	;# 
   662   000FF3                     PRODL           equ	4083	;# 
   663   000FF4                     PRODH           equ	4084	;# 
   664   000FF5                     TABLAT          equ	4085	;# 
   665   000FF6                     TBLPTR          equ	4086	;# 
   666   000FF6                     TBLPTRL         equ	4086	;# 
   667   000FF7                     TBLPTRH         equ	4087	;# 
   668   000FF8                     TBLPTRU         equ	4088	;# 
   669   000FF9                     PCLAT           equ	4089	;# 
   670   000FF9                     PC              equ	4089	;# 
   671   000FF9                     PCL             equ	4089	;# 
   672   000FFA                     PCLATH          equ	4090	;# 
   673   000FFB                     PCLATU          equ	4091	;# 
   674   000FFC                     STKPTR          equ	4092	;# 
   675   000FFD                     TOS             equ	4093	;# 
   676   000FFD                     TOSL            equ	4093	;# 
   677   000FFE                     TOSH            equ	4094	;# 
   678   000FFF                     TOSU            equ	4095	;# 
   679   000F80                     PORTA           equ	3968	;# 
   680   000F81                     PORTB           equ	3969	;# 
   681   000F82                     PORTC           equ	3970	;# 
   682   000F83                     PORTD           equ	3971	;# 
   683   000F84                     PORTE           equ	3972	;# 
   684   000F89                     LATA            equ	3977	;# 
   685   000F8A                     LATB            equ	3978	;# 
   686   000F8B                     LATC            equ	3979	;# 
   687   000F8C                     LATD            equ	3980	;# 
   688   000F8D                     LATE            equ	3981	;# 
   689   000F92                     TRISA           equ	3986	;# 
   690   000F92                     DDRA            equ	3986	;# 
   691   000F93                     TRISB           equ	3987	;# 
   692   000F93                     DDRB            equ	3987	;# 
   693   000F94                     TRISC           equ	3988	;# 
   694   000F94                     DDRC            equ	3988	;# 
   695   000F95                     TRISD           equ	3989	;# 
   696   000F95                     DDRD            equ	3989	;# 
   697   000F96                     TRISE           equ	3990	;# 
   698   000F96                     DDRE            equ	3990	;# 
   699   000F9B                     OSCTUNE         equ	3995	;# 
   700   000F9D                     PIE1            equ	3997	;# 
   701   000F9E                     PIR1            equ	3998	;# 
   702   000F9F                     IPR1            equ	3999	;# 
   703   000FA0                     PIE2            equ	4000	;# 
   704   000FA1                     PIR2            equ	4001	;# 
   705   000FA2                     IPR2            equ	4002	;# 
   706   000FA6                     EECON1          equ	4006	;# 
   707   000FA7                     EECON2          equ	4007	;# 
   708   000FA8                     EEDATA          equ	4008	;# 
   709   000FA9                     EEADR           equ	4009	;# 
   710   000FAB                     RCSTA           equ	4011	;# 
   711   000FAB                     RCSTA1          equ	4011	;# 
   712   000FAC                     TXSTA           equ	4012	;# 
   713   000FAC                     TXSTA1          equ	4012	;# 
   714   000FAD                     TXREG           equ	4013	;# 
   715   000FAD                     TXREG1          equ	4013	;# 
   716   000FAE                     RCREG           equ	4014	;# 
   717   000FAE                     RCREG1          equ	4014	;# 
   718   000FAF                     SPBRG           equ	4015	;# 
   719   000FAF                     SPBRG1          equ	4015	;# 
   720   000FB0                     SPBRGH          equ	4016	;# 
   721   000FB1                     T3CON           equ	4017	;# 
   722   000FB2                     TMR3            equ	4018	;# 
   723   000FB2                     TMR3L           equ	4018	;# 
   724   000FB3                     TMR3H           equ	4019	;# 
   725   000FB4                     CMCON           equ	4020	;# 
   726   000FB5                     CVRCON          equ	4021	;# 
   727   000FB6                     ECCP1AS         equ	4022	;# 
   728   000FB7                     ECCP1DEL        equ	4023	;# 
   729   000FB7                     PWM1CON         equ	4023	;# 
   730   000FB8                     BAUDCON         equ	4024	;# 
   731   000FB8                     BAUDCTL         equ	4024	;# 
   732   000FBA                     CCP2CON         equ	4026	;# 
   733   000FBB                     CCPR2           equ	4027	;# 
   734   000FBB                     CCPR2L          equ	4027	;# 
   735   000FBC                     CCPR2H          equ	4028	;# 
   736   000FBD                     CCP1CON         equ	4029	;# 
   737   000FBD                     ECCP1CON        equ	4029	;# 
   738   000FBE                     CCPR1           equ	4030	;# 
   739   000FBE                     CCPR1L          equ	4030	;# 
   740   000FBF                     CCPR1H          equ	4031	;# 
   741   000FC0                     ADCON2          equ	4032	;# 
   742   000FC1                     ADCON1          equ	4033	;# 
   743   000FC2                     ADCON0          equ	4034	;# 
   744   000FC3                     ADRES           equ	4035	;# 
   745   000FC3                     ADRESL          equ	4035	;# 
   746   000FC4                     ADRESH          equ	4036	;# 
   747   000FC5                     SSPCON2         equ	4037	;# 
   748   000FC6                     SSPCON1         equ	4038	;# 
   749   000FC7                     SSPSTAT         equ	4039	;# 
   750   000FC8                     SSPADD          equ	4040	;# 
   751   000FC9                     SSPBUF          equ	4041	;# 
   752   000FCA                     T2CON           equ	4042	;# 
   753   000FCB                     PR2             equ	4043	;# 
   754   000FCB                     MEMCON          equ	4043	;# 
   755   000FCC                     TMR2            equ	4044	;# 
   756   000FCD                     T1CON           equ	4045	;# 
   757   000FCE                     TMR1            equ	4046	;# 
   758   000FCE                     TMR1L           equ	4046	;# 
   759   000FCF                     TMR1H           equ	4047	;# 
   760   000FD0                     RCON            equ	4048	;# 
   761   000FD1                     WDTCON          equ	4049	;# 
   762   000FD2                     HLVDCON         equ	4050	;# 
   763   000FD2                     LVDCON          equ	4050	;# 
   764   000FD3                     OSCCON          equ	4051	;# 
   765   000FD5                     T0CON           equ	4053	;# 
   766   000FD6                     TMR0            equ	4054	;# 
   767   000FD6                     TMR0L           equ	4054	;# 
   768   000FD7                     TMR0H           equ	4055	;# 
   769   000FD8                     STATUS          equ	4056	;# 
   770   000FD9                     FSR2            equ	4057	;# 
   771   000FD9                     FSR2L           equ	4057	;# 
   772   000FDA                     FSR2H           equ	4058	;# 
   773   000FDB                     PLUSW2          equ	4059	;# 
   774   000FDC                     PREINC2         equ	4060	;# 
   775   000FDD                     POSTDEC2        equ	4061	;# 
   776   000FDE                     POSTINC2        equ	4062	;# 
   777   000FDF                     INDF2           equ	4063	;# 
   778   000FE0                     BSR             equ	4064	;# 
   779   000FE1                     FSR1            equ	4065	;# 
   780   000FE1                     FSR1L           equ	4065	;# 
   781   000FE2                     FSR1H           equ	4066	;# 
   782   000FE3                     PLUSW1          equ	4067	;# 
   783   000FE4                     PREINC1         equ	4068	;# 
   784   000FE5                     POSTDEC1        equ	4069	;# 
   785   000FE6                     POSTINC1        equ	4070	;# 
   786   000FE7                     INDF1           equ	4071	;# 
   787   000FE8                     WREG            equ	4072	;# 
   788   000FE9                     FSR0            equ	4073	;# 
   789   000FE9                     FSR0L           equ	4073	;# 
   790   000FEA                     FSR0H           equ	4074	;# 
   791   000FEB                     PLUSW0          equ	4075	;# 
   792   000FEC                     PREINC0         equ	4076	;# 
   793   000FED                     POSTDEC0        equ	4077	;# 
   794   000FEE                     POSTINC0        equ	4078	;# 
   795   000FEF                     INDF0           equ	4079	;# 
   796   000FF0                     INTCON3         equ	4080	;# 
   797   000FF1                     INTCON2         equ	4081	;# 
   798   000FF2                     INTCON          equ	4082	;# 
   799   000FF3                     PROD            equ	4083	;# 
   800   000FF3                     PRODL           equ	4083	;# 
   801   000FF4                     PRODH           equ	4084	;# 
   802   000FF5                     TABLAT          equ	4085	;# 
   803   000FF6                     TBLPTR          equ	4086	;# 
   804   000FF6                     TBLPTRL         equ	4086	;# 
   805   000FF7                     TBLPTRH         equ	4087	;# 
   806   000FF8                     TBLPTRU         equ	4088	;# 
   807   000FF9                     PCLAT           equ	4089	;# 
   808   000FF9                     PC              equ	4089	;# 
   809   000FF9                     PCL             equ	4089	;# 
   810   000FFA                     PCLATH          equ	4090	;# 
   811   000FFB                     PCLATU          equ	4091	;# 
   812   000FFC                     STKPTR          equ	4092	;# 
   813   000FFD                     TOS             equ	4093	;# 
   814   000FFD                     TOSL            equ	4093	;# 
   815   000FFE                     TOSH            equ	4094	;# 
   816   000FFF                     TOSU            equ	4095	;# 
   817   000F80                     PORTA           equ	3968	;# 
   818   000F81                     PORTB           equ	3969	;# 
   819   000F82                     PORTC           equ	3970	;# 
   820   000F83                     PORTD           equ	3971	;# 
   821   000F84                     PORTE           equ	3972	;# 
   822   000F89                     LATA            equ	3977	;# 
   823   000F8A                     LATB            equ	3978	;# 
   824   000F8B                     LATC            equ	3979	;# 
   825   000F8C                     LATD            equ	3980	;# 
   826   000F8D                     LATE            equ	3981	;# 
   827   000F92                     TRISA           equ	3986	;# 
   828   000F92                     DDRA            equ	3986	;# 
   829   000F93                     TRISB           equ	3987	;# 
   830   000F93                     DDRB            equ	3987	;# 
   831   000F94                     TRISC           equ	3988	;# 
   832   000F94                     DDRC            equ	3988	;# 
   833   000F95                     TRISD           equ	3989	;# 
   834   000F95                     DDRD            equ	3989	;# 
   835   000F96                     TRISE           equ	3990	;# 
   836   000F96                     DDRE            equ	3990	;# 
   837   000F9B                     OSCTUNE         equ	3995	;# 
   838   000F9D                     PIE1            equ	3997	;# 
   839   000F9E                     PIR1            equ	3998	;# 
   840   000F9F                     IPR1            equ	3999	;# 
   841   000FA0                     PIE2            equ	4000	;# 
   842   000FA1                     PIR2            equ	4001	;# 
   843   000FA2                     IPR2            equ	4002	;# 
   844   000FA6                     EECON1          equ	4006	;# 
   845   000FA7                     EECON2          equ	4007	;# 
   846   000FA8                     EEDATA          equ	4008	;# 
   847   000FA9                     EEADR           equ	4009	;# 
   848   000FAB                     RCSTA           equ	4011	;# 
   849   000FAB                     RCSTA1          equ	4011	;# 
   850   000FAC                     TXSTA           equ	4012	;# 
   851   000FAC                     TXSTA1          equ	4012	;# 
   852   000FAD                     TXREG           equ	4013	;# 
   853   000FAD                     TXREG1          equ	4013	;# 
   854   000FAE                     RCREG           equ	4014	;# 
   855   000FAE                     RCREG1          equ	4014	;# 
   856   000FAF                     SPBRG           equ	4015	;# 
   857   000FAF                     SPBRG1          equ	4015	;# 
   858   000FB0                     SPBRGH          equ	4016	;# 
   859   000FB1                     T3CON           equ	4017	;# 
   860   000FB2                     TMR3            equ	4018	;# 
   861   000FB2                     TMR3L           equ	4018	;# 
   862   000FB3                     TMR3H           equ	4019	;# 
   863   000FB4                     CMCON           equ	4020	;# 
   864   000FB5                     CVRCON          equ	4021	;# 
   865   000FB6                     ECCP1AS         equ	4022	;# 
   866   000FB7                     ECCP1DEL        equ	4023	;# 
   867   000FB7                     PWM1CON         equ	4023	;# 
   868   000FB8                     BAUDCON         equ	4024	;# 
   869   000FB8                     BAUDCTL         equ	4024	;# 
   870   000FBA                     CCP2CON         equ	4026	;# 
   871   000FBB                     CCPR2           equ	4027	;# 
   872   000FBB                     CCPR2L          equ	4027	;# 
   873   000FBC                     CCPR2H          equ	4028	;# 
   874   000FBD                     CCP1CON         equ	4029	;# 
   875   000FBD                     ECCP1CON        equ	4029	;# 
   876   000FBE                     CCPR1           equ	4030	;# 
   877   000FBE                     CCPR1L          equ	4030	;# 
   878   000FBF                     CCPR1H          equ	4031	;# 
   879   000FC0                     ADCON2          equ	4032	;# 
   880   000FC1                     ADCON1          equ	4033	;# 
   881   000FC2                     ADCON0          equ	4034	;# 
   882   000FC3                     ADRES           equ	4035	;# 
   883   000FC3                     ADRESL          equ	4035	;# 
   884   000FC4                     ADRESH          equ	4036	;# 
   885   000FC5                     SSPCON2         equ	4037	;# 
   886   000FC6                     SSPCON1         equ	4038	;# 
   887   000FC7                     SSPSTAT         equ	4039	;# 
   888   000FC8                     SSPADD          equ	4040	;# 
   889   000FC9                     SSPBUF          equ	4041	;# 
   890   000FCA                     T2CON           equ	4042	;# 
   891   000FCB                     PR2             equ	4043	;# 
   892   000FCB                     MEMCON          equ	4043	;# 
   893   000FCC                     TMR2            equ	4044	;# 
   894   000FCD                     T1CON           equ	4045	;# 
   895   000FCE                     TMR1            equ	4046	;# 
   896   000FCE                     TMR1L           equ	4046	;# 
   897   000FCF                     TMR1H           equ	4047	;# 
   898   000FD0                     RCON            equ	4048	;# 
   899   000FD1                     WDTCON          equ	4049	;# 
   900   000FD2                     HLVDCON         equ	4050	;# 
   901   000FD2                     LVDCON          equ	4050	;# 
   902   000FD3                     OSCCON          equ	4051	;# 
   903   000FD5                     T0CON           equ	4053	;# 
   904   000FD6                     TMR0            equ	4054	;# 
   905   000FD6                     TMR0L           equ	4054	;# 
   906   000FD7                     TMR0H           equ	4055	;# 
   907   000FD8                     STATUS          equ	4056	;# 
   908   000FD9                     FSR2            equ	4057	;# 
   909   000FD9                     FSR2L           equ	4057	;# 
   910   000FDA                     FSR2H           equ	4058	;# 
   911   000FDB                     PLUSW2          equ	4059	;# 
   912   000FDC                     PREINC2         equ	4060	;# 
   913   000FDD                     POSTDEC2        equ	4061	;# 
   914   000FDE                     POSTINC2        equ	4062	;# 
   915   000FDF                     INDF2           equ	4063	;# 
   916   000FE0                     BSR             equ	4064	;# 
   917   000FE1                     FSR1            equ	4065	;# 
   918   000FE1                     FSR1L           equ	4065	;# 
   919   000FE2                     FSR1H           equ	4066	;# 
   920   000FE3                     PLUSW1          equ	4067	;# 
   921   000FE4                     PREINC1         equ	4068	;# 
   922   000FE5                     POSTDEC1        equ	4069	;# 
   923   000FE6                     POSTINC1        equ	4070	;# 
   924   000FE7                     INDF1           equ	4071	;# 
   925   000FE8                     WREG            equ	4072	;# 
   926   000FE9                     FSR0            equ	4073	;# 
   927   000FE9                     FSR0L           equ	4073	;# 
   928   000FEA                     FSR0H           equ	4074	;# 
   929   000FEB                     PLUSW0          equ	4075	;# 
   930   000FEC                     PREINC0         equ	4076	;# 
   931   000FED                     POSTDEC0        equ	4077	;# 
   932   000FEE                     POSTINC0        equ	4078	;# 
   933   000FEF                     INDF0           equ	4079	;# 
   934   000FF0                     INTCON3         equ	4080	;# 
   935   000FF1                     INTCON2         equ	4081	;# 
   936   000FF2                     INTCON          equ	4082	;# 
   937   000FF3                     PROD            equ	4083	;# 
   938   000FF3                     PRODL           equ	4083	;# 
   939   000FF4                     PRODH           equ	4084	;# 
   940   000FF5                     TABLAT          equ	4085	;# 
   941   000FF6                     TBLPTR          equ	4086	;# 
   942   000FF6                     TBLPTRL         equ	4086	;# 
   943   000FF7                     TBLPTRH         equ	4087	;# 
   944   000FF8                     TBLPTRU         equ	4088	;# 
   945   000FF9                     PCLAT           equ	4089	;# 
   946   000FF9                     PC              equ	4089	;# 
   947   000FF9                     PCL             equ	4089	;# 
   948   000FFA                     PCLATH          equ	4090	;# 
   949   000FFB                     PCLATU          equ	4091	;# 
   950   000FFC                     STKPTR          equ	4092	;# 
   951   000FFD                     TOS             equ	4093	;# 
   952   000FFD                     TOSL            equ	4093	;# 
   953   000FFE                     TOSH            equ	4094	;# 
   954   000FFF                     TOSU            equ	4095	;# 
   955   000F80                     PORTA           equ	3968	;# 
   956   000F81                     PORTB           equ	3969	;# 
   957   000F82                     PORTC           equ	3970	;# 
   958   000F83                     PORTD           equ	3971	;# 
   959   000F84                     PORTE           equ	3972	;# 
   960   000F89                     LATA            equ	3977	;# 
   961   000F8A                     LATB            equ	3978	;# 
   962   000F8B                     LATC            equ	3979	;# 
   963   000F8C                     LATD            equ	3980	;# 
   964   000F8D                     LATE            equ	3981	;# 
   965   000F92                     TRISA           equ	3986	;# 
   966   000F92                     DDRA            equ	3986	;# 
   967   000F93                     TRISB           equ	3987	;# 
   968   000F93                     DDRB            equ	3987	;# 
   969   000F94                     TRISC           equ	3988	;# 
   970   000F94                     DDRC            equ	3988	;# 
   971   000F95                     TRISD           equ	3989	;# 
   972   000F95                     DDRD            equ	3989	;# 
   973   000F96                     TRISE           equ	3990	;# 
   974   000F96                     DDRE            equ	3990	;# 
   975   000F9B                     OSCTUNE         equ	3995	;# 
   976   000F9D                     PIE1            equ	3997	;# 
   977   000F9E                     PIR1            equ	3998	;# 
   978   000F9F                     IPR1            equ	3999	;# 
   979   000FA0                     PIE2            equ	4000	;# 
   980   000FA1                     PIR2            equ	4001	;# 
   981   000FA2                     IPR2            equ	4002	;# 
   982   000FA6                     EECON1          equ	4006	;# 
   983   000FA7                     EECON2          equ	4007	;# 
   984   000FA8                     EEDATA          equ	4008	;# 
   985   000FA9                     EEADR           equ	4009	;# 
   986   000FAB                     RCSTA           equ	4011	;# 
   987   000FAB                     RCSTA1          equ	4011	;# 
   988   000FAC                     TXSTA           equ	4012	;# 
   989   000FAC                     TXSTA1          equ	4012	;# 
   990   000FAD                     TXREG           equ	4013	;# 
   991   000FAD                     TXREG1          equ	4013	;# 
   992   000FAE                     RCREG           equ	4014	;# 
   993   000FAE                     RCREG1          equ	4014	;# 
   994   000FAF                     SPBRG           equ	4015	;# 
   995   000FAF                     SPBRG1          equ	4015	;# 
   996   000FB0                     SPBRGH          equ	4016	;# 
   997   000FB1                     T3CON           equ	4017	;# 
   998   000FB2                     TMR3            equ	4018	;# 
   999   000FB2                     TMR3L           equ	4018	;# 
  1000   000FB3                     TMR3H           equ	4019	;# 
  1001   000FB4                     CMCON           equ	4020	;# 
  1002   000FB5                     CVRCON          equ	4021	;# 
  1003   000FB6                     ECCP1AS         equ	4022	;# 
  1004   000FB7                     ECCP1DEL        equ	4023	;# 
  1005   000FB7                     PWM1CON         equ	4023	;# 
  1006   000FB8                     BAUDCON         equ	4024	;# 
  1007   000FB8                     BAUDCTL         equ	4024	;# 
  1008   000FBA                     CCP2CON         equ	4026	;# 
  1009   000FBB                     CCPR2           equ	4027	;# 
  1010   000FBB                     CCPR2L          equ	4027	;# 
  1011   000FBC                     CCPR2H          equ	4028	;# 
  1012   000FBD                     CCP1CON         equ	4029	;# 
  1013   000FBD                     ECCP1CON        equ	4029	;# 
  1014   000FBE                     CCPR1           equ	4030	;# 
  1015   000FBE                     CCPR1L          equ	4030	;# 
  1016   000FBF                     CCPR1H          equ	4031	;# 
  1017   000FC0                     ADCON2          equ	4032	;# 
  1018   000FC1                     ADCON1          equ	4033	;# 
  1019   000FC2                     ADCON0          equ	4034	;# 
  1020   000FC3                     ADRES           equ	4035	;# 
  1021   000FC3                     ADRESL          equ	4035	;# 
  1022   000FC4                     ADRESH          equ	4036	;# 
  1023   000FC5                     SSPCON2         equ	4037	;# 
  1024   000FC6                     SSPCON1         equ	4038	;# 
  1025   000FC7                     SSPSTAT         equ	4039	;# 
  1026   000FC8                     SSPADD          equ	4040	;# 
  1027   000FC9                     SSPBUF          equ	4041	;# 
  1028   000FCA                     T2CON           equ	4042	;# 
  1029   000FCB                     PR2             equ	4043	;# 
  1030   000FCB                     MEMCON          equ	4043	;# 
  1031   000FCC                     TMR2            equ	4044	;# 
  1032   000FCD                     T1CON           equ	4045	;# 
  1033   000FCE                     TMR1            equ	4046	;# 
  1034   000FCE                     TMR1L           equ	4046	;# 
  1035   000FCF                     TMR1H           equ	4047	;# 
  1036   000FD0                     RCON            equ	4048	;# 
  1037   000FD1                     WDTCON          equ	4049	;# 
  1038   000FD2                     HLVDCON         equ	4050	;# 
  1039   000FD2                     LVDCON          equ	4050	;# 
  1040   000FD3                     OSCCON          equ	4051	;# 
  1041   000FD5                     T0CON           equ	4053	;# 
  1042   000FD6                     TMR0            equ	4054	;# 
  1043   000FD6                     TMR0L           equ	4054	;# 
  1044   000FD7                     TMR0H           equ	4055	;# 
  1045   000FD8                     STATUS          equ	4056	;# 
  1046   000FD9                     FSR2            equ	4057	;# 
  1047   000FD9                     FSR2L           equ	4057	;# 
  1048   000FDA                     FSR2H           equ	4058	;# 
  1049   000FDB                     PLUSW2          equ	4059	;# 
  1050   000FDC                     PREINC2         equ	4060	;# 
  1051   000FDD                     POSTDEC2        equ	4061	;# 
  1052   000FDE                     POSTINC2        equ	4062	;# 
  1053   000FDF                     INDF2           equ	4063	;# 
  1054   000FE0                     BSR             equ	4064	;# 
  1055   000FE1                     FSR1            equ	4065	;# 
  1056   000FE1                     FSR1L           equ	4065	;# 
  1057   000FE2                     FSR1H           equ	4066	;# 
  1058   000FE3                     PLUSW1          equ	4067	;# 
  1059   000FE4                     PREINC1         equ	4068	;# 
  1060   000FE5                     POSTDEC1        equ	4069	;# 
  1061   000FE6                     POSTINC1        equ	4070	;# 
  1062   000FE7                     INDF1           equ	4071	;# 
  1063   000FE8                     WREG            equ	4072	;# 
  1064   000FE9                     FSR0            equ	4073	;# 
  1065   000FE9                     FSR0L           equ	4073	;# 
  1066   000FEA                     FSR0H           equ	4074	;# 
  1067   000FEB                     PLUSW0          equ	4075	;# 
  1068   000FEC                     PREINC0         equ	4076	;# 
  1069   000FED                     POSTDEC0        equ	4077	;# 
  1070   000FEE                     POSTINC0        equ	4078	;# 
  1071   000FEF                     INDF0           equ	4079	;# 
  1072   000FF0                     INTCON3         equ	4080	;# 
  1073   000FF1                     INTCON2         equ	4081	;# 
  1074   000FF2                     INTCON          equ	4082	;# 
  1075   000FF3                     PROD            equ	4083	;# 
  1076   000FF3                     PRODL           equ	4083	;# 
  1077   000FF4                     PRODH           equ	4084	;# 
  1078   000FF5                     TABLAT          equ	4085	;# 
  1079   000FF6                     TBLPTR          equ	4086	;# 
  1080   000FF6                     TBLPTRL         equ	4086	;# 
  1081   000FF7                     TBLPTRH         equ	4087	;# 
  1082   000FF8                     TBLPTRU         equ	4088	;# 
  1083   000FF9                     PCLAT           equ	4089	;# 
  1084   000FF9                     PC              equ	4089	;# 
  1085   000FF9                     PCL             equ	4089	;# 
  1086   000FFA                     PCLATH          equ	4090	;# 
  1087   000FFB                     PCLATU          equ	4091	;# 
  1088   000FFC                     STKPTR          equ	4092	;# 
  1089   000FFD                     TOS             equ	4093	;# 
  1090   000FFD                     TOSL            equ	4093	;# 
  1091   000FFE                     TOSH            equ	4094	;# 
  1092   000FFF                     TOSU            equ	4095	;# 
  1093   000F80                     PORTA           equ	3968	;# 
  1094   000F81                     PORTB           equ	3969	;# 
  1095   000F82                     PORTC           equ	3970	;# 
  1096   000F83                     PORTD           equ	3971	;# 
  1097   000F84                     PORTE           equ	3972	;# 
  1098   000F89                     LATA            equ	3977	;# 
  1099   000F8A                     LATB            equ	3978	;# 
  1100   000F8B                     LATC            equ	3979	;# 
  1101   000F8C                     LATD            equ	3980	;# 
  1102   000F8D                     LATE            equ	3981	;# 
  1103   000F92                     TRISA           equ	3986	;# 
  1104   000F92                     DDRA            equ	3986	;# 
  1105   000F93                     TRISB           equ	3987	;# 
  1106   000F93                     DDRB            equ	3987	;# 
  1107   000F94                     TRISC           equ	3988	;# 
  1108   000F94                     DDRC            equ	3988	;# 
  1109   000F95                     TRISD           equ	3989	;# 
  1110   000F95                     DDRD            equ	3989	;# 
  1111   000F96                     TRISE           equ	3990	;# 
  1112   000F96                     DDRE            equ	3990	;# 
  1113   000F9B                     OSCTUNE         equ	3995	;# 
  1114   000F9D                     PIE1            equ	3997	;# 
  1115   000F9E                     PIR1            equ	3998	;# 
  1116   000F9F                     IPR1            equ	3999	;# 
  1117   000FA0                     PIE2            equ	4000	;# 
  1118   000FA1                     PIR2            equ	4001	;# 
  1119   000FA2                     IPR2            equ	4002	;# 
  1120   000FA6                     EECON1          equ	4006	;# 
  1121   000FA7                     EECON2          equ	4007	;# 
  1122   000FA8                     EEDATA          equ	4008	;# 
  1123   000FA9                     EEADR           equ	4009	;# 
  1124   000FAB                     RCSTA           equ	4011	;# 
  1125   000FAB                     RCSTA1          equ	4011	;# 
  1126   000FAC                     TXSTA           equ	4012	;# 
  1127   000FAC                     TXSTA1          equ	4012	;# 
  1128   000FAD                     TXREG           equ	4013	;# 
  1129   000FAD                     TXREG1          equ	4013	;# 
  1130   000FAE                     RCREG           equ	4014	;# 
  1131   000FAE                     RCREG1          equ	4014	;# 
  1132   000FAF                     SPBRG           equ	4015	;# 
  1133   000FAF                     SPBRG1          equ	4015	;# 
  1134   000FB0                     SPBRGH          equ	4016	;# 
  1135   000FB1                     T3CON           equ	4017	;# 
  1136   000FB2                     TMR3            equ	4018	;# 
  1137   000FB2                     TMR3L           equ	4018	;# 
  1138   000FB3                     TMR3H           equ	4019	;# 
  1139   000FB4                     CMCON           equ	4020	;# 
  1140   000FB5                     CVRCON          equ	4021	;# 
  1141   000FB6                     ECCP1AS         equ	4022	;# 
  1142   000FB7                     ECCP1DEL        equ	4023	;# 
  1143   000FB7                     PWM1CON         equ	4023	;# 
  1144   000FB8                     BAUDCON         equ	4024	;# 
  1145   000FB8                     BAUDCTL         equ	4024	;# 
  1146   000FBA                     CCP2CON         equ	4026	;# 
  1147   000FBB                     CCPR2           equ	4027	;# 
  1148   000FBB                     CCPR2L          equ	4027	;# 
  1149   000FBC                     CCPR2H          equ	4028	;# 
  1150   000FBD                     CCP1CON         equ	4029	;# 
  1151   000FBD                     ECCP1CON        equ	4029	;# 
  1152   000FBE                     CCPR1           equ	4030	;# 
  1153   000FBE                     CCPR1L          equ	4030	;# 
  1154   000FBF                     CCPR1H          equ	4031	;# 
  1155   000FC0                     ADCON2          equ	4032	;# 
  1156   000FC1                     ADCON1          equ	4033	;# 
  1157   000FC2                     ADCON0          equ	4034	;# 
  1158   000FC3                     ADRES           equ	4035	;# 
  1159   000FC3                     ADRESL          equ	4035	;# 
  1160   000FC4                     ADRESH          equ	4036	;# 
  1161   000FC5                     SSPCON2         equ	4037	;# 
  1162   000FC6                     SSPCON1         equ	4038	;# 
  1163   000FC7                     SSPSTAT         equ	4039	;# 
  1164   000FC8                     SSPADD          equ	4040	;# 
  1165   000FC9                     SSPBUF          equ	4041	;# 
  1166   000FCA                     T2CON           equ	4042	;# 
  1167   000FCB                     PR2             equ	4043	;# 
  1168   000FCB                     MEMCON          equ	4043	;# 
  1169   000FCC                     TMR2            equ	4044	;# 
  1170   000FCD                     T1CON           equ	4045	;# 
  1171   000FCE                     TMR1            equ	4046	;# 
  1172   000FCE                     TMR1L           equ	4046	;# 
  1173   000FCF                     TMR1H           equ	4047	;# 
  1174   000FD0                     RCON            equ	4048	;# 
  1175   000FD1                     WDTCON          equ	4049	;# 
  1176   000FD2                     HLVDCON         equ	4050	;# 
  1177   000FD2                     LVDCON          equ	4050	;# 
  1178   000FD3                     OSCCON          equ	4051	;# 
  1179   000FD5                     T0CON           equ	4053	;# 
  1180   000FD6                     TMR0            equ	4054	;# 
  1181   000FD6                     TMR0L           equ	4054	;# 
  1182   000FD7                     TMR0H           equ	4055	;# 
  1183   000FD8                     STATUS          equ	4056	;# 
  1184   000FD9                     FSR2            equ	4057	;# 
  1185   000FD9                     FSR2L           equ	4057	;# 
  1186   000FDA                     FSR2H           equ	4058	;# 
  1187   000FDB                     PLUSW2          equ	4059	;# 
  1188   000FDC                     PREINC2         equ	4060	;# 
  1189   000FDD                     POSTDEC2        equ	4061	;# 
  1190   000FDE                     POSTINC2        equ	4062	;# 
  1191   000FDF                     INDF2           equ	4063	;# 
  1192   000FE0                     BSR             equ	4064	;# 
  1193   000FE1                     FSR1            equ	4065	;# 
  1194   000FE1                     FSR1L           equ	4065	;# 
  1195   000FE2                     FSR1H           equ	4066	;# 
  1196   000FE3                     PLUSW1          equ	4067	;# 
  1197   000FE4                     PREINC1         equ	4068	;# 
  1198   000FE5                     POSTDEC1        equ	4069	;# 
  1199   000FE6                     POSTINC1        equ	4070	;# 
  1200   000FE7                     INDF1           equ	4071	;# 
  1201   000FE8                     WREG            equ	4072	;# 
  1202   000FE9                     FSR0            equ	4073	;# 
  1203   000FE9                     FSR0L           equ	4073	;# 
  1204   000FEA                     FSR0H           equ	4074	;# 
  1205   000FEB                     PLUSW0          equ	4075	;# 
  1206   000FEC                     PREINC0         equ	4076	;# 
  1207   000FED                     POSTDEC0        equ	4077	;# 
  1208   000FEE                     POSTINC0        equ	4078	;# 
  1209   000FEF                     INDF0           equ	4079	;# 
  1210   000FF0                     INTCON3         equ	4080	;# 
  1211   000FF1                     INTCON2         equ	4081	;# 
  1212   000FF2                     INTCON          equ	4082	;# 
  1213   000FF3                     PROD            equ	4083	;# 
  1214   000FF3                     PRODL           equ	4083	;# 
  1215   000FF4                     PRODH           equ	4084	;# 
  1216   000FF5                     TABLAT          equ	4085	;# 
  1217   000FF6                     TBLPTR          equ	4086	;# 
  1218   000FF6                     TBLPTRL         equ	4086	;# 
  1219   000FF7                     TBLPTRH         equ	4087	;# 
  1220   000FF8                     TBLPTRU         equ	4088	;# 
  1221   000FF9                     PCLAT           equ	4089	;# 
  1222   000FF9                     PC              equ	4089	;# 
  1223   000FF9                     PCL             equ	4089	;# 
  1224   000FFA                     PCLATH          equ	4090	;# 
  1225   000FFB                     PCLATU          equ	4091	;# 
  1226   000FFC                     STKPTR          equ	4092	;# 
  1227   000FFD                     TOS             equ	4093	;# 
  1228   000FFD                     TOSL            equ	4093	;# 
  1229   000FFE                     TOSH            equ	4094	;# 
  1230   000FFF                     TOSU            equ	4095	;# 
  1231   000F80                     PORTA           equ	3968	;# 
  1232   000F81                     PORTB           equ	3969	;# 
  1233   000F82                     PORTC           equ	3970	;# 
  1234   000F83                     PORTD           equ	3971	;# 
  1235   000F84                     PORTE           equ	3972	;# 
  1236   000F89                     LATA            equ	3977	;# 
  1237   000F8A                     LATB            equ	3978	;# 
  1238   000F8B                     LATC            equ	3979	;# 
  1239   000F8C                     LATD            equ	3980	;# 
  1240   000F8D                     LATE            equ	3981	;# 
  1241   000F92                     TRISA           equ	3986	;# 
  1242   000F92                     DDRA            equ	3986	;# 
  1243   000F93                     TRISB           equ	3987	;# 
  1244   000F93                     DDRB            equ	3987	;# 
  1245   000F94                     TRISC           equ	3988	;# 
  1246   000F94                     DDRC            equ	3988	;# 
  1247   000F95                     TRISD           equ	3989	;# 
  1248   000F95                     DDRD            equ	3989	;# 
  1249   000F96                     TRISE           equ	3990	;# 
  1250   000F96                     DDRE            equ	3990	;# 
  1251   000F9B                     OSCTUNE         equ	3995	;# 
  1252   000F9D                     PIE1            equ	3997	;# 
  1253   000F9E                     PIR1            equ	3998	;# 
  1254   000F9F                     IPR1            equ	3999	;# 
  1255   000FA0                     PIE2            equ	4000	;# 
  1256   000FA1                     PIR2            equ	4001	;# 
  1257   000FA2                     IPR2            equ	4002	;# 
  1258   000FA6                     EECON1          equ	4006	;# 
  1259   000FA7                     EECON2          equ	4007	;# 
  1260   000FA8                     EEDATA          equ	4008	;# 
  1261   000FA9                     EEADR           equ	4009	;# 
  1262   000FAB                     RCSTA           equ	4011	;# 
  1263   000FAB                     RCSTA1          equ	4011	;# 
  1264   000FAC                     TXSTA           equ	4012	;# 
  1265   000FAC                     TXSTA1          equ	4012	;# 
  1266   000FAD                     TXREG           equ	4013	;# 
  1267   000FAD                     TXREG1          equ	4013	;# 
  1268   000FAE                     RCREG           equ	4014	;# 
  1269   000FAE                     RCREG1          equ	4014	;# 
  1270   000FAF                     SPBRG           equ	4015	;# 
  1271   000FAF                     SPBRG1          equ	4015	;# 
  1272   000FB0                     SPBRGH          equ	4016	;# 
  1273   000FB1                     T3CON           equ	4017	;# 
  1274   000FB2                     TMR3            equ	4018	;# 
  1275   000FB2                     TMR3L           equ	4018	;# 
  1276   000FB3                     TMR3H           equ	4019	;# 
  1277   000FB4                     CMCON           equ	4020	;# 
  1278   000FB5                     CVRCON          equ	4021	;# 
  1279   000FB6                     ECCP1AS         equ	4022	;# 
  1280   000FB7                     ECCP1DEL        equ	4023	;# 
  1281   000FB7                     PWM1CON         equ	4023	;# 
  1282   000FB8                     BAUDCON         equ	4024	;# 
  1283   000FB8                     BAUDCTL         equ	4024	;# 
  1284   000FBA                     CCP2CON         equ	4026	;# 
  1285   000FBB                     CCPR2           equ	4027	;# 
  1286   000FBB                     CCPR2L          equ	4027	;# 
  1287   000FBC                     CCPR2H          equ	4028	;# 
  1288   000FBD                     CCP1CON         equ	4029	;# 
  1289   000FBD                     ECCP1CON        equ	4029	;# 
  1290   000FBE                     CCPR1           equ	4030	;# 
  1291   000FBE                     CCPR1L          equ	4030	;# 
  1292   000FBF                     CCPR1H          equ	4031	;# 
  1293   000FC0                     ADCON2          equ	4032	;# 
  1294   000FC1                     ADCON1          equ	4033	;# 
  1295   000FC2                     ADCON0          equ	4034	;# 
  1296   000FC3                     ADRES           equ	4035	;# 
  1297   000FC3                     ADRESL          equ	4035	;# 
  1298   000FC4                     ADRESH          equ	4036	;# 
  1299   000FC5                     SSPCON2         equ	4037	;# 
  1300   000FC6                     SSPCON1         equ	4038	;# 
  1301   000FC7                     SSPSTAT         equ	4039	;# 
  1302   000FC8                     SSPADD          equ	4040	;# 
  1303   000FC9                     SSPBUF          equ	4041	;# 
  1304   000FCA                     T2CON           equ	4042	;# 
  1305   000FCB                     PR2             equ	4043	;# 
  1306   000FCB                     MEMCON          equ	4043	;# 
  1307   000FCC                     TMR2            equ	4044	;# 
  1308   000FCD                     T1CON           equ	4045	;# 
  1309   000FCE                     TMR1            equ	4046	;# 
  1310   000FCE                     TMR1L           equ	4046	;# 
  1311   000FCF                     TMR1H           equ	4047	;# 
  1312   000FD0                     RCON            equ	4048	;# 
  1313   000FD1                     WDTCON          equ	4049	;# 
  1314   000FD2                     HLVDCON         equ	4050	;# 
  1315   000FD2                     LVDCON          equ	4050	;# 
  1316   000FD3                     OSCCON          equ	4051	;# 
  1317   000FD5                     T0CON           equ	4053	;# 
  1318   000FD6                     TMR0            equ	4054	;# 
  1319   000FD6                     TMR0L           equ	4054	;# 
  1320   000FD7                     TMR0H           equ	4055	;# 
  1321   000FD8                     STATUS          equ	4056	;# 
  1322   000FD9                     FSR2            equ	4057	;# 
  1323   000FD9                     FSR2L           equ	4057	;# 
  1324   000FDA                     FSR2H           equ	4058	;# 
  1325   000FDB                     PLUSW2          equ	4059	;# 
  1326   000FDC                     PREINC2         equ	4060	;# 
  1327   000FDD                     POSTDEC2        equ	4061	;# 
  1328   000FDE                     POSTINC2        equ	4062	;# 
  1329   000FDF                     INDF2           equ	4063	;# 
  1330   000FE0                     BSR             equ	4064	;# 
  1331   000FE1                     FSR1            equ	4065	;# 
  1332   000FE1                     FSR1L           equ	4065	;# 
  1333   000FE2                     FSR1H           equ	4066	;# 
  1334   000FE3                     PLUSW1          equ	4067	;# 
  1335   000FE4                     PREINC1         equ	4068	;# 
  1336   000FE5                     POSTDEC1        equ	4069	;# 
  1337   000FE6                     POSTINC1        equ	4070	;# 
  1338   000FE7                     INDF1           equ	4071	;# 
  1339   000FE8                     WREG            equ	4072	;# 
  1340   000FE9                     FSR0            equ	4073	;# 
  1341   000FE9                     FSR0L           equ	4073	;# 
  1342   000FEA                     FSR0H           equ	4074	;# 
  1343   000FEB                     PLUSW0          equ	4075	;# 
  1344   000FEC                     PREINC0         equ	4076	;# 
  1345   000FED                     POSTDEC0        equ	4077	;# 
  1346   000FEE                     POSTINC0        equ	4078	;# 
  1347   000FEF                     INDF0           equ	4079	;# 
  1348   000FF0                     INTCON3         equ	4080	;# 
  1349   000FF1                     INTCON2         equ	4081	;# 
  1350   000FF2                     INTCON          equ	4082	;# 
  1351   000FF3                     PROD            equ	4083	;# 
  1352   000FF3                     PRODL           equ	4083	;# 
  1353   000FF4                     PRODH           equ	4084	;# 
  1354   000FF5                     TABLAT          equ	4085	;# 
  1355   000FF6                     TBLPTR          equ	4086	;# 
  1356   000FF6                     TBLPTRL         equ	4086	;# 
  1357   000FF7                     TBLPTRH         equ	4087	;# 
  1358   000FF8                     TBLPTRU         equ	4088	;# 
  1359   000FF9                     PCLAT           equ	4089	;# 
  1360   000FF9                     PC              equ	4089	;# 
  1361   000FF9                     PCL             equ	4089	;# 
  1362   000FFA                     PCLATH          equ	4090	;# 
  1363   000FFB                     PCLATU          equ	4091	;# 
  1364   000FFC                     STKPTR          equ	4092	;# 
  1365   000FFD                     TOS             equ	4093	;# 
  1366   000FFD                     TOSL            equ	4093	;# 
  1367   000FFE                     TOSH            equ	4094	;# 
  1368   000FFF                     TOSU            equ	4095	;# 
  1369   000F80                     PORTA           equ	3968	;# 
  1370   000F81                     PORTB           equ	3969	;# 
  1371   000F82                     PORTC           equ	3970	;# 
  1372   000F83                     PORTD           equ	3971	;# 
  1373   000F84                     PORTE           equ	3972	;# 
  1374   000F89                     LATA            equ	3977	;# 
  1375   000F8A                     LATB            equ	3978	;# 
  1376   000F8B                     LATC            equ	3979	;# 
  1377   000F8C                     LATD            equ	3980	;# 
  1378   000F8D                     LATE            equ	3981	;# 
  1379   000F92                     TRISA           equ	3986	;# 
  1380   000F92                     DDRA            equ	3986	;# 
  1381   000F93                     TRISB           equ	3987	;# 
  1382   000F93                     DDRB            equ	3987	;# 
  1383   000F94                     TRISC           equ	3988	;# 
  1384   000F94                     DDRC            equ	3988	;# 
  1385   000F95                     TRISD           equ	3989	;# 
  1386   000F95                     DDRD            equ	3989	;# 
  1387   000F96                     TRISE           equ	3990	;# 
  1388   000F96                     DDRE            equ	3990	;# 
  1389   000F9B                     OSCTUNE         equ	3995	;# 
  1390   000F9D                     PIE1            equ	3997	;# 
  1391   000F9E                     PIR1            equ	3998	;# 
  1392   000F9F                     IPR1            equ	3999	;# 
  1393   000FA0                     PIE2            equ	4000	;# 
  1394   000FA1                     PIR2            equ	4001	;# 
  1395   000FA2                     IPR2            equ	4002	;# 
  1396   000FA6                     EECON1          equ	4006	;# 
  1397   000FA7                     EECON2          equ	4007	;# 
  1398   000FA8                     EEDATA          equ	4008	;# 
  1399   000FA9                     EEADR           equ	4009	;# 
  1400   000FAB                     RCSTA           equ	4011	;# 
  1401   000FAB                     RCSTA1          equ	4011	;# 
  1402   000FAC                     TXSTA           equ	4012	;# 
  1403   000FAC                     TXSTA1          equ	4012	;# 
  1404   000FAD                     TXREG           equ	4013	;# 
  1405   000FAD                     TXREG1          equ	4013	;# 
  1406   000FAE                     RCREG           equ	4014	;# 
  1407   000FAE                     RCREG1          equ	4014	;# 
  1408   000FAF                     SPBRG           equ	4015	;# 
  1409   000FAF                     SPBRG1          equ	4015	;# 
  1410   000FB0                     SPBRGH          equ	4016	;# 
  1411   000FB1                     T3CON           equ	4017	;# 
  1412   000FB2                     TMR3            equ	4018	;# 
  1413   000FB2                     TMR3L           equ	4018	;# 
  1414   000FB3                     TMR3H           equ	4019	;# 
  1415   000FB4                     CMCON           equ	4020	;# 
  1416   000FB5                     CVRCON          equ	4021	;# 
  1417   000FB6                     ECCP1AS         equ	4022	;# 
  1418   000FB7                     ECCP1DEL        equ	4023	;# 
  1419   000FB7                     PWM1CON         equ	4023	;# 
  1420   000FB8                     BAUDCON         equ	4024	;# 
  1421   000FB8                     BAUDCTL         equ	4024	;# 
  1422   000FBA                     CCP2CON         equ	4026	;# 
  1423   000FBB                     CCPR2           equ	4027	;# 
  1424   000FBB                     CCPR2L          equ	4027	;# 
  1425   000FBC                     CCPR2H          equ	4028	;# 
  1426   000FBD                     CCP1CON         equ	4029	;# 
  1427   000FBD                     ECCP1CON        equ	4029	;# 
  1428   000FBE                     CCPR1           equ	4030	;# 
  1429   000FBE                     CCPR1L          equ	4030	;# 
  1430   000FBF                     CCPR1H          equ	4031	;# 
  1431   000FC0                     ADCON2          equ	4032	;# 
  1432   000FC1                     ADCON1          equ	4033	;# 
  1433   000FC2                     ADCON0          equ	4034	;# 
  1434   000FC3                     ADRES           equ	4035	;# 
  1435   000FC3                     ADRESL          equ	4035	;# 
  1436   000FC4                     ADRESH          equ	4036	;# 
  1437   000FC5                     SSPCON2         equ	4037	;# 
  1438   000FC6                     SSPCON1         equ	4038	;# 
  1439   000FC7                     SSPSTAT         equ	4039	;# 
  1440   000FC8                     SSPADD          equ	4040	;# 
  1441   000FC9                     SSPBUF          equ	4041	;# 
  1442   000FCA                     T2CON           equ	4042	;# 
  1443   000FCB                     PR2             equ	4043	;# 
  1444   000FCB                     MEMCON          equ	4043	;# 
  1445   000FCC                     TMR2            equ	4044	;# 
  1446   000FCD                     T1CON           equ	4045	;# 
  1447   000FCE                     TMR1            equ	4046	;# 
  1448   000FCE                     TMR1L           equ	4046	;# 
  1449   000FCF                     TMR1H           equ	4047	;# 
  1450   000FD0                     RCON            equ	4048	;# 
  1451   000FD1                     WDTCON          equ	4049	;# 
  1452   000FD2                     HLVDCON         equ	4050	;# 
  1453   000FD2                     LVDCON          equ	4050	;# 
  1454   000FD3                     OSCCON          equ	4051	;# 
  1455   000FD5                     T0CON           equ	4053	;# 
  1456   000FD6                     TMR0            equ	4054	;# 
  1457   000FD6                     TMR0L           equ	4054	;# 
  1458   000FD7                     TMR0H           equ	4055	;# 
  1459   000FD8                     STATUS          equ	4056	;# 
  1460   000FD9                     FSR2            equ	4057	;# 
  1461   000FD9                     FSR2L           equ	4057	;# 
  1462   000FDA                     FSR2H           equ	4058	;# 
  1463   000FDB                     PLUSW2          equ	4059	;# 
  1464   000FDC                     PREINC2         equ	4060	;# 
  1465   000FDD                     POSTDEC2        equ	4061	;# 
  1466   000FDE                     POSTINC2        equ	4062	;# 
  1467   000FDF                     INDF2           equ	4063	;# 
  1468   000FE0                     BSR             equ	4064	;# 
  1469   000FE1                     FSR1            equ	4065	;# 
  1470   000FE1                     FSR1L           equ	4065	;# 
  1471   000FE2                     FSR1H           equ	4066	;# 
  1472   000FE3                     PLUSW1          equ	4067	;# 
  1473   000FE4                     PREINC1         equ	4068	;# 
  1474   000FE5                     POSTDEC1        equ	4069	;# 
  1475   000FE6                     POSTINC1        equ	4070	;# 
  1476   000FE7                     INDF1           equ	4071	;# 
  1477   000FE8                     WREG            equ	4072	;# 
  1478   000FE9                     FSR0            equ	4073	;# 
  1479   000FE9                     FSR0L           equ	4073	;# 
  1480   000FEA                     FSR0H           equ	4074	;# 
  1481   000FEB                     PLUSW0          equ	4075	;# 
  1482   000FEC                     PREINC0         equ	4076	;# 
  1483   000FED                     POSTDEC0        equ	4077	;# 
  1484   000FEE                     POSTINC0        equ	4078	;# 
  1485   000FEF                     INDF0           equ	4079	;# 
  1486   000FF0                     INTCON3         equ	4080	;# 
  1487   000FF1                     INTCON2         equ	4081	;# 
  1488   000FF2                     INTCON          equ	4082	;# 
  1489   000FF3                     PROD            equ	4083	;# 
  1490   000FF3                     PRODL           equ	4083	;# 
  1491   000FF4                     PRODH           equ	4084	;# 
  1492   000FF5                     TABLAT          equ	4085	;# 
  1493   000FF6                     TBLPTR          equ	4086	;# 
  1494   000FF6                     TBLPTRL         equ	4086	;# 
  1495   000FF7                     TBLPTRH         equ	4087	;# 
  1496   000FF8                     TBLPTRU         equ	4088	;# 
  1497   000FF9                     PCLAT           equ	4089	;# 
  1498   000FF9                     PC              equ	4089	;# 
  1499   000FF9                     PCL             equ	4089	;# 
  1500   000FFA                     PCLATH          equ	4090	;# 
  1501   000FFB                     PCLATU          equ	4091	;# 
  1502   000FFC                     STKPTR          equ	4092	;# 
  1503   000FFD                     TOS             equ	4093	;# 
  1504   000FFD                     TOSL            equ	4093	;# 
  1505   000FFE                     TOSH            equ	4094	;# 
  1506   000FFF                     TOSU            equ	4095	;# 
  1507                           
  1508                           	psect	idataCOMRAM
  1509   000A54                     __pidataCOMRAM:
  1510                           	callstack 0
  1511                           
  1512                           ;initializer for init@indice
  1513   000A54  01                 	db	1
  1514                           
  1515                           ;initializer for _estado@TAD_HEARTBEAT$F828
  1516   000A55  01                 	db	1
  1517                           
  1518                           ;initializer for _lastDirY
  1519   000A56  FF                 	db	255
  1520                           
  1521                           ;initializer for _lastDirX
  1522   000A57  FF                 	db	255
  1523                           
  1524                           	psect	mediumconst
  1525   001EEE                     __pmediumconst:
  1526                           	callstack 0
  1527   001EEE  00                 	db	0
  1528   001EEF  72                 	db	low _comando0
  1529   001EF0  1F                 	db	high _comando0
  1530   001EF1  58                 	db	low _comando1
  1531   001EF2  1F                 	db	high _comando1
  1532   001EF3  B4                 	db	low _comando2
  1533   001EF4  1F                 	db	high _comando2
  1534   001EF5  C2                 	db	low _comando3
  1535   001EF6  1F                 	db	high _comando3
  1536   001EF7  39                 	db	low _comando4
  1537   001EF8  1F                 	db	high _comando4
  1538   001EF9  49                 	db	low _comando5
  1539   001EFA  1F                 	db	high _comando5
  1540   001EFB  BC                 	db	low _comando6
  1541   001EFC  1F                 	db	high _comando6
  1542   001EFD  96                 	db	low _comando7
  1543   001EFE  1F                 	db	high _comando7
  1544   001EFF                     __end_of_comandos:
  1545                           	callstack 0
  1546   001EFF                     _frases:
  1547                           	callstack 0
  1548   001EFF  A1                 	db	low _frase0
  1549   001F00  1F                 	db	high _frase0
  1550   001F01  8A                 	db	low _frase1
  1551   001F02  1F                 	db	high _frase1
  1552   001F03  7E                 	db	low _frase2
  1553   001F04  1F                 	db	high _frase2
  1554   001F05  65                 	db	low _frase3
  1555   001F06  1F                 	db	high _frase3
  1556   001F07  AB                 	db	low _frase4
  1557   001F08  1F                 	db	high _frase4
  1558   001F09  26                 	db	low _frase5
  1559   001F0A  1F                 	db	high _frase5
  1560   001F0B  11                 	db	low _frase6
  1561   001F0C  1F                 	db	high _frase6
  1562   001F0D                     __end_of_frases:
  1563                           	callstack 0
  1564   001F0D                     _string:
  1565                           	callstack 0
  1566   001F0D  E6                 	db	low STR_1
  1567   001F0E  1F                 	db	high STR_1
  1568   001F0F  C8                 	db	low STR_2
  1569   001F10  1F                 	db	high STR_2
  1570   001F11                     __end_of_string:
  1571                           	callstack 0
  1572   001F11                     _frase6:
  1573                           	callstack 0
  1574   001F11  53                 	db	83
  1575   001F12  4C                 	db	76
  1576   001F13  45                 	db	69
  1577   001F14  45                 	db	69
  1578   001F15  50                 	db	80
  1579   001F16  5F                 	db	95
  1580   001F17  55                 	db	85
  1581   001F18  4E                 	db	78
  1582   001F19  53                 	db	83
  1583   001F1A  55                 	db	85
  1584   001F1B  43                 	db	67
  1585   001F1C  43                 	db	67
  1586   001F1D  45                 	db	69
  1587   001F1E  53                 	db	83
  1588   001F1F  53                 	db	83
  1589   001F20  46                 	db	70
  1590   001F21  55                 	db	85
  1591   001F22  4C                 	db	76
  1592   001F23  0D                 	db	13
  1593   001F24  0A                 	db	10
  1594   001F25  00                 	db	0
  1595   001F26                     __end_of_frase6:
  1596                           	callstack 0
  1597   001F26                     _frase5:
  1598                           	callstack 0
  1599   001F26  53                 	db	83
  1600   001F27  4C                 	db	76
  1601   001F28  45                 	db	69
  1602   001F29  45                 	db	69
  1603   001F2A  50                 	db	80
  1604   001F2B  5F                 	db	95
  1605   001F2C  53                 	db	83
  1606   001F2D  55                 	db	85
  1607   001F2E  43                 	db	67
  1608   001F2F  43                 	db	67
  1609   001F30  45                 	db	69
  1610   001F31  53                 	db	83
  1611   001F32  53                 	db	83
  1612   001F33  46                 	db	70
  1613   001F34  55                 	db	85
  1614   001F35  4C                 	db	76
  1615   001F36  0D                 	db	13
  1616   001F37  0A                 	db	10
  1617   001F38  00                 	db	0
  1618   001F39                     __end_of_frase5:
  1619                           	callstack 0
  1620   001F39                     _comando4:
  1621   001F39  53                 	db	83
  1622   001F3A  54                 	db	84
  1623   001F3B  41                 	db	65
  1624   001F3C  52                 	db	82
  1625   001F3D  54                 	db	84
  1626   001F3E  5F                 	db	95
  1627   001F3F  52                 	db	82
  1628   001F40  45                 	db	69
  1629   001F41  42                 	db	66
  1630   001F42  45                 	db	69
  1631   001F43  4C                 	db	76
  1632   001F44  4C                 	db	76
  1633   001F45  49                 	db	73
  1634   001F46  4F                 	db	79
  1635   001F47  4E                 	db	78
  1636   001F48  00                 	db	0
  1637   001F49                     __end_of_comando4:
  1638                           	callstack 0
  1639   001F49                     _comando5:
  1640   001F49  53                 	db	83
  1641   001F4A  54                 	db	84
  1642   001F4B  4F                 	db	79
  1643   001F4C  50                 	db	80
  1644   001F4D  5F                 	db	95
  1645   001F4E  52                 	db	82
  1646   001F4F  45                 	db	69
  1647   001F50  42                 	db	66
  1648   001F51  45                 	db	69
  1649   001F52  4C                 	db	76
  1650   001F53  4C                 	db	76
  1651   001F54  49                 	db	73
  1652   001F55  4F                 	db	79
  1653   001F56  4E                 	db	78
  1654   001F57  00                 	db	0
  1655   001F58                     __end_of_comando5:
  1656                           	callstack 0
  1657   001F58                     _comando1:
  1658   001F58  47                 	db	71
  1659   001F59  45                 	db	69
  1660   001F5A  54                 	db	84
  1661   001F5B  5F                 	db	95
  1662   001F5C  50                 	db	80
  1663   001F5D  52                 	db	82
  1664   001F5E  4F                 	db	79
  1665   001F5F  44                 	db	68
  1666   001F60  55                 	db	85
  1667   001F61  43                 	db	67
  1668   001F62  54                 	db	84
  1669   001F63  53                 	db	83
  1670   001F64  00                 	db	0
  1671   001F65                     __end_of_comando1:
  1672                           	callstack 0
  1673   001F65                     _frase3:
  1674                           	callstack 0
  1675   001F65  4D                 	db	77
  1676   001F66  4F                 	db	79
  1677   001F67  56                 	db	86
  1678   001F68  45                 	db	69
  1679   001F69  5F                 	db	95
  1680   001F6A  52                 	db	82
  1681   001F6B  49                 	db	73
  1682   001F6C  47                 	db	71
  1683   001F6D  48                 	db	72
  1684   001F6E  54                 	db	84
  1685   001F6F  0D                 	db	13
  1686   001F70  0A                 	db	10
  1687   001F71  00                 	db	0
  1688   001F72                     __end_of_frase3:
  1689                           	callstack 0
  1690   001F72                     _comando0:
  1691   001F72  47                 	db	71
  1692   001F73  45                 	db	69
  1693   001F74  54                 	db	84
  1694   001F75  5F                 	db	95
  1695   001F76  41                 	db	65
  1696   001F77  4E                 	db	78
  1697   001F78  49                 	db	73
  1698   001F79  4D                 	db	77
  1699   001F7A  41                 	db	65
  1700   001F7B  4C                 	db	76
  1701   001F7C  53                 	db	83
  1702   001F7D  00                 	db	0
  1703   001F7E                     __end_of_comando0:
  1704                           	callstack 0
  1705   001F7E                     _frase2:
  1706                           	callstack 0
  1707   001F7E  4D                 	db	77
  1708   001F7F  4F                 	db	79
  1709   001F80  56                 	db	86
  1710   001F81  45                 	db	69
  1711   001F82  5F                 	db	95
  1712   001F83  4C                 	db	76
  1713   001F84  45                 	db	69
  1714   001F85  46                 	db	70
  1715   001F86  54                 	db	84
  1716   001F87  0D                 	db	13
  1717   001F88  0A                 	db	10
  1718   001F89  00                 	db	0
  1719   001F8A                     __end_of_frase2:
  1720                           	callstack 0
  1721   001F8A                     _frase1:
  1722                           	callstack 0
  1723   001F8A  4D                 	db	77
  1724   001F8B  4F                 	db	79
  1725   001F8C  56                 	db	86
  1726   001F8D  45                 	db	69
  1727   001F8E  5F                 	db	95
  1728   001F8F  44                 	db	68
  1729   001F90  4F                 	db	79
  1730   001F91  57                 	db	87
  1731   001F92  4E                 	db	78
  1732   001F93  0D                 	db	13
  1733   001F94  0A                 	db	10
  1734   001F95  00                 	db	0
  1735   001F96                     __end_of_frase1:
  1736                           	callstack 0
  1737   001F96                     _comando7:
  1738   001F96  49                 	db	73
  1739   001F97  4E                 	db	78
  1740   001F98  49                 	db	73
  1741   001F99  54                 	db	84
  1742   001F9A  49                 	db	73
  1743   001F9B  41                 	db	65
  1744   001F9C  4C                 	db	76
  1745   001F9D  49                 	db	73
  1746   001F9E  5A                 	db	90
  1747   001F9F  45                 	db	69
  1748   001FA0  00                 	db	0
  1749   001FA1                     __end_of_comando7:
  1750                           	callstack 0
  1751   001FA1                     _frase0:
  1752                           	callstack 0
  1753   001FA1  4D                 	db	77
  1754   001FA2  4F                 	db	79
  1755   001FA3  56                 	db	86
  1756   001FA4  45                 	db	69
  1757   001FA5  5F                 	db	95
  1758   001FA6  55                 	db	85
  1759   001FA7  50                 	db	80
  1760   001FA8  0D                 	db	13
  1761   001FA9  0A                 	db	10
  1762   001FAA  00                 	db	0
  1763   001FAB                     __end_of_frase0:
  1764                           	callstack 0
  1765   001FAB                     _frase4:
  1766                           	callstack 0
  1767   001FAB  53                 	db	83
  1768   001FAC  45                 	db	69
  1769   001FAD  4C                 	db	76
  1770   001FAE  45                 	db	69
  1771   001FAF  43                 	db	67
  1772   001FB0  54                 	db	84
  1773   001FB1  0D                 	db	13
  1774   001FB2  0A                 	db	10
  1775   001FB3  00                 	db	0
  1776   001FB4                     __end_of_frase4:
  1777                           	callstack 0
  1778   001FB4                     _comando2:
  1779   001FB4  43                 	db	67
  1780   001FB5  4F                 	db	79
  1781   001FB6  4E                 	db	78
  1782   001FB7  53                 	db	83
  1783   001FB8  55                 	db	85
  1784   001FB9  4D                 	db	77
  1785   001FBA  45                 	db	69
  1786   001FBB  00                 	db	0
  1787   001FBC                     __end_of_comando2:
  1788                           	callstack 0
  1789   001FBC                     _comando6:
  1790   001FBC  53                 	db	83
  1791   001FBD  4C                 	db	76
  1792   001FBE  45                 	db	69
  1793   001FBF  45                 	db	69
  1794   001FC0  50                 	db	80
  1795   001FC1  00                 	db	0
  1796   001FC2                     __end_of_comando6:
  1797                           	callstack 0
  1798   001FC2                     _comando3:
  1799   001FC2  52                 	db	82
  1800   001FC3  45                 	db	69
  1801   001FC4  53                 	db	83
  1802   001FC5  45                 	db	69
  1803   001FC6  54                 	db	84
  1804   001FC7  00                 	db	0
  1805   001FC8                     __end_of_comando3:
  1806                           	callstack 0
  1807   007F92                     _TMR0IF         set	32658
  1808   000FD6                     _TMR0           set	4054
  1809   000FA6                     _EECON1bits     set	4006
  1810   000FF2                     _INTCONbits     set	4082
  1811   000FD5                     _T0CON          set	4053
  1812   000FAE                     _RCREG          set	4014
  1813   000FAD                     _TXREG          set	4013
  1814   000F9E                     _PIR1bits       set	3998
  1815   000FB0                     _SPBRGH         set	4016
  1816   000FAF                     _SPBRG          set	4015
  1817   000FAB                     _RCSTAbits      set	4011
  1818   000FAC                     _TXSTAbits      set	4012
  1819   000F81                     _PORTBbits      set	3969
  1820   000FC3                     _ADRESL         set	4035
  1821   000FC4                     _ADRESH         set	4036
  1822   000FC2                     _ADCON0bits     set	4034
  1823   000F89                     _LATAbits       set	3977
  1824   000F92                     _TRISAbits      set	3986
  1825   000FC0                     _ADCON2         set	4032
  1826   000FC1                     _ADCON1         set	4033
  1827   000FC2                     _ADCON0         set	4034
  1828   000FF1                     _INTCON2bits    set	4081
  1829   000F93                     _TRISBbits      set	3987
  1830   001FC8                     STR_2:
  1831   001FC8  50                 	db	80	;'P'
  1832   001FC9  6C                 	db	108	;'l'
  1833   001FCA  65                 	db	101	;'e'
  1834   001FCB  61                 	db	97	;'a'
  1835   001FCC  73                 	db	115	;'s'
  1836   001FCD  65                 	db	101	;'e'
  1837   001FCE  20                 	db	32
  1838   001FCF  69                 	db	105	;'i'
  1839   001FD0  6E                 	db	110	;'n'
  1840   001FD1  70                 	db	112	;'p'
  1841   001FD2  75                 	db	117	;'u'
  1842   001FD3  74                 	db	116	;'t'
  1843   001FD4  20                 	db	32
  1844   001FD5  61                 	db	97	;'a'
  1845   001FD6  20                 	db	32
  1846   001FD7  63                 	db	99	;'c'
  1847   001FD8  6F                 	db	111	;'o'
  1848   001FD9  72                 	db	114	;'r'
  1849   001FDA  72                 	db	114	;'r'
  1850   001FDB  65                 	db	101	;'e'
  1851   001FDC  63                 	db	99	;'c'
  1852   001FDD  74                 	db	116	;'t'
  1853   001FDE  20                 	db	32
  1854   001FDF  64                 	db	100	;'d'
  1855   001FE0  61                 	db	97	;'a'
  1856   001FE1  74                 	db	116	;'t'
  1857   001FE2  65                 	db	101	;'e'
  1858   001FE3  0D                 	db	13
  1859   001FE4  0A                 	db	10
  1860   001FE5  00                 	db	0
  1861   001FE6                     STR_1:
  1862   001FE6  44                 	db	68	;'D'
  1863   001FE7  61                 	db	97	;'a'
  1864   001FE8  74                 	db	116	;'t'
  1865   001FE9  65                 	db	101	;'e'
  1866   001FEA  20                 	db	32
  1867   001FEB  61                 	db	97	;'a'
  1868   001FEC  6E                 	db	110	;'n'
  1869   001FED  64                 	db	100	;'d'
  1870   001FEE  20                 	db	32
  1871   001FEF  74                 	db	116	;'t'
  1872   001FF0  69                 	db	105	;'i'
  1873   001FF1  6D                 	db	109	;'m'
  1874   001FF2  65                 	db	101	;'e'
  1875   001FF3  20                 	db	32
  1876   001FF4  63                 	db	99	;'c'
  1877   001FF5  6F                 	db	111	;'o'
  1878   001FF6  72                 	db	114	;'r'
  1879   001FF7  72                 	db	114	;'r'
  1880   001FF8  65                 	db	101	;'e'
  1881   001FF9  63                 	db	99	;'c'
  1882   001FFA  74                 	db	116	;'t'
  1883   001FFB  0D                 	db	13
  1884   001FFC  0A                 	db	10
  1885   001FFD  00                 	db	0
  1886   001FFE  00                 	db	0	; dummy byte at the end
  1887   001EEE                     __smallconst    set	__pmediumconst
  1888   001EEE                     __mediumconst   set	__pmediumconst
  1889   000002                     __activetblptr  equ	2
  1890                           
  1891                           ; #config settings
  1892                           
  1893                           	psect	cinit
  1894   000800                     __pcinit:
  1895                           	callstack 0
  1896   000800                     start_initialization:
  1897                           	callstack 0
  1898   000800                     __initialization:
  1899                           	callstack 0
  1900                           
  1901                           ; Initialize objects allocated to COMRAM (4 bytes)
  1902                           ; load TBLPTR registers with __pidataCOMRAM
  1903   000800  0E54               	movlw	low __pidataCOMRAM
  1904   000802  6EF6               	movwf	tblptrl,c
  1905   000804  0E0A               	movlw	high __pidataCOMRAM
  1906   000806  6EF7               	movwf	tblptrh,c
  1907   000808  0E00               	movlw	low (__pidataCOMRAM shr (0+16))
  1908   00080A  6EF8               	movwf	tblptru,c
  1909   00080C  EE00  F078         	lfsr	0,__pdataCOMRAM
  1910   000810  EE10 F004          	lfsr	1,4
  1911   000814                     copy_data0:
  1912   000814  0009               	tblrd		*+
  1913   000816  CFF5 FFEE          	movff	tablat,postinc0
  1914   00081A  50E5               	movf	postdec1,w,c
  1915   00081C  50E1               	movf	fsr1l,w,c
  1916   00081E  E1FA               	bnz	copy_data0
  1917                           
  1918                           ; Clear objects allocated to BANK0 (55 bytes)
  1919   000820  EE00  F080         	lfsr	0,__pbssBANK0
  1920   000824  0E37               	movlw	55
  1921   000826                     clear_0:
  1922   000826  6AEE               	clrf	postinc0,c
  1923   000828  06E8               	decf	wreg,f,c
  1924   00082A  E1FD               	bnz	clear_0
  1925                           
  1926                           ; Clear objects allocated to COMRAM (102 bytes)
  1927   00082C  EE00  F001         	lfsr	0,__pbssCOMRAM
  1928   000830  0E66               	movlw	102
  1929   000832                     clear_1:
  1930   000832  6AEE               	clrf	postinc0,c
  1931   000834  06E8               	decf	wreg,f,c
  1932   000836  E1FD               	bnz	clear_1
  1933   000838                     end_of_initialization:
  1934                           	callstack 0
  1935   000838                     __end_of__initialization:
  1936                           	callstack 0
  1937   000838  907C               	bcf	int$flags,0,c	;clear compiler interrupt flag (level 1)
  1938   00083A  927C               	bcf	int$flags,1,c	;clear compiler interrupt flag (level 2)
  1939   00083C  0E00               	movlw	low (__Lmediumconst shr (0+16))
  1940   00083E  6EF8               	movwf	tblptru,c
  1941   000840  0100               	movlb	0
  1942   000842  EF41  F004         	goto	_main	;jump to C main() function
  1943                           
  1944                           	psect	bssCOMRAM
  1945   000001                     __pbssCOMRAM:
  1946                           	callstack 0
  1947   000001                     _Tics:
  1948                           	callstack 0
  1949   000001                     	ds	4
  1950   000005                     	ds	2
  1951   000007                     _pTxFrase:
  1952                           	callstack 0
  1953   000007                     	ds	2
  1954   000009                     _valorY:
  1955                           	callstack 0
  1956   000009                     	ds	2
  1957   00000B                     _valorX:
  1958                           	callstack 0
  1959   00000B                     	ds	2
  1960   00000D                     _valueLDR:
  1961                           	callstack 0
  1962   00000D                     	ds	2
  1963   00000F                     _valueY:
  1964                           	callstack 0
  1965   00000F                     	ds	2
  1966   000011                     _valueX:
  1967                           	callstack 0
  1968   000011                     	ds	2
  1969   000013                     	ds	1
  1970   000014                     _estado@TAD_CMD$F1019:
  1971                           	callstack 0
  1972   000014                     	ds	1
  1973   000015                     STIME_Motor@charPendiente:
  1974                           	callstack 0
  1975   000015                     	ds	1
  1976   000016                     STIME_Motor@estado:
  1977                           	callstack 0
  1978   000016                     	ds	1
  1979   000017                     getCharTime@byteTemporal:
  1980                           	callstack 0
  1981   000017                     	ds	1
  1982   000018                     getCharTime@estado_rx:
  1983                           	callstack 0
  1984   000018                     	ds	1
  1985   000019                     getCharTime@bitIdx_rx:
  1986                           	callstack 0
  1987   000019                     	ds	1
  1988   00001A                     putCharEcho@sending:
  1989                           	callstack 0
  1990   00001A                     	ds	1
  1991   00001B                     putCharEcho@charToSend:
  1992                           	callstack 0
  1993   00001B                     	ds	1
  1994   00001C                     putCharEcho@estado_tx:
  1995                           	callstack 0
  1996   00001C                     	ds	1
  1997   00001D                     putCharEcho@bitIdx:
  1998                           	callstack 0
  1999   00001D                     	ds	1
  2000   00001E                     putCharTime@estado_tx:
  2001                           	callstack 0
  2002   00001E                     	ds	1
  2003   00001F                     putCharTime@bitIdx:
  2004                           	callstack 0
  2005   00001F                     	ds	1
  2006   000020                     _ptxChar:
  2007                           	callstack 0
  2008   000020                     	ds	1
  2009   000021                     _parseSec:
  2010                           	callstack 0
  2011   000021                     	ds	1
  2012   000022                     _parseMin:
  2013                           	callstack 0
  2014   000022                     	ds	1
  2015   000023                     _parseHour:
  2016                           	callstack 0
  2017   000023                     	ds	1
  2018   000024                     _parseMonth:
  2019                           	callstack 0
  2020   000024                     	ds	1
  2021   000025                     _parseDay:
  2022                           	callstack 0
  2023   000025                     	ds	1
  2024   000026                     _dateReady:
  2025                           	callstack 0
  2026   000026                     	ds	1
  2027   000027                     _rxIdx:
  2028                           	callstack 0
  2029   000027                     	ds	1
  2030   000028                     _flag:
  2031                           	callstack 0
  2032   000028                     	ds	1
  2033   000029                     _dutyCycle:
  2034                           	callstack 0
  2035   000029                     	ds	1
  2036   00002A                     	ds	1
  2037   00002B                     	ds	1
  2038   00002C                     _sleepRecived:
  2039                           	callstack 0
  2040   00002C                     	ds	1
  2041   00002D                     _indice:
  2042                           	callstack 0
  2043   00002D                     	ds	1
  2044   00002E                     _estado:
  2045                           	callstack 0
  2046   00002E                     	ds	1
  2047   00002F                     DSP_Motor@i:
  2048                           	callstack 0
  2049   00002F                     	ds	1
  2050   000030                     DSP_Motor@estado:
  2051                           	callstack 0
  2052   000030                     	ds	1
  2053   000031                     _flagRebotes:
  2054                           	callstack 0
  2055   000031                     	ds	1
  2056   000032                     _dataReadyLDR:
  2057                           	callstack 0
  2058   000032                     	ds	1
  2059   000033                     _dataReady:
  2060                           	callstack 0
  2061   000033                     	ds	1
  2062   000034                     _estat:
  2063                           	callstack 0
  2064   000034                     	ds	1
  2065   000035                     _comando:
  2066                           	callstack 0
  2067   000035                     	ds	30
  2068   000053                     _rxBuf:
  2069                           	callstack 0
  2070   000053                     	ds	15
  2071   000062                     _t_siot_rx:
  2072                           	callstack 0
  2073   000062                     	ds	1
  2074   000063                     _t_siot:
  2075                           	callstack 0
  2076   000063                     	ds	1
  2077   000064                     _timerDutyCycle:
  2078                           	callstack 0
  2079   000064                     	ds	1
  2080   000065                     _timerLDR:
  2081                           	callstack 0
  2082   000065                     	ds	1
  2083   000066                     _timerRebotes:
  2084                           	callstack 0
  2085   000066                     	ds	1
  2086                           
  2087                           	psect	dataCOMRAM
  2088   000078                     __pdataCOMRAM:
  2089                           	callstack 0
  2090   000078                     	ds	1
  2091   000079                     _estado@TAD_HEARTBEAT$F828:
  2092                           	callstack 0
  2093   000079                     	ds	1
  2094   00007A                     _lastDirY:
  2095                           	callstack 0
  2096   00007A                     	ds	1
  2097   00007B                     _lastDirX:
  2098                           	callstack 0
  2099   00007B                     	ds	1
  2100                           
  2101                           	psect	bssBANK0
  2102   000080                     __pbssBANK0:
  2103                           	callstack 0
  2104   000080                     	ds	30
  2105   00009E                     _Timers:
  2106                           	callstack 0
  2107   00009E                     	ds	25
  2108                           
  2109                           	psect	cstackCOMRAM
  2110   000067                     __pcstackCOMRAM:
  2111                           	callstack 0
  2112   000067                     ?_ADC_GetX:
  2113                           	callstack 0
  2114   000067                     ?_ADC_GetY:
  2115                           	callstack 0
  2116   000067                     ?_TI_GetTics:
  2117                           	callstack 0
  2118   000067                     SERIAL_PutString@s:
  2119                           	callstack 0
  2120   000067                     SERIAL_ReadByte@b:
  2121                           	callstack 0
  2122   000067                     guardarCharArr@aux:
  2123                           	callstack 0
  2124   000067                     TI_Init@counter:
  2125                           	callstack 0
  2126   000067                     TI_NewTimer@TimerHandle:
  2127                           	callstack 0
  2128   000067                     TI_ResetTics@TimerHandle:
  2129                           	callstack 0
  2130   000067                     validarData@buf:
  2131                           	callstack 0
  2132   000067                     CMD_setCmd@aux:
  2133                           	callstack 0
  2134   000067                     ??_ADC_Motor:
  2135   000067                     
  2136                           ; 1 bytes @ 0x0
  2137   000067                     	ds	1
  2138   000068                     CMD_setCmd@e:
  2139                           	callstack 0
  2140   000068                     
  2141                           ; 1 bytes @ 0x1
  2142   000068                     	ds	1
  2143   000069                     SERIAL_Motor@c:
  2144                           	callstack 0
  2145   000069                     TI_NewTimer@Comptador:
  2146                           	callstack 0
  2147   000069                     
  2148                           ; 1 bytes @ 0x2
  2149   000069                     	ds	1
  2150   00006A                     SERIAL_Motor@aux:
  2151                           	callstack 0
  2152   00006A                     
  2153                           ; 1 bytes @ 0x3
  2154   00006A                     	ds	1
  2155   00006B                     ??_TI_GetTics:
  2156                           
  2157                           ; 1 bytes @ 0x4
  2158   00006B                     	ds	4
  2159   00006F                     TI_GetTics@CopiaTicsActual:
  2160                           	callstack 0
  2161                           
  2162                           ; 4 bytes @ 0x8
  2163   00006F                     	ds	4
  2164   000073                     TI_GetTics@TimerHandle:
  2165                           	callstack 0
  2166                           
  2167                           ; 1 bytes @ 0xC
  2168   000073                     	ds	1
  2169   000074                     getCharTime@c:
  2170                           	callstack 0
  2171   000074                     ??_DSP_Motor:
  2172   000074                     ??_HEARTBEAT_Motor:
  2173   000074                     ??_putCharTime:
  2174   000074                     ??_putCharEcho:
  2175                           
  2176                           ; 1 bytes @ 0xD
  2177   000074                     	ds	1
  2178   000075                     ??_getCharTime:
  2179                           
  2180                           ; 1 bytes @ 0xE
  2181   000075                     	ds	1
  2182   000076                     putCharTime@currChar:
  2183                           	callstack 0
  2184   000076                     putCharEcho@c:
  2185                           	callstack 0
  2186                           
  2187                           ; 1 bytes @ 0xF
  2188   000076                     	ds	1
  2189   000077                     STIME_Motor@c:
  2190                           	callstack 0
  2191   000077                     
  2192                           ; 1 bytes @ 0x10
  2193   000077                     	ds	1
  2194   000078                     
  2195                           ; 1 bytes @ 0x11
  2196 ;;
  2197 ;;Main: autosize = 0, tempsize = 0, incstack = 0, save=0
  2198 ;;
  2199 ;; *************** function _main *****************
  2200 ;; Defined at:
  2201 ;;		line 43 in file "main.c"
  2202 ;; Parameters:    Size  Location     Type
  2203 ;;		None
  2204 ;; Auto vars:     Size  Location     Type
  2205 ;;		None
  2206 ;; Return value:  Size  Location     Type
  2207 ;;                  1    wreg      void 
  2208 ;; Registers used:
  2209 ;;		wreg, fsr2l, fsr2h, status,2, status,0, tblptrl, tblptrh, tblptru, prodl, prodh, cstack
  2210 ;; Tracked objects:
  2211 ;;		On entry : 0/0
  2212 ;;		On exit  : 0/0
  2213 ;;		Unchanged: 0/0
  2214 ;; Data sizes:     COMRAM   BANK0   BANK1
  2215 ;;      Params:         0       0       0
  2216 ;;      Locals:         0       0       0
  2217 ;;      Temps:          0       0       0
  2218 ;;      Totals:         0       0       0
  2219 ;;Total ram usage:        0 bytes
  2220 ;; Hardware stack levels required when called: 5
  2221 ;; This function calls:
  2222 ;;		_ADC_Init
  2223 ;;		_ADC_Motor
  2224 ;;		_DSP_Init
  2225 ;;		_DSP_Motor
  2226 ;;		_HEARTBEAT_Motor
  2227 ;;		_HREATBEAT_Init
  2228 ;;		_LDR_Init
  2229 ;;		_SERIAL_Init
  2230 ;;		_SERIAL_Motor
  2231 ;;		_STIME_Init
  2232 ;;		_STIME_Motor
  2233 ;;		_TI_Init
  2234 ;;		_initPorts
  2235 ;; This function is called by:
  2236 ;;		Startup code after reset
  2237 ;; This function uses a non-reentrant model
  2238 ;;
  2239                           
  2240                           	psect	text0
  2241   000882                     __ptext0:
  2242                           	callstack 0
  2243   000882                     _main:
  2244                           	callstack 26
  2245                           
  2246                           ;incstack = 0
  2247   000882  ECA5  F004         	call	_initPorts	;wreg free
  2248   000886  EC5C  F004         	call	_TI_Init	;wreg free
  2249   00088A  ECE8  F004         	call	_ADC_Init	;wreg free
  2250   00088E  ECCF  F004         	call	_DSP_Init	;wreg free
  2251   000892  ECC1  F004         	call	_SERIAL_Init	;wreg free
  2252   000896  EC0F  F005         	call	_LDR_Init	;wreg free
  2253   00089A  EC14  F005         	call	_HREATBEAT_Init	;wreg free
  2254   00089E  ECF2  F004         	call	_STIME_Init	;wreg free
  2255   0008A2                     l2458:
  2256   0008A2  ECF6  F002         	call	_ADC_Motor	;wreg free
  2257   0008A6  EC0C  F000         	call	_DSP_Motor	;wreg free
  2258   0008AA  ECC2  F000         	call	_SERIAL_Motor	;wreg free
  2259   0008AE  EC97  F003         	call	_HEARTBEAT_Motor	;wreg free
  2260   0008B2  ECA0  F002         	call	_STIME_Motor	;wreg free
  2261   0008B6  D7F5               	goto	l2458
  2262   0008B8                     __end_of_main:
  2263                           	callstack 0
  2264                           
  2265 ;; *************** function _initPorts *****************
  2266 ;; Defined at:
  2267 ;;		line 29 in file "main.c"
  2268 ;; Parameters:    Size  Location     Type
  2269 ;;		None
  2270 ;; Auto vars:     Size  Location     Type
  2271 ;;		None
  2272 ;; Return value:  Size  Location     Type
  2273 ;;                  1    wreg      void 
  2274 ;; Registers used:
  2275 ;;		wreg, status,2
  2276 ;; Tracked objects:
  2277 ;;		On entry : 0/0
  2278 ;;		On exit  : 0/0
  2279 ;;		Unchanged: 0/0
  2280 ;; Data sizes:     COMRAM   BANK0   BANK1
  2281 ;;      Params:         0       0       0
  2282 ;;      Locals:         0       0       0
  2283 ;;      Temps:          0       0       0
  2284 ;;      Totals:         0       0       0
  2285 ;;Total ram usage:        0 bytes
  2286 ;; Hardware stack levels used: 1
  2287 ;; Hardware stack levels required when called: 2
  2288 ;; This function calls:
  2289 ;;		Nothing
  2290 ;; This function is called by:
  2291 ;;		_main
  2292 ;; This function uses a non-reentrant model
  2293 ;;
  2294                           
  2295                           	psect	text1
  2296   00094A                     __ptext1:
  2297                           	callstack 0
  2298   00094A                     _initPorts:
  2299                           	callstack 28
  2300                           
  2301                           ;main.c: 30:     HREATBEAT_Init();
  2302                           
  2303                           ;incstack = 0
  2304   00094A  8493               	bsf	147,2,c	;volatile
  2305                           
  2306                           ;main.c: 31:     STIME_Init();
  2307   00094C  9EF1               	bcf	241,7,c	;volatile
  2308                           
  2309                           ;main.c: 32: 
  2310   00094E  0E01               	movlw	1
  2311   000950  6EC2               	movwf	194,c	;volatile
  2312                           
  2313                           ;main.c: 33: 
  2314   000952  0E0C               	movlw	12
  2315   000954  6EC1               	movwf	193,c	;volatile
  2316                           
  2317                           ;main.c: 34:     while(1){
  2318   000956  0E80               	movlw	128
  2319   000958  6EC0               	movwf	192,c	;volatile
  2320                           
  2321                           ;main.c: 35:         ADC_Motor();
  2322   00095A  9692               	bcf	146,3,c	;volatile
  2323                           
  2324                           ;main.c: 36:         DSP_Motor();
  2325   00095C  9689               	bcf	137,3,c	;volatile
  2326                           
  2327                           ;main.c: 38:         HEARTBEAT_Motor();
  2328   00095E  8693               	bsf	147,3,c	;volatile
  2329                           
  2330                           ;main.c: 39:         STIME_Motor();
  2331   000960  9892               	bcf	146,4,c	;volatile
  2332                           
  2333                           ;main.c: 40:     }
  2334   000962  9889               	bcf	137,4,c	;volatile
  2335   000964  0012               	return		;funcret
  2336   000966                     __end_of_initPorts:
  2337                           	callstack 0
  2338                           
  2339 ;; *************** function _TI_Init *****************
  2340 ;; Defined at:
  2341 ;;		line 24 in file "TAD_TIMER.c"
  2342 ;; Parameters:    Size  Location     Type
  2343 ;;		None
  2344 ;; Auto vars:     Size  Location     Type
  2345 ;;  counter         1    0[COMRAM] unsigned char 
  2346 ;; Return value:  Size  Location     Type
  2347 ;;                  1    wreg      void 
  2348 ;; Registers used:
  2349 ;;		wreg, fsr2l, fsr2h, status,2, status,0, prodl, prodh
  2350 ;; Tracked objects:
  2351 ;;		On entry : 0/0
  2352 ;;		On exit  : 0/0
  2353 ;;		Unchanged: 0/0
  2354 ;; Data sizes:     COMRAM   BANK0   BANK1
  2355 ;;      Params:         0       0       0
  2356 ;;      Locals:         1       0       0
  2357 ;;      Temps:          0       0       0
  2358 ;;      Totals:         1       0       0
  2359 ;;Total ram usage:        1 bytes
  2360 ;; Hardware stack levels used: 1
  2361 ;; Hardware stack levels required when called: 2
  2362 ;; This function calls:
  2363 ;;		Nothing
  2364 ;; This function is called by:
  2365 ;;		_main
  2366 ;; This function uses a non-reentrant model
  2367 ;;
  2368                           
  2369                           	psect	text2
  2370   0008B8                     __ptext2:
  2371                           	callstack 0
  2372   0008B8                     _TI_Init:
  2373                           	callstack 28
  2374                           
  2375                           ;TAD_TIMER.c: 25:  for (unsigned char counter=0; counter<5; counter++) {
  2376                           
  2377                           ;incstack = 0
  2378   0008B8  6A67               	clrf	TI_Init@counter^0,c
  2379   0008BA                     l2166:
  2380                           
  2381                           ;TAD_TIMER.c: 26:   Timers[counter].Busy=0;
  2382   0008BA  5067               	movf	TI_Init@counter^0,w,c
  2383   0008BC  0D05               	mullw	5
  2384   0008BE  50F3               	movf	243,w,c
  2385   0008C0  0FA2               	addlw	low (_Timers+4)
  2386   0008C2  6ED9               	movwf	fsr2l,c
  2387   0008C4  6ADA               	clrf	fsr2h,c
  2388   0008C6  6ADF               	clrf	indf2,c
  2389                           
  2390                           ;TAD_TIMER.c: 27:  }
  2391   0008C8  2A67               	incf	TI_Init@counter^0,f,c
  2392   0008CA  0E04               	movlw	4
  2393   0008CC  6467               	cpfsgt	TI_Init@counter^0,c
  2394   0008CE  D7F5               	goto	l2166
  2395                           
  2396                           ;TAD_TIMER.c: 28:  T0CON=0x82;
  2397   0008D0  0E82               	movlw	130
  2398   0008D2  6ED5               	movwf	213,c	;volatile
  2399                           
  2400                           ;TAD_TIMER.c: 29:     TMR0=65224;
  2401   0008D4  0EFE               	movlw	254
  2402   0008D6  6ED7               	movwf	215,c	;volatile
  2403   0008D8  0EC8               	movlw	200
  2404   0008DA  6ED6               	movwf	214,c	;volatile
  2405                           
  2406                           ;TAD_TIMER.c: 30:  INTCONbits.TMR0IF = 0;
  2407   0008DC  94F2               	bcf	242,2,c	;volatile
  2408                           
  2409                           ;TAD_TIMER.c: 31:  INTCONbits.TMR0IE = 1;
  2410   0008DE  8AF2               	bsf	242,5,c	;volatile
  2411   0008E0  0012               	return		;funcret
  2412   0008E2                     __end_of_TI_Init:
  2413                           	callstack 0
  2414                           
  2415 ;; *************** function _STIME_Motor *****************
  2416 ;; Defined at:
  2417 ;;		line 179 in file "TAD_SERIAL_TIME.c"
  2418 ;; Parameters:    Size  Location     Type
  2419 ;;		None
  2420 ;; Auto vars:     Size  Location     Type
  2421 ;;  c               1   16[COMRAM] unsigned char 
  2422 ;; Return value:  Size  Location     Type
  2423 ;;                  1    wreg      void 
  2424 ;; Registers used:
  2425 ;;		wreg, fsr2l, fsr2h, status,2, status,0, tblptrl, tblptrh, tblptru, prodl, prodh, cstack
  2426 ;; Tracked objects:
  2427 ;;		On entry : 0/0
  2428 ;;		On exit  : 0/0
  2429 ;;		Unchanged: 0/0
  2430 ;; Data sizes:     COMRAM   BANK0   BANK1
  2431 ;;      Params:         0       0       0
  2432 ;;      Locals:         1       0       0
  2433 ;;      Temps:          0       0       0
  2434 ;;      Totals:         1       0       0
  2435 ;;Total ram usage:        1 bytes
  2436 ;; Hardware stack levels used: 1
  2437 ;; Hardware stack levels required when called: 4
  2438 ;; This function calls:
  2439 ;;		_TI_ResetTics
  2440 ;;		_getCharTime
  2441 ;;		_putCharEcho
  2442 ;;		_putCharTime
  2443 ;;		_validarData
  2444 ;; This function is called by:
  2445 ;;		_main
  2446 ;; This function uses a non-reentrant model
  2447 ;;
  2448                           
  2449                           	psect	text3
  2450   000540                     __ptext3:
  2451                           	callstack 0
  2452   000540                     _STIME_Motor:
  2453                           	callstack 26
  2454                           
  2455                           ;TAD_SERIAL_TIME.c: 180:    static unsigned char estado = 0;;TAD_SERIAL_TIME.c: 181:    
      +                          unsigned char c;;TAD_SERIAL_TIME.c: 182:    static unsigned char charPendiente;;TAD_SERI
      +                          AL_TIME.c: 184:    switch (estado){
  2456                           
  2457                           ;incstack = 0
  2458   000540  D047               	goto	l2442
  2459   000542                     l2394:
  2460                           
  2461                           ;TAD_SERIAL_TIME.c: 186:            if (getCharTime(&c)) {
  2462   000542  0E77               	movlw	low STIME_Motor@c
  2463   000544  6E74               	movwf	getCharTime@c^0,c
  2464   000546  EC6F  F001         	call	_getCharTime	;wreg free
  2465   00054A  0900               	iorlw	0
  2466   00054C  B4D8               	btfsc	status,2,c
  2467   00054E  0012               	return	
  2468                           
  2469                           ;TAD_SERIAL_TIME.c: 187:              if (c == '\r'){
  2470   000550  0E0D               	movlw	13
  2471   000552  1877               	xorwf	STIME_Motor@c^0,w,c
  2472   000554  A4D8               	btfss	status,2,c
  2473   000556  D008               	goto	l2404
  2474                           
  2475                           ;TAD_SERIAL_TIME.c: 188:                 rxBuf[rxIdx] = '\0';
  2476   000558  5027               	movf	_rxIdx^0,w,c
  2477   00055A  0F53               	addlw	low _rxBuf
  2478   00055C  6ED9               	movwf	fsr2l,c
  2479   00055E  6ADA               	clrf	fsr2h,c
  2480   000560  6ADF               	clrf	indf2,c
  2481   000562                     l2400:
  2482                           
  2483                           ;TAD_SERIAL_TIME.c: 189:                 rxIdx = 0;
  2484   000562  6A27               	clrf	_rxIdx^0,c
  2485                           
  2486                           ;TAD_SERIAL_TIME.c: 190:                 estado++;
  2487   000564  2A16               	incf	STIME_Motor@estado^0,f,c
  2488                           
  2489                           ;TAD_SERIAL_TIME.c: 191:              } else if (rxIdx <= 13) {
  2490   000566  0012               	return	
  2491   000568                     l2404:
  2492   000568  0E0E               	movlw	14
  2493   00056A  6027               	cpfslt	_rxIdx^0,c
  2494   00056C  D7FA               	goto	l2400
  2495                           
  2496                           ;TAD_SERIAL_TIME.c: 192:                 charPendiente = c;
  2497   00056E  C077  F015         	movff	STIME_Motor@c,STIME_Motor@charPendiente
  2498                           
  2499                           ;TAD_SERIAL_TIME.c: 193:                 estado = 3;
  2500   000572  0E03               	movlw	3
  2501   000574  6E16               	movwf	STIME_Motor@estado^0,c
  2502                           
  2503                           ;TAD_SERIAL_TIME.c: 194:                 TI_ResetTics(t_siot);
  2504   000576  5063               	movf	_t_siot^0,w,c
  2505   000578  EC71  F004         	call	_TI_ResetTics
  2506                           
  2507                           ;TAD_SERIAL_TIME.c: 195:              } else {
  2508   00057C  0012               	return	
  2509   00057E                     l2414:
  2510                           
  2511                           ;TAD_SERIAL_TIME.c: 203:             if (validarData(rxBuf)) {
  2512   00057E  0E53               	movlw	low _rxBuf
  2513   000580  6E67               	movwf	validarData@buf^0,c
  2514   000582  ECE1  F001         	call	_validarData	;wreg free
  2515   000586  0900               	iorlw	0
  2516   000588  B4D8               	btfsc	status,2,c
  2517   00058A  D002               	goto	l2418
  2518                           
  2519                           ;TAD_SERIAL_TIME.c: 204:                 dateReady = 0;
  2520   00058C  6A26               	clrf	_dateReady^0,c
  2521                           
  2522                           ;TAD_SERIAL_TIME.c: 205:             } else {
  2523   00058E  D002               	goto	l2420
  2524   000590                     l2418:
  2525                           
  2526                           ;TAD_SERIAL_TIME.c: 206:                 dateReady = 1;
  2527   000590  0E01               	movlw	1
  2528   000592  6E26               	movwf	_dateReady^0,c
  2529   000594                     l2420:
  2530                           
  2531                           ;TAD_SERIAL_TIME.c: 208:            estado++;
  2532   000594  2A16               	incf	STIME_Motor@estado^0,f,c
  2533                           
  2534                           ;TAD_SERIAL_TIME.c: 209:            ptxChar = 0;
  2535   000596  6A20               	clrf	_ptxChar^0,c
  2536                           
  2537                           ;TAD_SERIAL_TIME.c: 210:            TI_ResetTics(t_siot);
  2538   000598  5063               	movf	_t_siot^0,w,c
  2539   00059A  EC71  F004         	call	_TI_ResetTics
  2540                           
  2541                           ;TAD_SERIAL_TIME.c: 211:            break;
  2542   00059E  0012               	return	
  2543   0005A0                     l2426:
  2544                           
  2545                           ;TAD_SERIAL_TIME.c: 213:            if (putCharTime()) {
  2546   0005A0  EC41  F002         	call	_putCharTime	;wreg free
  2547   0005A4  0900               	iorlw	0
  2548   0005A6  B4D8               	btfsc	status,2,c
  2549   0005A8  D002               	goto	l2430
  2550   0005AA                     u1690:
  2551                           
  2552                           ;TAD_SERIAL_TIME.c: 214:                 estado = 0;
  2553   0005AA  6A16               	clrf	STIME_Motor@estado^0,c
  2554                           
  2555                           ;TAD_SERIAL_TIME.c: 215:            } else {
  2556   0005AC  0012               	return	
  2557   0005AE                     l2430:
  2558                           
  2559                           ;TAD_SERIAL_TIME.c: 216:                 estado = 2;
  2560   0005AE  0E02               	movlw	2
  2561   0005B0  6E16               	movwf	STIME_Motor@estado^0,c
  2562   0005B2  0012               	return	
  2563   0005B4                     l2432:
  2564                           
  2565                           ;TAD_SERIAL_TIME.c: 220:             if (putCharEcho(charPendiente)) {
  2566   0005B4  5015               	movf	STIME_Motor@charPendiente^0,w,c
  2567   0005B6  EC4B  F003         	call	_putCharEcho
  2568   0005BA  0900               	iorlw	0
  2569   0005BC  B4D8               	btfsc	status,2,c
  2570   0005BE  0012               	return	
  2571                           
  2572                           ;TAD_SERIAL_TIME.c: 221:                 rxBuf[rxIdx] = charPendiente;
  2573   0005C0  5027               	movf	_rxIdx^0,w,c
  2574   0005C2  0F53               	addlw	low _rxBuf
  2575   0005C4  6ED9               	movwf	fsr2l,c
  2576   0005C6  6ADA               	clrf	fsr2h,c
  2577   0005C8  C015  FFDF         	movff	STIME_Motor@charPendiente,indf2
  2578                           
  2579                           ;TAD_SERIAL_TIME.c: 222:                 rxIdx++;
  2580   0005CC  2A27               	incf	_rxIdx^0,f,c
  2581   0005CE  D7ED               	goto	u1690
  2582   0005D0                     l2442:
  2583   0005D0  5016               	movf	STIME_Motor@estado^0,w,c
  2584                           
  2585                           ; Switch size 1, requested type "simple"
  2586                           ; Number of cases is 4, Range of values is 0 to 3
  2587                           ; switch strategies available:
  2588                           ; Name         Instructions Cycles
  2589                           ; simple_byte           13     7 (average)
  2590                           ;	Chosen strategy is simple_byte
  2591   0005D2  0A00               	xorlw	0	; case 0
  2592   0005D4  B4D8               	btfsc	status,2,c
  2593   0005D6  D7B5               	goto	l2394
  2594   0005D8  0A01               	xorlw	1	; case 1
  2595   0005DA  B4D8               	btfsc	status,2,c
  2596   0005DC  D7D0               	goto	l2414
  2597   0005DE  0A03               	xorlw	3	; case 2
  2598   0005E0  B4D8               	btfsc	status,2,c
  2599   0005E2  D7DE               	goto	l2426
  2600   0005E4  0A01               	xorlw	1	; case 3
  2601   0005E6  A4D8               	btfss	status,2,c
  2602   0005E8  0012               	return	
  2603   0005EA  D7E4               	goto	l2432
  2604   0005EC                     __end_of_STIME_Motor:
  2605                           	callstack 0
  2606                           
  2607 ;; *************** function _validarData *****************
  2608 ;; Defined at:
  2609 ;;		line 21 in file "TAD_SERIAL_TIME.c"
  2610 ;; Parameters:    Size  Location     Type
  2611 ;;  buf             1    0[COMRAM] PTR unsigned char 
  2612 ;;		 -> rxBuf(15), 
  2613 ;; Auto vars:     Size  Location     Type
  2614 ;;		None
  2615 ;; Return value:  Size  Location     Type
  2616 ;;                  1    wreg      unsigned char 
  2617 ;; Registers used:
  2618 ;;		wreg, fsr2l, fsr2h, status,2, status,0, prodl, prodh
  2619 ;; Tracked objects:
  2620 ;;		On entry : 0/0
  2621 ;;		On exit  : 0/0
  2622 ;;		Unchanged: 0/0
  2623 ;; Data sizes:     COMRAM   BANK0   BANK1
  2624 ;;      Params:         1       0       0
  2625 ;;      Locals:         0       0       0
  2626 ;;      Temps:          1       0       0
  2627 ;;      Totals:         2       0       0
  2628 ;;Total ram usage:        2 bytes
  2629 ;; Hardware stack levels used: 1
  2630 ;; Hardware stack levels required when called: 2
  2631 ;; This function calls:
  2632 ;;		Nothing
  2633 ;; This function is called by:
  2634 ;;		_STIME_Motor
  2635 ;; This function uses a non-reentrant model
  2636 ;;
  2637                           
  2638                           	psect	text4
  2639   0003C2                     __ptext4:
  2640                           	callstack 0
  2641   0003C2                     _validarData:
  2642                           	callstack 27
  2643                           
  2644                           ;TAD_SERIAL_TIME.c: 23:    if (buf[2] != '/' || buf[5] != ' ' || buf[8] != ':' || buf[11
      +                          ] != ':') return 0;
  2645                           
  2646                           ;incstack = 0
  2647   0003C2  5067               	movf	validarData@buf^0,w,c
  2648   0003C4  6ED9               	movwf	fsr2l,c
  2649   0003C6  6ADA               	clrf	fsr2h,c
  2650   0003C8  0E02               	movlw	2
  2651   0003CA  26D9               	addwf	fsr2l,f,c
  2652   0003CC  0E2F               	movlw	47
  2653   0003CE  18DE               	xorwf	postinc2,w,c
  2654   0003D0  A4D8               	btfss	status,2,c
  2655   0003D2  D01B               	goto	u990
  2656   0003D4  5067               	movf	validarData@buf^0,w,c
  2657   0003D6  6ED9               	movwf	fsr2l,c
  2658   0003D8  6ADA               	clrf	fsr2h,c
  2659   0003DA  0E05               	movlw	5
  2660   0003DC  26D9               	addwf	fsr2l,f,c
  2661   0003DE  0E20               	movlw	32
  2662   0003E0  18DE               	xorwf	postinc2,w,c
  2663   0003E2  A4D8               	btfss	status,2,c
  2664   0003E4  D012               	goto	u990
  2665   0003E6  5067               	movf	validarData@buf^0,w,c
  2666   0003E8  6ED9               	movwf	fsr2l,c
  2667   0003EA  6ADA               	clrf	fsr2h,c
  2668   0003EC  0E08               	movlw	8
  2669   0003EE  26D9               	addwf	fsr2l,f,c
  2670   0003F0  0E3A               	movlw	58
  2671   0003F2  18DE               	xorwf	postinc2,w,c
  2672   0003F4  A4D8               	btfss	status,2,c
  2673   0003F6  D009               	goto	u990
  2674   0003F8  5067               	movf	validarData@buf^0,w,c
  2675   0003FA  6ED9               	movwf	fsr2l,c
  2676   0003FC  6ADA               	clrf	fsr2h,c
  2677   0003FE  0E0B               	movlw	11
  2678   000400  26D9               	addwf	fsr2l,f,c
  2679   000402  0E3A               	movlw	58
  2680   000404  18DE               	xorwf	postinc2,w,c
  2681   000406  B4D8               	btfsc	status,2,c
  2682   000408  D002               	goto	l1990
  2683   00040A                     u990:
  2684   00040A  0E00               	movlw	0
  2685   00040C  0012               	return	
  2686   00040E                     l1990:
  2687                           
  2688                           ;TAD_SERIAL_TIME.c: 25:       parseDay = (rxBuf[0] - '0') * 10 + (rxBuf[1] - '0');
  2689   00040E  5053               	movf	_rxBuf^0,w,c
  2690   000410  0D0A               	mullw	10
  2691   000412  50F3               	movf	243,w,c
  2692   000414  2454               	addwf	(_rxBuf+1)^0,w,c
  2693   000416  0FF0               	addlw	240
  2694   000418  6E25               	movwf	_parseDay^0,c
  2695                           
  2696                           ;TAD_SERIAL_TIME.c: 26:       parseMonth = (rxBuf[3] - '0') * 10 + (rxBuf[4] - '0');
  2697   00041A  5056               	movf	(_rxBuf+3)^0,w,c
  2698   00041C  0D0A               	mullw	10
  2699   00041E  50F3               	movf	243,w,c
  2700   000420  2457               	addwf	(_rxBuf+4)^0,w,c
  2701   000422  0FF0               	addlw	240
  2702   000424  6E24               	movwf	_parseMonth^0,c
  2703                           
  2704                           ;TAD_SERIAL_TIME.c: 27:       parseHour = (rxBuf[6] - '0') * 10 + (rxBuf[7] - '0');
  2705   000426  5059               	movf	(_rxBuf+6)^0,w,c
  2706   000428  0D0A               	mullw	10
  2707   00042A  50F3               	movf	243,w,c
  2708   00042C  245A               	addwf	(_rxBuf+7)^0,w,c
  2709   00042E  0FF0               	addlw	240
  2710   000430  6E23               	movwf	_parseHour^0,c
  2711                           
  2712                           ;TAD_SERIAL_TIME.c: 28:       parseMin = (rxBuf[9] - '0') * 10 + (rxBuf[10] - '0');
  2713   000432  505C               	movf	(_rxBuf+9)^0,w,c
  2714   000434  0D0A               	mullw	10
  2715   000436  50F3               	movf	243,w,c
  2716   000438  245D               	addwf	(_rxBuf+10)^0,w,c
  2717   00043A  0FF0               	addlw	240
  2718   00043C  6E22               	movwf	_parseMin^0,c
  2719                           
  2720                           ;TAD_SERIAL_TIME.c: 29:       parseSec = (rxBuf[12] - '0') * 10 + (rxBuf[13] - '0');
  2721   00043E  505F               	movf	(_rxBuf+12)^0,w,c
  2722   000440  0D0A               	mullw	10
  2723   000442  50F3               	movf	243,w,c
  2724   000444  2460               	addwf	(_rxBuf+13)^0,w,c
  2725   000446  0FF0               	addlw	240
  2726   000448  6E21               	movwf	_parseSec^0,c
  2727                           
  2728                           ;TAD_SERIAL_TIME.c: 31:       if (parseDay < 1 || parseDay > 31) return 0;
  2729   00044A  5025               	movf	_parseDay^0,w,c
  2730   00044C  B4D8               	btfsc	status,2,c
  2731   00044E  D7DD               	goto	u990
  2732   000450  0E1F               	movlw	31
  2733   000452  6425               	cpfsgt	_parseDay^0,c
  2734   000454  D001               	goto	l2000
  2735   000456  D7D9               	goto	u990
  2736   000458                     l2000:
  2737                           
  2738                           ;TAD_SERIAL_TIME.c: 32:       if (parseMonth < 1 || parseMonth > 12) return 0;
  2739   000458  5024               	movf	_parseMonth^0,w,c
  2740   00045A  B4D8               	btfsc	status,2,c
  2741   00045C  D7D6               	goto	u990
  2742   00045E  0E0C               	movlw	12
  2743   000460  6424               	cpfsgt	_parseMonth^0,c
  2744   000462  D001               	goto	l2008
  2745   000464  D7D2               	goto	u990
  2746   000466                     l2008:
  2747                           
  2748                           ;TAD_SERIAL_TIME.c: 33:       if (parseHour > 23) return 0;
  2749   000466  0E17               	movlw	23
  2750   000468  6423               	cpfsgt	_parseHour^0,c
  2751   00046A  D001               	goto	l2014
  2752   00046C  D7CE               	goto	u990
  2753   00046E                     l2014:
  2754                           
  2755                           ;TAD_SERIAL_TIME.c: 34:       if (parseMin > 59) return 0;
  2756   00046E  0E3B               	movlw	59
  2757   000470  6422               	cpfsgt	_parseMin^0,c
  2758   000472  D001               	goto	l2020
  2759   000474  D7CA               	goto	u990
  2760   000476                     l2020:
  2761                           
  2762                           ;TAD_SERIAL_TIME.c: 35:       if (parseSec > 59) return 0;
  2763   000476  0E3B               	movlw	59
  2764   000478  6421               	cpfsgt	_parseSec^0,c
  2765   00047A  D001               	goto	l2026
  2766   00047C  D7C6               	goto	u990
  2767   00047E                     l2026:
  2768                           
  2769                           ;TAD_SERIAL_TIME.c: 36:       return 1;
  2770   00047E  0E01               	movlw	1
  2771   000480  0012               	return		;funcret
  2772   000482                     __end_of_validarData:
  2773                           	callstack 0
  2774                           
  2775 ;; *************** function _putCharTime *****************
  2776 ;; Defined at:
  2777 ;;		line 39 in file "TAD_SERIAL_TIME.c"
  2778 ;; Parameters:    Size  Location     Type
  2779 ;;		None
  2780 ;; Auto vars:     Size  Location     Type
  2781 ;;  currChar        1   15[COMRAM] unsigned char 
  2782 ;; Return value:  Size  Location     Type
  2783 ;;                  1    wreg      unsigned char 
  2784 ;; Registers used:
  2785 ;;		wreg, fsr2l, fsr2h, status,2, status,0, tblptrl, tblptrh, tblptru, prodl, prodh, cstack
  2786 ;; Tracked objects:
  2787 ;;		On entry : 0/0
  2788 ;;		On exit  : 0/0
  2789 ;;		Unchanged: 0/0
  2790 ;; Data sizes:     COMRAM   BANK0   BANK1
  2791 ;;      Params:         0       0       0
  2792 ;;      Locals:         1       0       0
  2793 ;;      Temps:          2       0       0
  2794 ;;      Totals:         3       0       0
  2795 ;;Total ram usage:        3 bytes
  2796 ;; Hardware stack levels used: 1
  2797 ;; Hardware stack levels required when called: 3
  2798 ;; This function calls:
  2799 ;;		_TI_GetTics
  2800 ;;		_TI_ResetTics
  2801 ;; This function is called by:
  2802 ;;		_STIME_Motor
  2803 ;; This function uses a non-reentrant model
  2804 ;;
  2805                           
  2806                           	psect	text5
  2807   000482                     __ptext5:
  2808                           	callstack 0
  2809   000482                     _putCharTime:
  2810                           	callstack 26
  2811                           
  2812                           ;TAD_SERIAL_TIME.c: 40:    static unsigned char bitIdx = 0;;TAD_SERIAL_TIME.c: 41:    st
      +                          atic unsigned char estado_tx = 0;;TAD_SERIAL_TIME.c: 43:    if (TI_GetTics(t_siot) >= 2)
      +                           {
  2813                           
  2814                           ;incstack = 0
  2815   000482  5063               	movf	_t_siot^0,w,c
  2816   000484  ECDA  F003         	call	_TI_GetTics
  2817   000488  506A               	movf	(?_TI_GetTics+3)^0,w,c
  2818   00048A  1069               	iorwf	(?_TI_GetTics+2)^0,w,c
  2819   00048C  1068               	iorwf	(?_TI_GetTics+1)^0,w,c
  2820   00048E  E104               	bnz	u1070
  2821   000490  0E02               	movlw	2
  2822   000492  5C67               	subwf	?_TI_GetTics^0,w,c
  2823   000494  A0D8               	btfss	status,0,c
  2824   000496  D052               	goto	l2062
  2825   000498                     u1070:
  2826                           
  2827                           ;TAD_SERIAL_TIME.c: 44:       unsigned char currChar = string[dateReady][ptxChar];
  2828   000498  5026               	movf	_dateReady^0,w,c
  2829   00049A  0D02               	mullw	2
  2830   00049C  0E0D               	movlw	low _string
  2831   00049E  24F3               	addwf	243,w,c
  2832   0004A0  6EF6               	movwf	tblptrl,c
  2833   0004A2  0E1F               	movlw	high _string
  2834   0004A4  20F4               	addwfc	244,w,c
  2835   0004A6  6EF7               	movwf	tblptrh,c
  2836   0004A8                     	if	0	;There are less than 3 active tblptr bytes
  2837   0004A8                     	endif
  2838   0004A8  0009               	tblrd		*+
  2839   0004AA  CFF5 F074          	movff	tablat,??_putCharTime
  2840   0004AE  0009               	tblrd		*+
  2841   0004B0  CFF5 F075          	movff	tablat,??_putCharTime+1
  2842   0004B4  5020               	movf	_ptxChar^0,w,c
  2843   0004B6  0D01               	mullw	1
  2844   0004B8  50F3               	movf	243,w,c
  2845   0004BA  2674               	addwf	??_putCharTime^0,f,c
  2846   0004BC  0E00               	movlw	0
  2847   0004BE  2275               	addwfc	(??_putCharTime+1)^0,f,c
  2848   0004C0  C074  FFF6         	movff	??_putCharTime,tblptrl
  2849   0004C4  C075  FFF7         	movff	??_putCharTime+1,tblptrh
  2850   0004C8                     	if	0	;tblptru may be non-zero
  2851   0004C8                     	endif
  2852   0004C8                     	if	0	;tblptru may be non-zero
  2853   0004C8                     	endif
  2854   0004C8  0008               	tblrd		*
  2855   0004CA  CFF5 F076          	movff	tablat,putCharTime@currChar
  2856                           
  2857                           ;TAD_SERIAL_TIME.c: 46:       if (currChar == '\0') {
  2858   0004CE  5076               	movf	putCharTime@currChar^0,w,c
  2859   0004D0  A4D8               	btfss	status,2,c
  2860   0004D2  D027               	goto	l2058
  2861                           
  2862                           ;TAD_SERIAL_TIME.c: 47:          ptxChar = 0;
  2863   0004D4  6A20               	clrf	_ptxChar^0,c
  2864                           
  2865                           ;TAD_SERIAL_TIME.c: 48:          bitIdx = 0;
  2866   0004D6  6A1F               	clrf	putCharTime@bitIdx^0,c
  2867                           
  2868                           ;TAD_SERIAL_TIME.c: 49:          estado_tx = 0;
  2869   0004D8  6A1E               	clrf	putCharTime@estado_tx^0,c
  2870                           
  2871                           ;TAD_SERIAL_TIME.c: 50:          return 1;
  2872   0004DA  0E01               	movlw	1
  2873   0004DC  0012               	return	
  2874   0004DE                     l502:
  2875                           
  2876                           ;TAD_SERIAL_TIME.c: 55:             LATAbits.LATA4 = 0;
  2877   0004DE  9889               	bcf	137,4,c	;volatile
  2878                           
  2879                           ;TAD_SERIAL_TIME.c: 56:             estado_tx = 1;
  2880   0004E0  0E01               	movlw	1
  2881   0004E2  6E1E               	movwf	putCharTime@estado_tx^0,c
  2882                           
  2883                           ;TAD_SERIAL_TIME.c: 57:             bitIdx = 0;
  2884   0004E4  6A1F               	clrf	putCharTime@bitIdx^0,c
  2885                           
  2886                           ;TAD_SERIAL_TIME.c: 58:             break;
  2887   0004E6  D027               	goto	l2060
  2888   0004E8                     l2046:
  2889                           
  2890                           ;TAD_SERIAL_TIME.c: 61:             LATAbits.LATA4 = (currChar >> bitIdx) & 0x01;
  2891   0004E8  C01F  F074         	movff	putCharTime@bitIdx,??_putCharTime
  2892   0004EC  C076  F075         	movff	putCharTime@currChar,??_putCharTime+1
  2893   0004F0  2A74               	incf	??_putCharTime^0,f,c
  2894   0004F2  D002               	goto	u1094
  2895   0004F4                     u1095:
  2896   0004F4  90D8               	bcf	status,0,c
  2897   0004F6  3275               	rrcf	(??_putCharTime+1)^0,f,c
  2898   0004F8                     u1094:
  2899   0004F8  2E74               	decfsz	??_putCharTime^0,f,c
  2900   0004FA  D7FC               	goto	u1095
  2901   0004FC  0E01               	movlw	1
  2902   0004FE  1675               	andwf	(??_putCharTime+1)^0,f,c
  2903   000500  3A75               	swapf	(??_putCharTime+1)^0,f,c
  2904   000502  5089               	movf	137,w,c	;volatile
  2905   000504  1875               	xorwf	(??_putCharTime+1)^0,w,c
  2906   000506  0BEF               	andlw	-17
  2907   000508  1875               	xorwf	(??_putCharTime+1)^0,w,c
  2908   00050A  6E89               	movwf	137,c	;volatile
  2909                           
  2910                           ;TAD_SERIAL_TIME.c: 62:             bitIdx++;
  2911   00050C  2A1F               	incf	putCharTime@bitIdx^0,f,c
  2912                           
  2913                           ;TAD_SERIAL_TIME.c: 63:             if (bitIdx >= 8) {
  2914   00050E  0E07               	movlw	7
  2915   000510  641F               	cpfsgt	putCharTime@bitIdx^0,c
  2916   000512  D011               	goto	l2060
  2917                           
  2918                           ;TAD_SERIAL_TIME.c: 64:                estado_tx = 2;
  2919   000514  0E02               	movlw	2
  2920   000516  6E1E               	movwf	putCharTime@estado_tx^0,c
  2921   000518  D00E               	goto	l2060
  2922   00051A                     l506:
  2923                           
  2924                           ;TAD_SERIAL_TIME.c: 69:             LATAbits.LATA4 = 1;
  2925   00051A  8889               	bsf	137,4,c	;volatile
  2926                           
  2927                           ;TAD_SERIAL_TIME.c: 70:             estado_tx = 0;
  2928   00051C  6A1E               	clrf	putCharTime@estado_tx^0,c
  2929                           
  2930                           ;TAD_SERIAL_TIME.c: 71:             ptxChar++;
  2931   00051E  2A20               	incf	_ptxChar^0,f,c
  2932                           
  2933                           ;TAD_SERIAL_TIME.c: 72:             break;
  2934   000520  D00A               	goto	l2060
  2935   000522                     l2058:
  2936   000522  501E               	movf	putCharTime@estado_tx^0,w,c
  2937                           
  2938                           ; Switch size 1, requested type "simple"
  2939                           ; Number of cases is 3, Range of values is 0 to 2
  2940                           ; switch strategies available:
  2941                           ; Name         Instructions Cycles
  2942                           ; simple_byte           10     6 (average)
  2943                           ;	Chosen strategy is simple_byte
  2944   000524  0A00               	xorlw	0	; case 0
  2945   000526  B4D8               	btfsc	status,2,c
  2946   000528  D7DA               	goto	l502
  2947   00052A  0A01               	xorlw	1	; case 1
  2948   00052C  B4D8               	btfsc	status,2,c
  2949   00052E  D7DC               	goto	l2046
  2950   000530  0A03               	xorlw	3	; case 2
  2951   000532  B4D8               	btfsc	status,2,c
  2952   000534  D7F2               	goto	l506
  2953   000536                     l2060:
  2954                           
  2955                           ;TAD_SERIAL_TIME.c: 75:       TI_ResetTics(t_siot);
  2956   000536  5063               	movf	_t_siot^0,w,c
  2957   000538  EC71  F004         	call	_TI_ResetTics
  2958   00053C                     l2062:
  2959                           
  2960                           ;TAD_SERIAL_TIME.c: 77:    return 0;
  2961   00053C  0E00               	movlw	0
  2962   00053E  0012               	return		;funcret
  2963   000540                     __end_of_putCharTime:
  2964                           	callstack 0
  2965                           
  2966 ;; *************** function _putCharEcho *****************
  2967 ;; Defined at:
  2968 ;;		line 80 in file "TAD_SERIAL_TIME.c"
  2969 ;; Parameters:    Size  Location     Type
  2970 ;;  c               1    wreg     unsigned char 
  2971 ;; Auto vars:     Size  Location     Type
  2972 ;;  c               1   15[COMRAM] unsigned char 
  2973 ;; Return value:  Size  Location     Type
  2974 ;;                  1    wreg      unsigned char 
  2975 ;; Registers used:
  2976 ;;		wreg, fsr2l, fsr2h, status,2, status,0, prodl, prodh, cstack
  2977 ;; Tracked objects:
  2978 ;;		On entry : 0/0
  2979 ;;		On exit  : 0/0
  2980 ;;		Unchanged: 0/0
  2981 ;; Data sizes:     COMRAM   BANK0   BANK1
  2982 ;;      Params:         0       0       0
  2983 ;;      Locals:         1       0       0
  2984 ;;      Temps:          2       0       0
  2985 ;;      Totals:         3       0       0
  2986 ;;Total ram usage:        3 bytes
  2987 ;; Hardware stack levels used: 1
  2988 ;; Hardware stack levels required when called: 3
  2989 ;; This function calls:
  2990 ;;		_TI_GetTics
  2991 ;;		_TI_ResetTics
  2992 ;; This function is called by:
  2993 ;;		_STIME_Motor
  2994 ;; This function uses a non-reentrant model
  2995 ;;
  2996                           
  2997                           	psect	text6
  2998   000696                     __ptext6:
  2999                           	callstack 0
  3000   000696                     _putCharEcho:
  3001                           	callstack 26
  3002                           
  3003                           ;incstack = 0
  3004                           ;putCharEcho@c stored from wreg
  3005   000696  6E76               	movwf	putCharEcho@c^0,c
  3006                           
  3007                           ;TAD_SERIAL_TIME.c: 81:     static unsigned char bitIdx = 0;;TAD_SERIAL_TIME.c: 82:     
      +                          static unsigned char estado_tx = 0;;TAD_SERIAL_TIME.c: 83:     static unsigned char char
      +                          ToSend = 0;;TAD_SERIAL_TIME.c: 84:     static unsigned char sending = 0;;TAD_SERIAL_TIME
      +                          .c: 86:     if (!sending) {
  3008   000698  501A               	movf	putCharEcho@sending^0,w,c
  3009   00069A  A4D8               	btfss	status,2,c
  3010   00069C  D007               	goto	l2074
  3011                           
  3012                           ;TAD_SERIAL_TIME.c: 87:         charToSend = c;
  3013   00069E  C076  F01B         	movff	putCharEcho@c,putCharEcho@charToSend
  3014                           
  3015                           ;TAD_SERIAL_TIME.c: 88:         sending = 1;
  3016   0006A2  0E01               	movlw	1
  3017   0006A4  6E1A               	movwf	putCharEcho@sending^0,c
  3018                           
  3019                           ;TAD_SERIAL_TIME.c: 89:         TI_ResetTics(t_siot);
  3020   0006A6  5063               	movf	_t_siot^0,w,c
  3021   0006A8  EC71  F004         	call	_TI_ResetTics
  3022   0006AC                     l2074:
  3023                           
  3024                           ;TAD_SERIAL_TIME.c: 92:     if (TI_GetTics(t_siot) >= 2) {
  3025   0006AC  5063               	movf	_t_siot^0,w,c
  3026   0006AE  ECDA  F003         	call	_TI_GetTics
  3027   0006B2  506A               	movf	(?_TI_GetTics+3)^0,w,c
  3028   0006B4  1069               	iorwf	(?_TI_GetTics+2)^0,w,c
  3029   0006B6  1068               	iorwf	(?_TI_GetTics+1)^0,w,c
  3030   0006B8  E12B               	bnz	l2098
  3031   0006BA  0E02               	movlw	2
  3032   0006BC  5C67               	subwf	?_TI_GetTics^0,w,c
  3033   0006BE  B0D8               	btfsc	status,0,c
  3034   0006C0  D027               	goto	l2098
  3035   0006C2  D033               	goto	l2102
  3036   0006C4                     l520:
  3037                           
  3038                           ;TAD_SERIAL_TIME.c: 95:                 LATAbits.LATA4 = 0;
  3039   0006C4  9889               	bcf	137,4,c	;volatile
  3040                           
  3041                           ;TAD_SERIAL_TIME.c: 96:                 estado_tx = 1;
  3042   0006C6  0E01               	movlw	1
  3043   0006C8  6E1C               	movwf	putCharEcho@estado_tx^0,c
  3044                           
  3045                           ;TAD_SERIAL_TIME.c: 97:                 bitIdx = 0;
  3046   0006CA  6A1D               	clrf	putCharEcho@bitIdx^0,c
  3047                           
  3048                           ;TAD_SERIAL_TIME.c: 98:                 break;
  3049   0006CC  D02B               	goto	l2100
  3050   0006CE                     l2082:
  3051                           
  3052                           ;TAD_SERIAL_TIME.c: 101:                 LATAbits.LATA4 = (charToSend >> bitIdx) & 0x01;
  3053   0006CE  C01D  F074         	movff	putCharEcho@bitIdx,??_putCharEcho
  3054   0006D2  C01B  F075         	movff	putCharEcho@charToSend,??_putCharEcho+1
  3055   0006D6  2A74               	incf	??_putCharEcho^0,f,c
  3056   0006D8  D002               	goto	u1134
  3057   0006DA                     u1135:
  3058   0006DA  90D8               	bcf	status,0,c
  3059   0006DC  3275               	rrcf	(??_putCharEcho+1)^0,f,c
  3060   0006DE                     u1134:
  3061   0006DE  2E74               	decfsz	??_putCharEcho^0,f,c
  3062   0006E0  D7FC               	goto	u1135
  3063   0006E2  0E01               	movlw	1
  3064   0006E4  1675               	andwf	(??_putCharEcho+1)^0,f,c
  3065   0006E6  3A75               	swapf	(??_putCharEcho+1)^0,f,c
  3066   0006E8  5089               	movf	137,w,c	;volatile
  3067   0006EA  1875               	xorwf	(??_putCharEcho+1)^0,w,c
  3068   0006EC  0BEF               	andlw	-17
  3069   0006EE  1875               	xorwf	(??_putCharEcho+1)^0,w,c
  3070   0006F0  6E89               	movwf	137,c	;volatile
  3071                           
  3072                           ;TAD_SERIAL_TIME.c: 102:                 bitIdx++;
  3073   0006F2  2A1D               	incf	putCharEcho@bitIdx^0,f,c
  3074                           
  3075                           ;TAD_SERIAL_TIME.c: 103:                 if (bitIdx >= 8) estado_tx = 2;
  3076   0006F4  0E07               	movlw	7
  3077   0006F6  641D               	cpfsgt	putCharEcho@bitIdx^0,c
  3078   0006F8  D015               	goto	l2100
  3079   0006FA  0E02               	movlw	2
  3080   0006FC  6E1C               	movwf	putCharEcho@estado_tx^0,c
  3081   0006FE  D012               	goto	l2100
  3082   000700                     l524:
  3083                           
  3084                           ;TAD_SERIAL_TIME.c: 107:                 LATAbits.LATA4 = 1;
  3085   000700  8889               	bsf	137,4,c	;volatile
  3086                           
  3087                           ;TAD_SERIAL_TIME.c: 108:                 estado_tx = 0;
  3088   000702  6A1C               	clrf	putCharEcho@estado_tx^0,c
  3089                           
  3090                           ;TAD_SERIAL_TIME.c: 109:                 sending = 0;
  3091   000704  6A1A               	clrf	putCharEcho@sending^0,c
  3092                           
  3093                           ;TAD_SERIAL_TIME.c: 110:                 TI_ResetTics(t_siot);
  3094   000706  5063               	movf	_t_siot^0,w,c
  3095   000708  EC71  F004         	call	_TI_ResetTics
  3096                           
  3097                           ;TAD_SERIAL_TIME.c: 111:                 return 1;
  3098   00070C  0E01               	movlw	1
  3099   00070E  0012               	return	
  3100   000710                     l2098:
  3101   000710  501C               	movf	putCharEcho@estado_tx^0,w,c
  3102                           
  3103                           ; Switch size 1, requested type "simple"
  3104                           ; Number of cases is 3, Range of values is 0 to 2
  3105                           ; switch strategies available:
  3106                           ; Name         Instructions Cycles
  3107                           ; simple_byte           10     6 (average)
  3108                           ;	Chosen strategy is simple_byte
  3109   000712  0A00               	xorlw	0	; case 0
  3110   000714  B4D8               	btfsc	status,2,c
  3111   000716  D7D6               	goto	l520
  3112   000718  0A01               	xorlw	1	; case 1
  3113   00071A  B4D8               	btfsc	status,2,c
  3114   00071C  D7D8               	goto	l2082
  3115   00071E  0A03               	xorlw	3	; case 2
  3116   000720  B4D8               	btfsc	status,2,c
  3117   000722  D7EE               	goto	l524
  3118   000724                     l2100:
  3119                           
  3120                           ;TAD_SERIAL_TIME.c: 113:         TI_ResetTics(t_siot);
  3121   000724  5063               	movf	_t_siot^0,w,c
  3122   000726  EC71  F004         	call	_TI_ResetTics
  3123   00072A                     l2102:
  3124                           
  3125                           ;TAD_SERIAL_TIME.c: 115:     return 0;
  3126   00072A  0E00               	movlw	0
  3127   00072C  0012               	return		;funcret
  3128   00072E                     __end_of_putCharEcho:
  3129                           	callstack 0
  3130                           
  3131 ;; *************** function _getCharTime *****************
  3132 ;; Defined at:
  3133 ;;		line 118 in file "TAD_SERIAL_TIME.c"
  3134 ;; Parameters:    Size  Location     Type
  3135 ;;  c               1   13[COMRAM] PTR unsigned char 
  3136 ;;		 -> STIME_Motor@c(1), 
  3137 ;; Auto vars:     Size  Location     Type
  3138 ;;		None
  3139 ;; Return value:  Size  Location     Type
  3140 ;;                  1    wreg      unsigned char 
  3141 ;; Registers used:
  3142 ;;		wreg, fsr2l, fsr2h, status,2, status,0, prodl, prodh, cstack
  3143 ;; Tracked objects:
  3144 ;;		On entry : 0/0
  3145 ;;		On exit  : 0/0
  3146 ;;		Unchanged: 0/0
  3147 ;; Data sizes:     COMRAM   BANK0   BANK1
  3148 ;;      Params:         1       0       0
  3149 ;;      Locals:         0       0       0
  3150 ;;      Temps:          2       0       0
  3151 ;;      Totals:         3       0       0
  3152 ;;Total ram usage:        3 bytes
  3153 ;; Hardware stack levels used: 1
  3154 ;; Hardware stack levels required when called: 3
  3155 ;; This function calls:
  3156 ;;		_TI_GetTics
  3157 ;;		_TI_ResetTics
  3158 ;; This function is called by:
  3159 ;;		_STIME_Motor
  3160 ;; This function uses a non-reentrant model
  3161 ;;
  3162                           
  3163                           	psect	text7
  3164   0002DE                     __ptext7:
  3165                           	callstack 0
  3166   0002DE                     _getCharTime:
  3167                           	callstack 26
  3168                           
  3169                           ;TAD_SERIAL_TIME.c: 119:    static unsigned char bitIdx_rx = 0;;TAD_SERIAL_TIME.c: 120: 
      +                             static unsigned char estado_rx = 0;;TAD_SERIAL_TIME.c: 121:    static unsigned char b
      +                          yteTemporal = 0;;TAD_SERIAL_TIME.c: 123:    switch(estado_rx) {
  3170                           
  3171                           ;incstack = 0
  3172   0002DE  D062               	goto	l2154
  3173   0002E0                     l535:
  3174                           
  3175                           ;TAD_SERIAL_TIME.c: 125:          if (PORTBbits.RB3 == 0) {
  3176   0002E0  B681               	btfsc	129,3,c	;volatile
  3177   0002E2  D06D               	goto	l2156
  3178                           
  3179                           ;TAD_SERIAL_TIME.c: 126:             TI_ResetTics(t_siot_rx);
  3180   0002E4  5062               	movf	_t_siot_rx^0,w,c
  3181   0002E6  EC71  F004         	call	_TI_ResetTics
  3182                           
  3183                           ;TAD_SERIAL_TIME.c: 127:             estado_rx = 1;
  3184   0002EA  0E01               	movlw	1
  3185   0002EC  D04B               	goto	L2
  3186   0002EE                     l2112:
  3187                           
  3188                           ;TAD_SERIAL_TIME.c: 133:          if (TI_GetTics(t_siot_rx) >= 3) {
  3189   0002EE  5062               	movf	_t_siot_rx^0,w,c
  3190   0002F0  ECDA  F003         	call	_TI_GetTics
  3191   0002F4  506A               	movf	(?_TI_GetTics+3)^0,w,c
  3192   0002F6  1069               	iorwf	(?_TI_GetTics+2)^0,w,c
  3193   0002F8  1068               	iorwf	(?_TI_GetTics+1)^0,w,c
  3194   0002FA  E104               	bnz	u1160
  3195   0002FC  0E03               	movlw	3
  3196   0002FE  5C67               	subwf	?_TI_GetTics^0,w,c
  3197   000300  A0D8               	btfss	status,0,c
  3198   000302  D05D               	goto	l2156
  3199   000304                     u1160:
  3200                           
  3201                           ;TAD_SERIAL_TIME.c: 134:             TI_ResetTics(t_siot_rx);
  3202   000304  5062               	movf	_t_siot_rx^0,w,c
  3203   000306  EC71  F004         	call	_TI_ResetTics
  3204                           
  3205                           ;TAD_SERIAL_TIME.c: 137:             if (PORTBbits.RB3) byteTemporal |= (1 << 0);
  3206   00030A  A681               	btfss	129,3,c	;volatile
  3207   00030C  D002               	goto	l2120
  3208   00030E  8017               	bsf	getCharTime@byteTemporal^0,0,c
  3209   000310  D001               	goto	l2122
  3210   000312                     l2120:
  3211   000312  9017               	bcf	getCharTime@byteTemporal^0,0,c
  3212   000314                     l2122:
  3213                           
  3214                           ;TAD_SERIAL_TIME.c: 140:             bitIdx_rx = 1;
  3215   000314  0E01               	movlw	1
  3216   000316  6E19               	movwf	getCharTime@bitIdx_rx^0,c
  3217                           
  3218                           ;TAD_SERIAL_TIME.c: 141:             estado_rx = 2;
  3219   000318  0E02               	movlw	2
  3220   00031A  D034               	goto	L2
  3221   00031C                     l2126:
  3222                           
  3223                           ;TAD_SERIAL_TIME.c: 146:          if (TI_GetTics(t_siot_rx) >= 2) {
  3224   00031C  5062               	movf	_t_siot_rx^0,w,c
  3225   00031E  ECDA  F003         	call	_TI_GetTics
  3226   000322  506A               	movf	(?_TI_GetTics+3)^0,w,c
  3227   000324  1069               	iorwf	(?_TI_GetTics+2)^0,w,c
  3228   000326  1068               	iorwf	(?_TI_GetTics+1)^0,w,c
  3229   000328  E104               	bnz	u1180
  3230   00032A  0E02               	movlw	2
  3231   00032C  5C67               	subwf	?_TI_GetTics^0,w,c
  3232   00032E  A0D8               	btfss	status,0,c
  3233   000330  D046               	goto	l2156
  3234   000332                     u1180:
  3235                           
  3236                           ;TAD_SERIAL_TIME.c: 147:             TI_ResetTics(t_siot_rx);
  3237   000332  5062               	movf	_t_siot_rx^0,w,c
  3238   000334  EC71  F004         	call	_TI_ResetTics
  3239                           
  3240                           ;TAD_SERIAL_TIME.c: 149:             if (PORTBbits.RB3) {
  3241   000338  A681               	btfss	129,3,c	;volatile
  3242   00033A  D00D               	goto	l2134
  3243                           
  3244                           ;TAD_SERIAL_TIME.c: 150:                byteTemporal |= (1 << bitIdx_rx);
  3245   00033C  C019  F075         	movff	getCharTime@bitIdx_rx,??_getCharTime
  3246   000340  0E01               	movlw	1
  3247   000342  6E76               	movwf	(??_getCharTime+1)^0,c
  3248   000344  2A75               	incf	??_getCharTime^0,f,c
  3249   000346  D002               	goto	u1204
  3250   000348                     u1205:
  3251   000348  90D8               	bcf	status,0,c
  3252   00034A  3676               	rlcf	(??_getCharTime+1)^0,f,c
  3253   00034C                     u1204:
  3254   00034C  2E75               	decfsz	??_getCharTime^0,f,c
  3255   00034E  D7FC               	goto	u1205
  3256   000350  5076               	movf	(??_getCharTime+1)^0,w,c
  3257   000352  1217               	iorwf	getCharTime@byteTemporal^0,f,c
  3258                           
  3259                           ;TAD_SERIAL_TIME.c: 151:             } else {
  3260   000354  D00D               	goto	l2136
  3261   000356                     l2134:
  3262                           
  3263                           ;TAD_SERIAL_TIME.c: 152:                byteTemporal &= ~(1 << bitIdx_rx);
  3264   000356  C019  F075         	movff	getCharTime@bitIdx_rx,??_getCharTime
  3265   00035A  0E01               	movlw	1
  3266   00035C  6E76               	movwf	(??_getCharTime+1)^0,c
  3267   00035E  2A75               	incf	??_getCharTime^0,f,c
  3268   000360  D002               	goto	u1214
  3269   000362                     u1215:
  3270   000362  90D8               	bcf	status,0,c
  3271   000364  3676               	rlcf	(??_getCharTime+1)^0,f,c
  3272   000366                     u1214:
  3273   000366  2E75               	decfsz	??_getCharTime^0,f,c
  3274   000368  D7FC               	goto	u1215
  3275   00036A  5076               	movf	(??_getCharTime+1)^0,w,c
  3276   00036C  0AFF               	xorlw	255
  3277   00036E  1617               	andwf	getCharTime@byteTemporal^0,f,c
  3278   000370                     l2136:
  3279                           
  3280                           ;TAD_SERIAL_TIME.c: 155:             bitIdx_rx++;
  3281   000370  2A19               	incf	getCharTime@bitIdx_rx^0,f,c
  3282                           
  3283                           ;TAD_SERIAL_TIME.c: 157:             if (bitIdx_rx >= 8) {
  3284   000372  0E07               	movlw	7
  3285   000374  6419               	cpfsgt	getCharTime@bitIdx_rx^0,c
  3286   000376  D023               	goto	l2156
  3287                           
  3288                           ;TAD_SERIAL_TIME.c: 158:                *c = byteTemporal;
  3289   000378  5074               	movf	getCharTime@c^0,w,c
  3290   00037A  6ED9               	movwf	fsr2l,c
  3291   00037C  6ADA               	clrf	fsr2h,c
  3292   00037E  C017  FFDF         	movff	getCharTime@byteTemporal,indf2
  3293                           
  3294                           ;TAD_SERIAL_TIME.c: 159:                estado_rx = 3;
  3295   000382  0E03               	movlw	3
  3296   000384                     L2:
  3297   000384  6E18               	movwf	getCharTime@estado_rx^0,c
  3298   000386  D01B               	goto	l2156
  3299   000388                     l2144:
  3300                           
  3301                           ;TAD_SERIAL_TIME.c: 165:          if (TI_GetTics(t_siot_rx) >= 2) {
  3302   000388  5062               	movf	_t_siot_rx^0,w,c
  3303   00038A  ECDA  F003         	call	_TI_GetTics
  3304   00038E  506A               	movf	(?_TI_GetTics+3)^0,w,c
  3305   000390  1069               	iorwf	(?_TI_GetTics+2)^0,w,c
  3306   000392  1068               	iorwf	(?_TI_GetTics+1)^0,w,c
  3307   000394  E104               	bnz	u1230
  3308   000396  0E02               	movlw	2
  3309   000398  5C67               	subwf	?_TI_GetTics^0,w,c
  3310   00039A  A0D8               	btfss	status,0,c
  3311   00039C  D010               	goto	l2156
  3312   00039E                     u1230:
  3313                           
  3314                           ;TAD_SERIAL_TIME.c: 166:             estado_rx = 0;
  3315   00039E  6A18               	clrf	getCharTime@estado_rx^0,c
  3316                           
  3317                           ;TAD_SERIAL_TIME.c: 167:             return 1;
  3318   0003A0  0E01               	movlw	1
  3319   0003A2  0012               	return	
  3320   0003A4                     l2154:
  3321   0003A4  5018               	movf	getCharTime@estado_rx^0,w,c
  3322                           
  3323                           ; Switch size 1, requested type "simple"
  3324                           ; Number of cases is 4, Range of values is 0 to 3
  3325                           ; switch strategies available:
  3326                           ; Name         Instructions Cycles
  3327                           ; simple_byte           13     7 (average)
  3328                           ;	Chosen strategy is simple_byte
  3329   0003A6  0A00               	xorlw	0	; case 0
  3330   0003A8  B4D8               	btfsc	status,2,c
  3331   0003AA  D79A               	goto	l535
  3332   0003AC  0A01               	xorlw	1	; case 1
  3333   0003AE  B4D8               	btfsc	status,2,c
  3334   0003B0  D79E               	goto	l2112
  3335   0003B2  0A03               	xorlw	3	; case 2
  3336   0003B4  B4D8               	btfsc	status,2,c
  3337   0003B6  D7B2               	goto	l2126
  3338   0003B8  0A01               	xorlw	1	; case 3
  3339   0003BA  B4D8               	btfsc	status,2,c
  3340   0003BC  D7E5               	goto	l2144
  3341   0003BE                     l2156:
  3342                           
  3343                           ;TAD_SERIAL_TIME.c: 171:    return 0;
  3344   0003BE  0E00               	movlw	0
  3345   0003C0  0012               	return		;funcret
  3346   0003C2                     __end_of_getCharTime:
  3347                           	callstack 0
  3348                           
  3349 ;; *************** function _STIME_Init *****************
  3350 ;; Defined at:
  3351 ;;		line 174 in file "TAD_SERIAL_TIME.c"
  3352 ;; Parameters:    Size  Location     Type
  3353 ;;		None
  3354 ;; Auto vars:     Size  Location     Type
  3355 ;;		None
  3356 ;; Return value:  Size  Location     Type
  3357 ;;                  1    wreg      void 
  3358 ;; Registers used:
  3359 ;;		wreg, fsr2l, fsr2h, status,2, status,0, prodl, prodh, cstack
  3360 ;; Tracked objects:
  3361 ;;		On entry : 0/0
  3362 ;;		On exit  : 0/0
  3363 ;;		Unchanged: 0/0
  3364 ;; Data sizes:     COMRAM   BANK0   BANK1
  3365 ;;      Params:         0       0       0
  3366 ;;      Locals:         0       0       0
  3367 ;;      Temps:          0       0       0
  3368 ;;      Totals:         0       0       0
  3369 ;;Total ram usage:        0 bytes
  3370 ;; Hardware stack levels used: 1
  3371 ;; Hardware stack levels required when called: 3
  3372 ;; This function calls:
  3373 ;;		_TI_NewTimer
  3374 ;; This function is called by:
  3375 ;;		_main
  3376 ;; This function uses a non-reentrant model
  3377 ;;
  3378                           
  3379                           	psect	text8
  3380   0009E4                     __ptext8:
  3381                           	callstack 0
  3382   0009E4                     _STIME_Init:
  3383                           	callstack 27
  3384                           
  3385                           ;TAD_SERIAL_TIME.c: 175:     TI_NewTimer(&t_siot);
  3386                           
  3387                           ;incstack = 0
  3388   0009E4  0E63               	movlw	low _t_siot
  3389   0009E6  6E67               	movwf	TI_NewTimer@TimerHandle^0,c
  3390   0009E8  EC23  F004         	call	_TI_NewTimer	;wreg free
  3391                           
  3392                           ;TAD_SERIAL_TIME.c: 176:     TI_NewTimer(&t_siot_rx);
  3393   0009EC  0E62               	movlw	low _t_siot_rx
  3394   0009EE  6E67               	movwf	TI_NewTimer@TimerHandle^0,c
  3395   0009F0  EC23  F004         	call	_TI_NewTimer	;wreg free
  3396   0009F4  0012               	return		;funcret
  3397   0009F6                     __end_of_STIME_Init:
  3398                           	callstack 0
  3399                           
  3400 ;; *************** function _SERIAL_Motor *****************
  3401 ;; Defined at:
  3402 ;;		line 118 in file "TAD_SERIAL.c"
  3403 ;; Parameters:    Size  Location     Type
  3404 ;;		None
  3405 ;; Auto vars:     Size  Location     Type
  3406 ;;  c               1    2[COMRAM] unsigned char 
  3407 ;;  aux             1    3[COMRAM] unsigned char 
  3408 ;; Return value:  Size  Location     Type
  3409 ;;                  1    wreg      void 
  3410 ;; Registers used:
  3411 ;;		wreg, fsr2l, fsr2h, status,2, status,0, tblptrl, tblptrh, tblptru, cstack
  3412 ;; Tracked objects:
  3413 ;;		On entry : 0/0
  3414 ;;		On exit  : 0/0
  3415 ;;		Unchanged: 0/0
  3416 ;; Data sizes:     COMRAM   BANK0   BANK1
  3417 ;;      Params:         0       0       0
  3418 ;;      Locals:         2       0       0
  3419 ;;      Temps:          0       0       0
  3420 ;;      Totals:         2       0       0
  3421 ;;Total ram usage:        2 bytes
  3422 ;; Hardware stack levels used: 1
  3423 ;; Hardware stack levels required when called: 3
  3424 ;; This function calls:
  3425 ;;		_CMD_setCmd
  3426 ;;		_EEPROM_WriteAvailable
  3427 ;;		_LDR_SleepReceived
  3428 ;;		_SERIAL_ReadByte
  3429 ;;		_guardarCharArr
  3430 ;; This function is called by:
  3431 ;;		_main
  3432 ;; This function uses a non-reentrant model
  3433 ;;
  3434                           
  3435                           	psect	text9
  3436   000184                     __ptext9:
  3437                           	callstack 0
  3438   000184                     _SERIAL_Motor:
  3439                           	callstack 27
  3440                           
  3441                           ;TAD_SERIAL.c: 119:     unsigned char aux;;TAD_SERIAL.c: 121:     switch(estado){
  3442                           
  3443                           ;incstack = 0
  3444   000184  D09E               	goto	l2358
  3445   000186                     l272:
  3446                           
  3447                           ;TAD_SERIAL.c: 123:             if (PIR1bits.TXIF) {
  3448   000186  A89E               	btfss	158,4,c	;volatile
  3449   000188  0012               	return	
  3450                           
  3451                           ;TAD_SERIAL.c: 124:                 if(pTxFrase && *pTxFrase != '\0') {
  3452   00018A  5007               	movf	_pTxFrase^0,w,c
  3453   00018C  1008               	iorwf	(_pTxFrase+1)^0,w,c
  3454   00018E  B4D8               	btfsc	status,2,c
  3455   000190  D015               	goto	l2290
  3456   000192  C007  FFF6         	movff	_pTxFrase,tblptrl
  3457   000196  C008  FFF7         	movff	_pTxFrase+1,tblptrh
  3458   00019A                     	if	0	;tblptru may be non-zero
  3459   00019A                     	endif
  3460   00019A                     	if	0	;tblptru may be non-zero
  3461   00019A                     	endif
  3462   00019A  0008               	tblrd		*
  3463   00019C  50F5               	movf	tablat,w,c
  3464   00019E  0900               	iorlw	0
  3465   0001A0  B4D8               	btfsc	status,2,c
  3466   0001A2  D00C               	goto	l2290
  3467                           
  3468                           ;TAD_SERIAL.c: 125:                     char c = *pTxFrase++;
  3469   0001A4  C007  FFF6         	movff	_pTxFrase,tblptrl
  3470   0001A8  C008  FFF7         	movff	_pTxFrase+1,tblptrh
  3471   0001AC                     	if	0	;tblptru may be non-zero
  3472   0001AC                     	endif
  3473   0001AC                     	if	0	;tblptru may be non-zero
  3474   0001AC                     	endif
  3475   0001AC  0008               	tblrd		*
  3476   0001AE  CFF5 F069          	movff	tablat,SERIAL_Motor@c
  3477   0001B2  4A07               	infsnz	_pTxFrase^0,f,c
  3478   0001B4  2A08               	incf	(_pTxFrase+1)^0,f,c
  3479                           
  3480                           ;TAD_SERIAL.c: 126:                     TXREG = (unsigned char)c;
  3481   0001B6  C069  FFAD         	movff	SERIAL_Motor@c,4013	;volatile
  3482                           
  3483                           ;TAD_SERIAL.c: 127:                 }else {
  3484   0001BA  0012               	return	
  3485   0001BC                     l2290:
  3486                           
  3487                           ;TAD_SERIAL.c: 128:                     pTxFrase = 0;
  3488   0001BC  0E00               	movlw	0
  3489   0001BE  6E07               	movwf	_pTxFrase^0,c
  3490   0001C0  0E00               	movlw	0
  3491   0001C2  6E08               	movwf	(_pTxFrase+1)^0,c
  3492                           
  3493                           ;TAD_SERIAL.c: 129:                     estado = 1;
  3494   0001C4  0E01               	movlw	1
  3495   0001C6  6E2E               	movwf	_estado^0,c
  3496   0001C8  0012               	return	
  3497   0001CA                     l2294:
  3498                           
  3499                           ;TAD_SERIAL.c: 134:         if(SERIAL_ReadByte(&aux)){
  3500   0001CA  0E6A               	movlw	low SERIAL_Motor@aux
  3501   0001CC  6E67               	movwf	SERIAL_ReadByte@b^0,c
  3502   0001CE  EC83  F004         	call	_SERIAL_ReadByte	;wreg free
  3503   0001D2  0900               	iorlw	0
  3504   0001D4  B4D8               	btfsc	status,2,c
  3505   0001D6  0012               	return	
  3506                           
  3507                           ;TAD_SERIAL.c: 135:             if(aux == '\r'){
  3508   0001D8  0E0D               	movlw	13
  3509   0001DA  186A               	xorwf	SERIAL_Motor@aux^0,w,c
  3510   0001DC  A4D8               	btfss	status,2,c
  3511   0001DE  D003               	goto	l2302
  3512                           
  3513                           ;TAD_SERIAL.c: 136:                 indice = 0;
  3514   0001E0  6A2D               	clrf	_indice^0,c
  3515                           
  3516                           ;TAD_SERIAL.c: 137:                 estado++;
  3517   0001E2  2A2E               	incf	_estado^0,f,c
  3518                           
  3519                           ;TAD_SERIAL.c: 138:             } else if(aux == '\n'){
  3520   0001E4  0012               	return	
  3521   0001E6                     l2302:
  3522   0001E6  0E0A               	movlw	10
  3523   0001E8  186A               	xorwf	SERIAL_Motor@aux^0,w,c
  3524   0001EA  B4D8               	btfsc	status,2,c
  3525   0001EC  0012               	return	
  3526                           
  3527                           ;TAD_SERIAL.c: 141:                 guardarCharArr(aux);
  3528   0001EE  506A               	movf	SERIAL_Motor@aux^0,w,c
  3529   0001F0  ECB3  F004         	call	_guardarCharArr
  3530   0001F4  0012               	return	
  3531   0001F6                     l2308:
  3532                           
  3533                           ;TAD_SERIAL.c: 146:             if(comando[0] == 'S'){
  3534   0001F6  0E53               	movlw	83
  3535   0001F8  1835               	xorwf	_comando^0,w,c
  3536   0001FA  A4D8               	btfss	status,2,c
  3537   0001FC  D008               	goto	l2314
  3538                           
  3539                           ;TAD_SERIAL.c: 147:                 CMD_setCmd(0, comando);
  3540   0001FE  0E35               	movlw	low _comando
  3541   000200  6E67               	movwf	CMD_setCmd@aux^0,c
  3542   000202  0E00               	movlw	0
  3543   000204  EC23  F005         	call	_CMD_setCmd
  3544                           
  3545                           ;TAD_SERIAL.c: 148:                 LDR_SleepReceived();
  3546   000208  EC27  F005         	call	_LDR_SleepReceived	;wreg free
  3547                           
  3548                           ;TAD_SERIAL.c: 149:             }else if(comando[0] == 'R'){
  3549   00020C  D03B               	goto	l289
  3550   00020E                     l2314:
  3551   00020E  0E52               	movlw	82
  3552   000210  1835               	xorwf	_comando^0,w,c
  3553   000212  A4D8               	btfss	status,2,c
  3554   000214  D006               	goto	l2318
  3555                           
  3556                           ;TAD_SERIAL.c: 150:                 CMD_setCmd(1, comando);
  3557   000216  0E35               	movlw	low _comando
  3558   000218  6E67               	movwf	CMD_setCmd@aux^0,c
  3559   00021A  0E01               	movlw	1
  3560   00021C  EC23  F005         	call	_CMD_setCmd
  3561                           
  3562                           ;TAD_SERIAL.c: 151:             }else if(comando[0] == 'C'){
  3563   000220  D031               	goto	l289
  3564   000222                     l2318:
  3565   000222  0E43               	movlw	67
  3566   000224  1835               	xorwf	_comando^0,w,c
  3567   000226  A4D8               	btfss	status,2,c
  3568   000228  D006               	goto	l2322
  3569                           
  3570                           ;TAD_SERIAL.c: 152:                 CMD_setCmd(2, comando);
  3571   00022A  0E35               	movlw	low _comando
  3572   00022C  6E67               	movwf	CMD_setCmd@aux^0,c
  3573   00022E  0E02               	movlw	2
  3574   000230  EC23  F005         	call	_CMD_setCmd
  3575                           
  3576                           ;TAD_SERIAL.c: 153:             }else if(comando[0] == 'R'){
  3577   000234  D027               	goto	l289
  3578   000236                     l2322:
  3579   000236  0E52               	movlw	82
  3580   000238  1835               	xorwf	_comando^0,w,c
  3581   00023A  A4D8               	btfss	status,2,c
  3582   00023C  D010               	goto	l2330
  3583                           
  3584                           ;TAD_SERIAL.c: 154:                 if(comando[1] == '1'){
  3585   00023E  0E31               	movlw	49
  3586   000240  1836               	xorwf	(_comando+1)^0,w,c
  3587   000242  A4D8               	btfss	status,2,c
  3588   000244  D006               	goto	l2328
  3589                           
  3590                           ;TAD_SERIAL.c: 155:                     CMD_setCmd(4, comando);
  3591   000246  0E35               	movlw	low _comando
  3592   000248  6E67               	movwf	CMD_setCmd@aux^0,c
  3593   00024A  0E04               	movlw	4
  3594   00024C  EC23  F005         	call	_CMD_setCmd
  3595                           
  3596                           ;TAD_SERIAL.c: 156:                 }else{
  3597   000250  D019               	goto	l289
  3598   000252                     l2328:
  3599                           
  3600                           ;TAD_SERIAL.c: 157:                     CMD_setCmd(5, comando);
  3601   000252  0E35               	movlw	low _comando
  3602   000254  6E67               	movwf	CMD_setCmd@aux^0,c
  3603   000256  0E05               	movlw	5
  3604   000258  EC23  F005         	call	_CMD_setCmd
  3605   00025C  D013               	goto	l289
  3606   00025E                     l2330:
  3607   00025E  0E41               	movlw	65
  3608   000260  1835               	xorwf	_comando^0,w,c
  3609   000262  A4D8               	btfss	status,2,c
  3610   000264  D006               	goto	l2334
  3611                           
  3612                           ;TAD_SERIAL.c: 160:                 CMD_setCmd(6, comando);
  3613   000266  0E35               	movlw	low _comando
  3614   000268  6E67               	movwf	CMD_setCmd@aux^0,c
  3615   00026A  0E06               	movlw	6
  3616   00026C  EC23  F005         	call	_CMD_setCmd
  3617                           
  3618                           ;TAD_SERIAL.c: 161:             }else if(comando[0] == 'P'){
  3619   000270  D009               	goto	l289
  3620   000272                     l2334:
  3621   000272  0E50               	movlw	80
  3622   000274  1835               	xorwf	_comando^0,w,c
  3623   000276  A4D8               	btfss	status,2,c
  3624   000278  D005               	goto	l289
  3625                           
  3626                           ;TAD_SERIAL.c: 162:                 CMD_setCmd(7, comando);
  3627   00027A  0E35               	movlw	low _comando
  3628   00027C  6E67               	movwf	CMD_setCmd@aux^0,c
  3629   00027E  0E07               	movlw	7
  3630   000280  EC23  F005         	call	_CMD_setCmd
  3631   000284                     l289:
  3632                           
  3633                           ;TAD_SERIAL.c: 164:             estado = 1;
  3634   000284  0E01               	movlw	1
  3635   000286  6E2E               	movwf	_estado^0,c
  3636                           
  3637                           ;TAD_SERIAL.c: 165:             if(comando[0] == 'I'){
  3638   000288  0E49               	movlw	73
  3639   00028A  1835               	xorwf	_comando^0,w,c
  3640   00028C  A4D8               	btfss	status,2,c
  3641   00028E  0012               	return	
  3642                           
  3643                           ;TAD_SERIAL.c: 166:                 estado++;
  3644   000290  2A2E               	incf	_estado^0,f,c
  3645                           
  3646                           ;TAD_SERIAL.c: 167:                 indice = 0;
  3647   000292  6A2D               	clrf	_indice^0,c
  3648                           
  3649                           ;TAD_SERIAL.c: 168:                 CMD_setCmd(3, comando);
  3650   000294  0E35               	movlw	low _comando
  3651   000296  6E67               	movwf	CMD_setCmd@aux^0,c
  3652   000298  0E03               	movlw	3
  3653   00029A  EC23  F005         	call	_CMD_setCmd
  3654   00029E  0012               	return	
  3655   0002A0                     l2348:
  3656                           
  3657                           ;TAD_SERIAL.c: 173:             if(EEPROM_WriteAvailable()){
  3658   0002A0  ECFB  F004         	call	_EEPROM_WriteAvailable	;wreg free
  3659   0002A4  0900               	iorlw	0
  3660   0002A6  B4D8               	btfsc	status,2,c
  3661   0002A8  0012               	return	
  3662                           
  3663                           ;TAD_SERIAL.c: 174:                 if(comando[indice] != '\0' && indice <= 30){
  3664   0002AA  502D               	movf	_indice^0,w,c
  3665   0002AC  0F35               	addlw	low _comando
  3666   0002AE  6ED9               	movwf	fsr2l,c
  3667   0002B0  6ADA               	clrf	fsr2h,c
  3668   0002B2  50DF               	movf	indf2,w,c
  3669   0002B4  B4D8               	btfsc	status,2,c
  3670   0002B6  0012               	return	
  3671   0002B8  0E1F               	movlw	31
  3672   0002BA  602D               	cpfslt	_indice^0,c
  3673   0002BC  0012               	return	
  3674                           
  3675                           ;TAD_SERIAL.c: 176:                     indice++;
  3676   0002BE  2A2D               	incf	_indice^0,f,c
  3677   0002C0  0012               	return	
  3678   0002C2                     l2358:
  3679   0002C2  502E               	movf	_estado^0,w,c
  3680                           
  3681                           ; Switch size 1, requested type "simple"
  3682                           ; Number of cases is 4, Range of values is 0 to 3
  3683                           ; switch strategies available:
  3684                           ; Name         Instructions Cycles
  3685                           ; simple_byte           13     7 (average)
  3686                           ;	Chosen strategy is simple_byte
  3687   0002C4  0A00               	xorlw	0	; case 0
  3688   0002C6  B4D8               	btfsc	status,2,c
  3689   0002C8  D75E               	goto	l272
  3690   0002CA  0A01               	xorlw	1	; case 1
  3691   0002CC  B4D8               	btfsc	status,2,c
  3692   0002CE  D77D               	goto	l2294
  3693   0002D0  0A03               	xorlw	3	; case 2
  3694   0002D2  B4D8               	btfsc	status,2,c
  3695   0002D4  D790               	goto	l2308
  3696   0002D6  0A01               	xorlw	1	; case 3
  3697   0002D8  A4D8               	btfss	status,2,c
  3698   0002DA  0012               	return	
  3699   0002DC  D7E1               	goto	l2348
  3700   0002DE                     __end_of_SERIAL_Motor:
  3701                           	callstack 0
  3702                           
  3703 ;; *************** function _guardarCharArr *****************
  3704 ;; Defined at:
  3705 ;;		line 110 in file "TAD_SERIAL.c"
  3706 ;; Parameters:    Size  Location     Type
  3707 ;;  aux             1    wreg     unsigned char 
  3708 ;; Auto vars:     Size  Location     Type
  3709 ;;  aux             1    0[COMRAM] unsigned char 
  3710 ;; Return value:  Size  Location     Type
  3711 ;;                  1    wreg      void 
  3712 ;; Registers used:
  3713 ;;		wreg, fsr2l, fsr2h, status,2, status,0
  3714 ;; Tracked objects:
  3715 ;;		On entry : 0/0
  3716 ;;		On exit  : 0/0
  3717 ;;		Unchanged: 0/0
  3718 ;; Data sizes:     COMRAM   BANK0   BANK1
  3719 ;;      Params:         0       0       0
  3720 ;;      Locals:         1       0       0
  3721 ;;      Temps:          0       0       0
  3722 ;;      Totals:         1       0       0
  3723 ;;Total ram usage:        1 bytes
  3724 ;; Hardware stack levels used: 1
  3725 ;; Hardware stack levels required when called: 2
  3726 ;; This function calls:
  3727 ;;		Nothing
  3728 ;; This function is called by:
  3729 ;;		_SERIAL_Motor
  3730 ;; This function uses a non-reentrant model
  3731 ;;
  3732                           
  3733                           	psect	text10
  3734   000966                     __ptext10:
  3735                           	callstack 0
  3736   000966                     _guardarCharArr:
  3737                           	callstack 27
  3738                           
  3739                           ;incstack = 0
  3740                           ;guardarCharArr@aux stored from wreg
  3741   000966  6E67               	movwf	guardarCharArr@aux^0,c
  3742                           
  3743                           ;TAD_SERIAL.c: 111:     comando[indice] = aux;
  3744   000968  502D               	movf	_indice^0,w,c
  3745   00096A  0F35               	addlw	low _comando
  3746   00096C  6ED9               	movwf	fsr2l,c
  3747   00096E  6ADA               	clrf	fsr2h,c
  3748   000970  C067  FFDF         	movff	guardarCharArr@aux,indf2
  3749                           
  3750                           ;TAD_SERIAL.c: 112:     indice++;
  3751   000974  2A2D               	incf	_indice^0,f,c
  3752                           
  3753                           ;TAD_SERIAL.c: 113:     comando[indice] = '\0';
  3754   000976  502D               	movf	_indice^0,w,c
  3755   000978  0F35               	addlw	low _comando
  3756   00097A  6ED9               	movwf	fsr2l,c
  3757   00097C  6ADA               	clrf	fsr2h,c
  3758   00097E  6ADF               	clrf	indf2,c
  3759   000980  0012               	return		;funcret
  3760   000982                     __end_of_guardarCharArr:
  3761                           	callstack 0
  3762                           
  3763 ;; *************** function _SERIAL_ReadByte *****************
  3764 ;; Defined at:
  3765 ;;		line 89 in file "TAD_SERIAL.c"
  3766 ;; Parameters:    Size  Location     Type
  3767 ;;  b               1    0[COMRAM] PTR unsigned char 
  3768 ;;		 -> SERIAL_Motor@aux(1), 
  3769 ;; Auto vars:     Size  Location     Type
  3770 ;;		None
  3771 ;; Return value:  Size  Location     Type
  3772 ;;                  1    wreg      unsigned char 
  3773 ;; Registers used:
  3774 ;;		wreg, fsr2l, fsr2h, status,2
  3775 ;; Tracked objects:
  3776 ;;		On entry : 0/0
  3777 ;;		On exit  : 0/0
  3778 ;;		Unchanged: 0/0
  3779 ;; Data sizes:     COMRAM   BANK0   BANK1
  3780 ;;      Params:         1       0       0
  3781 ;;      Locals:         0       0       0
  3782 ;;      Temps:          0       0       0
  3783 ;;      Totals:         1       0       0
  3784 ;;Total ram usage:        1 bytes
  3785 ;; Hardware stack levels used: 1
  3786 ;; Hardware stack levels required when called: 2
  3787 ;; This function calls:
  3788 ;;		Nothing
  3789 ;; This function is called by:
  3790 ;;		_SERIAL_Motor
  3791 ;; This function uses a non-reentrant model
  3792 ;;
  3793                           
  3794                           	psect	text11
  3795   000906                     __ptext11:
  3796                           	callstack 0
  3797   000906                     _SERIAL_ReadByte:
  3798                           	callstack 27
  3799                           
  3800                           ;TAD_SERIAL.c: 90:     if (PIR1bits.RCIF == 0) return 0;
  3801                           
  3802                           ;incstack = 0
  3803   000906  BA9E               	btfsc	158,5,c	;volatile
  3804   000908  D002               	goto	l262
  3805   00090A                     u930:
  3806   00090A  0E00               	movlw	0
  3807   00090C  0012               	return	
  3808   00090E                     l262:
  3809                           
  3810                           ;TAD_SERIAL.c: 93:     if (RCSTAbits.OERR) {
  3811   00090E  A2AB               	btfss	171,1,c	;volatile
  3812   000910  D002               	goto	l1964
  3813                           
  3814                           ;TAD_SERIAL.c: 94:         RCSTAbits.CREN = 0;
  3815   000912  98AB               	bcf	171,4,c	;volatile
  3816                           
  3817                           ;TAD_SERIAL.c: 95:         RCSTAbits.CREN = 1;
  3818   000914  88AB               	bsf	171,4,c	;volatile
  3819   000916                     l1964:
  3820                           
  3821                           ;TAD_SERIAL.c: 98:     *b = RCREG;
  3822   000916  5067               	movf	SERIAL_ReadByte@b^0,w,c
  3823   000918  6ED9               	movwf	fsr2l,c
  3824   00091A  6ADA               	clrf	fsr2h,c
  3825   00091C  CFAE FFDF          	movff	4014,indf2	;volatile
  3826                           
  3827                           ;TAD_SERIAL.c: 101:     if (RCSTAbits.FERR) return 0;
  3828   000920  B4AB               	btfsc	171,2,c	;volatile
  3829   000922  D7F3               	goto	u930
  3830                           
  3831                           ;TAD_SERIAL.c: 103:     return 1;
  3832   000924  0E01               	movlw	1
  3833   000926  0012               	return		;funcret
  3834   000928                     __end_of_SERIAL_ReadByte:
  3835                           	callstack 0
  3836                           
  3837 ;; *************** function _LDR_SleepReceived *****************
  3838 ;; Defined at:
  3839 ;;		line 18 in file "TAD_LDR.c"
  3840 ;; Parameters:    Size  Location     Type
  3841 ;;		None
  3842 ;; Auto vars:     Size  Location     Type
  3843 ;;		None
  3844 ;; Return value:  Size  Location     Type
  3845 ;;                  1    wreg      void 
  3846 ;; Registers used:
  3847 ;;		wreg, status,2
  3848 ;; Tracked objects:
  3849 ;;		On entry : 0/0
  3850 ;;		On exit  : 0/0
  3851 ;;		Unchanged: 0/0
  3852 ;; Data sizes:     COMRAM   BANK0   BANK1
  3853 ;;      Params:         0       0       0
  3854 ;;      Locals:         0       0       0
  3855 ;;      Temps:          0       0       0
  3856 ;;      Totals:         0       0       0
  3857 ;;Total ram usage:        0 bytes
  3858 ;; Hardware stack levels used: 1
  3859 ;; Hardware stack levels required when called: 2
  3860 ;; This function calls:
  3861 ;;		Nothing
  3862 ;; This function is called by:
  3863 ;;		_SERIAL_Motor
  3864 ;; This function uses a non-reentrant model
  3865 ;;
  3866                           
  3867                           	psect	text12
  3868   000A4E                     __ptext12:
  3869                           	callstack 0
  3870   000A4E                     _LDR_SleepReceived:
  3871                           	callstack 27
  3872                           
  3873                           ;TAD_LDR.c: 19:     sleepRecived = 1;
  3874                           
  3875                           ;incstack = 0
  3876   000A4E  0E01               	movlw	1
  3877   000A50  6E2C               	movwf	_sleepRecived^0,c
  3878   000A52  0012               	return		;funcret
  3879   000A54                     __end_of_LDR_SleepReceived:
  3880                           	callstack 0
  3881                           
  3882 ;; *************** function _EEPROM_WriteAvailable *****************
  3883 ;; Defined at:
  3884 ;;		line 26 in file "TAD_EEPROM.c"
  3885 ;; Parameters:    Size  Location     Type
  3886 ;;		None
  3887 ;; Auto vars:     Size  Location     Type
  3888 ;;		None
  3889 ;; Return value:  Size  Location     Type
  3890 ;;                  1    wreg      unsigned char 
  3891 ;; Registers used:
  3892 ;;		wreg
  3893 ;; Tracked objects:
  3894 ;;		On entry : 0/0
  3895 ;;		On exit  : 0/0
  3896 ;;		Unchanged: 0/0
  3897 ;; Data sizes:     COMRAM   BANK0   BANK1
  3898 ;;      Params:         0       0       0
  3899 ;;      Locals:         0       0       0
  3900 ;;      Temps:          0       0       0
  3901 ;;      Totals:         0       0       0
  3902 ;;Total ram usage:        0 bytes
  3903 ;; Hardware stack levels used: 1
  3904 ;; Hardware stack levels required when called: 2
  3905 ;; This function calls:
  3906 ;;		Nothing
  3907 ;; This function is called by:
  3908 ;;		_SERIAL_Motor
  3909 ;; This function uses a non-reentrant model
  3910 ;;
  3911                           
  3912                           	psect	text13
  3913   0009F6                     __ptext13:
  3914                           	callstack 0
  3915   0009F6                     _EEPROM_WriteAvailable:
  3916                           	callstack 27
  3917                           
  3918                           ;TAD_EEPROM.c: 27:     return !EECON1bits.WR;
  3919                           
  3920                           ;incstack = 0
  3921   0009F6  A2A6               	btfss	166,1,c	;volsfr
  3922   0009F8  D001               	goto	u101
  3923   0009FA  D002               	goto	u100
  3924   0009FC                     u101:
  3925   0009FC  0E01               	movlw	1
  3926   0009FE  0012               	return	
  3927   000A00                     u100:
  3928   000A00  0E00               	movlw	0
  3929   000A02  0012               	return		;funcret
  3930   000A04                     __end_of_EEPROM_WriteAvailable:
  3931                           	callstack 0
  3932                           
  3933 ;; *************** function _CMD_setCmd *****************
  3934 ;; Defined at:
  3935 ;;		line 7 in file "TAD_CMD.c"
  3936 ;; Parameters:    Size  Location     Type
  3937 ;;  e               1    wreg     unsigned char 
  3938 ;;  aux             1    0[COMRAM] PTR unsigned char 
  3939 ;;		 -> comando(30), 
  3940 ;; Auto vars:     Size  Location     Type
  3941 ;;  e               1    1[COMRAM] unsigned char 
  3942 ;; Return value:  Size  Location     Type
  3943 ;;                  1    wreg      void 
  3944 ;; Registers used:
  3945 ;;		wreg
  3946 ;; Tracked objects:
  3947 ;;		On entry : 0/0
  3948 ;;		On exit  : 0/0
  3949 ;;		Unchanged: 0/0
  3950 ;; Data sizes:     COMRAM   BANK0   BANK1
  3951 ;;      Params:         1       0       0
  3952 ;;      Locals:         1       0       0
  3953 ;;      Temps:          0       0       0
  3954 ;;      Totals:         2       0       0
  3955 ;;Total ram usage:        2 bytes
  3956 ;; Hardware stack levels used: 1
  3957 ;; Hardware stack levels required when called: 2
  3958 ;; This function calls:
  3959 ;;		Nothing
  3960 ;; This function is called by:
  3961 ;;		_SERIAL_Motor
  3962 ;; This function uses a non-reentrant model
  3963 ;;
  3964                           
  3965                           	psect	text14
  3966   000A46                     __ptext14:
  3967                           	callstack 0
  3968   000A46                     _CMD_setCmd:
  3969                           	callstack 27
  3970                           
  3971                           ;incstack = 0
  3972                           ;CMD_setCmd@e stored from wreg
  3973   000A46  6E68               	movwf	CMD_setCmd@e^0,c
  3974                           
  3975                           ;TAD_CMD.c: 8:     estado = e;
  3976   000A48  C068  F014         	movff	CMD_setCmd@e,_estado@TAD_CMD$F1019
  3977   000A4C  0012               	return		;funcret
  3978   000A4E                     __end_of_CMD_setCmd:
  3979                           	callstack 0
  3980                           
  3981 ;; *************** function _SERIAL_Init *****************
  3982 ;; Defined at:
  3983 ;;		line 49 in file "TAD_SERIAL.c"
  3984 ;; Parameters:    Size  Location     Type
  3985 ;;		None
  3986 ;; Auto vars:     Size  Location     Type
  3987 ;;		None
  3988 ;; Return value:  Size  Location     Type
  3989 ;;                  1    wreg      void 
  3990 ;; Registers used:
  3991 ;;		wreg, status,2
  3992 ;; Tracked objects:
  3993 ;;		On entry : 0/0
  3994 ;;		On exit  : 0/0
  3995 ;;		Unchanged: 0/0
  3996 ;; Data sizes:     COMRAM   BANK0   BANK1
  3997 ;;      Params:         0       0       0
  3998 ;;      Locals:         0       0       0
  3999 ;;      Temps:          0       0       0
  4000 ;;      Totals:         0       0       0
  4001 ;;Total ram usage:        0 bytes
  4002 ;; Hardware stack levels used: 1
  4003 ;; Hardware stack levels required when called: 2
  4004 ;; This function calls:
  4005 ;;		Nothing
  4006 ;; This function is called by:
  4007 ;;		_main
  4008 ;; This function uses a non-reentrant model
  4009 ;;
  4010                           
  4011                           	psect	text15
  4012   000982                     __ptext15:
  4013                           	callstack 0
  4014   000982                     _SERIAL_Init:
  4015                           	callstack 28
  4016                           
  4017                           ;TAD_SERIAL.c: 51:     TXSTAbits.SYNC = 0;
  4018                           
  4019                           ;incstack = 0
  4020   000982  98AC               	bcf	172,4,c	;volatile
  4021                           
  4022                           ;TAD_SERIAL.c: 52:     TXSTAbits.TX9 = 0;
  4023   000984  9CAC               	bcf	172,6,c	;volatile
  4024                           
  4025                           ;TAD_SERIAL.c: 53:     TXSTAbits.BRGH = 1;
  4026   000986  84AC               	bsf	172,2,c	;volatile
  4027                           
  4028                           ;TAD_SERIAL.c: 54:     TXSTAbits.TXEN = 1;
  4029   000988  8AAC               	bsf	172,5,c	;volatile
  4030                           
  4031                           ;TAD_SERIAL.c: 57:     RCSTAbits.SPEN = 1;
  4032   00098A  8EAB               	bsf	171,7,c	;volatile
  4033                           
  4034                           ;TAD_SERIAL.c: 58:     RCSTAbits.RX9 = 0;
  4035   00098C  9CAB               	bcf	171,6,c	;volatile
  4036                           
  4037                           ;TAD_SERIAL.c: 59:     RCSTAbits.CREN = 1;
  4038   00098E  88AB               	bsf	171,4,c	;volatile
  4039                           
  4040                           ;TAD_SERIAL.c: 64:     SPBRG = (unsigned char)((10000000UL / (16UL * 9600UL)) - 1UL);
  4041   000990  0E40               	movlw	64
  4042   000992  6EAF               	movwf	175,c	;volatile
  4043                           
  4044                           ;TAD_SERIAL.c: 65:     SPBRGH = 0;
  4045   000994  6AB0               	clrf	176,c	;volatile
  4046                           
  4047                           ;TAD_SERIAL.c: 68:     PIR1bits.RCIF = 0;
  4048   000996  9A9E               	bcf	158,5,c	;volatile
  4049                           
  4050                           ;TAD_SERIAL.c: 69:     estado = 1;
  4051   000998  0E01               	movlw	1
  4052   00099A  6E2E               	movwf	_estado^0,c
  4053   00099C  0012               	return		;funcret
  4054   00099E                     __end_of_SERIAL_Init:
  4055                           	callstack 0
  4056                           
  4057 ;; *************** function _LDR_Init *****************
  4058 ;; Defined at:
  4059 ;;		line 14 in file "TAD_LDR.c"
  4060 ;; Parameters:    Size  Location     Type
  4061 ;;		None
  4062 ;; Auto vars:     Size  Location     Type
  4063 ;;		None
  4064 ;; Return value:  Size  Location     Type
  4065 ;;                  1    wreg      void 
  4066 ;; Registers used:
  4067 ;;		wreg, fsr2l, fsr2h, status,2, status,0, prodl, prodh, cstack
  4068 ;; Tracked objects:
  4069 ;;		On entry : 0/0
  4070 ;;		On exit  : 0/0
  4071 ;;		Unchanged: 0/0
  4072 ;; Data sizes:     COMRAM   BANK0   BANK1
  4073 ;;      Params:         0       0       0
  4074 ;;      Locals:         0       0       0
  4075 ;;      Temps:          0       0       0
  4076 ;;      Totals:         0       0       0
  4077 ;;Total ram usage:        0 bytes
  4078 ;; Hardware stack levels used: 1
  4079 ;; Hardware stack levels required when called: 3
  4080 ;; This function calls:
  4081 ;;		_TI_NewTimer
  4082 ;; This function is called by:
  4083 ;;		_main
  4084 ;; This function uses a non-reentrant model
  4085 ;;
  4086                           
  4087                           	psect	text16
  4088   000A1E                     __ptext16:
  4089                           	callstack 0
  4090   000A1E                     _LDR_Init:
  4091                           	callstack 27
  4092                           
  4093                           ;TAD_LDR.c: 15:     TI_NewTimer(&timerLDR);
  4094                           
  4095                           ;incstack = 0
  4096   000A1E  0E65               	movlw	low _timerLDR
  4097   000A20  6E67               	movwf	TI_NewTimer@TimerHandle^0,c
  4098   000A22  EC23  F004         	call	_TI_NewTimer	;wreg free
  4099   000A26  0012               	return		;funcret
  4100   000A28                     __end_of_LDR_Init:
  4101                           	callstack 0
  4102                           
  4103 ;; *************** function _HREATBEAT_Init *****************
  4104 ;; Defined at:
  4105 ;;		line 13 in file "TAD_HEARTBEAT.c"
  4106 ;; Parameters:    Size  Location     Type
  4107 ;;		None
  4108 ;; Auto vars:     Size  Location     Type
  4109 ;;		None
  4110 ;; Return value:  Size  Location     Type
  4111 ;;                  1    wreg      void 
  4112 ;; Registers used:
  4113 ;;		wreg, fsr2l, fsr2h, status,2, status,0, prodl, prodh, cstack
  4114 ;; Tracked objects:
  4115 ;;		On entry : 0/0
  4116 ;;		On exit  : 0/0
  4117 ;;		Unchanged: 0/0
  4118 ;; Data sizes:     COMRAM   BANK0   BANK1
  4119 ;;      Params:         0       0       0
  4120 ;;      Locals:         0       0       0
  4121 ;;      Temps:          0       0       0
  4122 ;;      Totals:         0       0       0
  4123 ;;Total ram usage:        0 bytes
  4124 ;; Hardware stack levels used: 1
  4125 ;; Hardware stack levels required when called: 3
  4126 ;; This function calls:
  4127 ;;		_TI_NewTimer
  4128 ;; This function is called by:
  4129 ;;		_main
  4130 ;; This function uses a non-reentrant model
  4131 ;;
  4132                           
  4133                           	psect	text17
  4134   000A28                     __ptext17:
  4135                           	callstack 0
  4136   000A28                     _HREATBEAT_Init:
  4137                           	callstack 27
  4138                           
  4139                           ;TAD_HEARTBEAT.c: 14:     TI_NewTimer(&timerDutyCycle);
  4140                           
  4141                           ;incstack = 0
  4142   000A28  0E64               	movlw	low _timerDutyCycle
  4143   000A2A  6E67               	movwf	TI_NewTimer@TimerHandle^0,c
  4144   000A2C  EC23  F004         	call	_TI_NewTimer	;wreg free
  4145   000A30  0012               	return		;funcret
  4146   000A32                     __end_of_HREATBEAT_Init:
  4147                           	callstack 0
  4148                           
  4149 ;; *************** function _HEARTBEAT_Motor *****************
  4150 ;; Defined at:
  4151 ;;		line 25 in file "TAD_HEARTBEAT.c"
  4152 ;; Parameters:    Size  Location     Type
  4153 ;;		None
  4154 ;; Auto vars:     Size  Location     Type
  4155 ;;		None
  4156 ;; Return value:  Size  Location     Type
  4157 ;;                  1    wreg      void 
  4158 ;; Registers used:
  4159 ;;		wreg, fsr2l, fsr2h, status,2, status,0, prodl, prodh, cstack
  4160 ;; Tracked objects:
  4161 ;;		On entry : 0/0
  4162 ;;		On exit  : 0/0
  4163 ;;		Unchanged: 0/0
  4164 ;; Data sizes:     COMRAM   BANK0   BANK1
  4165 ;;      Params:         0       0       0
  4166 ;;      Locals:         0       0       0
  4167 ;;      Temps:          4       0       0
  4168 ;;      Totals:         4       0       0
  4169 ;;Total ram usage:        4 bytes
  4170 ;; Hardware stack levels used: 1
  4171 ;; Hardware stack levels required when called: 3
  4172 ;; This function calls:
  4173 ;;		_TI_GetTics
  4174 ;;		_TI_ResetTics
  4175 ;; This function is called by:
  4176 ;;		_main
  4177 ;; This function uses a non-reentrant model
  4178 ;;
  4179                           
  4180                           	psect	text18
  4181   00072E                     __ptext18:
  4182                           	callstack 0
  4183   00072E                     _HEARTBEAT_Motor:
  4184                           	callstack 27
  4185                           
  4186                           ;TAD_HEARTBEAT.c: 27:     switch(estado){
  4187                           
  4188                           ;incstack = 0
  4189   00072E  D037               	goto	l2390
  4190   000730                     l413:
  4191                           
  4192                           ;TAD_HEARTBEAT.c: 29:             LATAbits.LA3 = 0;
  4193   000730  9689               	bcf	137,3,c	;volatile
  4194                           
  4195                           ;TAD_HEARTBEAT.c: 30:             break;
  4196   000732  0012               	return	
  4197   000734                     l2362:
  4198                           
  4199                           ;TAD_HEARTBEAT.c: 32:             TI_ResetTics(timerDutyCycle);
  4200   000734  5064               	movf	_timerDutyCycle^0,w,c
  4201   000736  EC71  F004         	call	_TI_ResetTics
  4202                           
  4203                           ;TAD_HEARTBEAT.c: 33:             LATAbits.LA3 = 1;
  4204   00073A  8689               	bsf	137,3,c	;volatile
  4205                           
  4206                           ;TAD_HEARTBEAT.c: 34:             estado++;
  4207   00073C  2A79               	incf	_estado@TAD_HEARTBEAT$F828^0,f,c
  4208                           
  4209                           ;TAD_HEARTBEAT.c: 35:             if(dutyCycle == 40){
  4210   00073E  0E28               	movlw	40
  4211   000740  1829               	xorwf	_dutyCycle^0,w,c
  4212   000742  A4D8               	btfss	status,2,c
  4213   000744  D002               	goto	l416
  4214                           
  4215                           ;TAD_HEARTBEAT.c: 36:                 flag = 1;
  4216   000746  0E01               	movlw	1
  4217   000748  6E28               	movwf	_flag^0,c
  4218   00074A                     l416:
  4219                           
  4220                           ;TAD_HEARTBEAT.c: 38:             if(dutyCycle == 0){
  4221   00074A  5029               	movf	_dutyCycle^0,w,c
  4222   00074C  B4D8               	btfsc	status,2,c
  4223                           
  4224                           ;TAD_HEARTBEAT.c: 39:                 flag = 0;
  4225   00074E  6A28               	clrf	_flag^0,c
  4226                           
  4227                           ;TAD_HEARTBEAT.c: 41:             if(flag == 0){
  4228   000750  5028               	movf	_flag^0,w,c
  4229   000752  A4D8               	btfss	status,2,c
  4230   000754  D002               	goto	l2378
  4231                           
  4232                           ;TAD_HEARTBEAT.c: 42:                 dutyCycle++;
  4233   000756  2A29               	incf	_dutyCycle^0,f,c
  4234                           
  4235                           ;TAD_HEARTBEAT.c: 43:             }else{
  4236   000758  0012               	return	
  4237   00075A                     l2378:
  4238                           
  4239                           ;TAD_HEARTBEAT.c: 44:                 dutyCycle--;
  4240   00075A  0629               	decf	_dutyCycle^0,f,c
  4241   00075C  0012               	return	
  4242   00075E                     l2380:
  4243                           
  4244                           ;TAD_HEARTBEAT.c: 48:             if(TI_GetTics(timerDutyCycle) >= dutyCycle){
  4245   00075E  C029  F074         	movff	_dutyCycle,??_HEARTBEAT_Motor
  4246   000762  6A75               	clrf	(??_HEARTBEAT_Motor+1)^0,c
  4247   000764  6A76               	clrf	(??_HEARTBEAT_Motor+2)^0,c
  4248   000766  6A77               	clrf	(??_HEARTBEAT_Motor+3)^0,c
  4249   000768  5064               	movf	_timerDutyCycle^0,w,c
  4250   00076A  ECDA  F003         	call	_TI_GetTics
  4251   00076E  5074               	movf	??_HEARTBEAT_Motor^0,w,c
  4252   000770  5C67               	subwf	?_TI_GetTics^0,w,c
  4253   000772  5075               	movf	(??_HEARTBEAT_Motor+1)^0,w,c
  4254   000774  5868               	subwfb	(?_TI_GetTics+1)^0,w,c
  4255   000776  5076               	movf	(??_HEARTBEAT_Motor+2)^0,w,c
  4256   000778  5869               	subwfb	(?_TI_GetTics+2)^0,w,c
  4257   00077A  5077               	movf	(??_HEARTBEAT_Motor+3)^0,w,c
  4258   00077C  586A               	subwfb	(?_TI_GetTics+3)^0,w,c
  4259   00077E  B0D8               	btfsc	status,0,c
  4260                           
  4261                           ;TAD_HEARTBEAT.c: 49:                 LATAbits.LA3 = 0;
  4262   000780  9689               	bcf	137,3,c	;volatile
  4263                           
  4264                           ;TAD_HEARTBEAT.c: 51:             if(TI_GetTics(timerDutyCycle) >= 20){
  4265   000782  5064               	movf	_timerDutyCycle^0,w,c
  4266   000784  ECDA  F003         	call	_TI_GetTics
  4267   000788  506A               	movf	(?_TI_GetTics+3)^0,w,c
  4268   00078A  1069               	iorwf	(?_TI_GetTics+2)^0,w,c
  4269   00078C  1068               	iorwf	(?_TI_GetTics+1)^0,w,c
  4270   00078E  E104               	bnz	u1640
  4271   000790  0E14               	movlw	20
  4272   000792  5C67               	subwf	?_TI_GetTics^0,w,c
  4273   000794  A0D8               	btfss	status,0,c
  4274   000796  0012               	return	
  4275   000798                     u1640:
  4276                           
  4277                           ;TAD_HEARTBEAT.c: 52:                 estado = 1;
  4278   000798  0E01               	movlw	1
  4279   00079A  6E79               	movwf	_estado@TAD_HEARTBEAT$F828^0,c
  4280   00079C  0012               	return	
  4281   00079E                     l2390:
  4282   00079E  5079               	movf	_estado@TAD_HEARTBEAT$F828^0,w,c
  4283                           
  4284                           ; Switch size 1, requested type "simple"
  4285                           ; Number of cases is 3, Range of values is 0 to 2
  4286                           ; switch strategies available:
  4287                           ; Name         Instructions Cycles
  4288                           ; simple_byte           10     6 (average)
  4289                           ;	Chosen strategy is simple_byte
  4290   0007A0  0A00               	xorlw	0	; case 0
  4291   0007A2  B4D8               	btfsc	status,2,c
  4292   0007A4  D7C5               	goto	l413
  4293   0007A6  0A01               	xorlw	1	; case 1
  4294   0007A8  B4D8               	btfsc	status,2,c
  4295   0007AA  D7C4               	goto	l2362
  4296   0007AC  0A03               	xorlw	3	; case 2
  4297   0007AE  A4D8               	btfss	status,2,c
  4298   0007B0  0012               	return	
  4299   0007B2  D7D5               	goto	l2380
  4300   0007B4                     __end_of_HEARTBEAT_Motor:
  4301                           	callstack 0
  4302                           
  4303 ;; *************** function _DSP_Motor *****************
  4304 ;; Defined at:
  4305 ;;		line 38 in file "TAD_DISPLAY.c"
  4306 ;; Parameters:    Size  Location     Type
  4307 ;;		None
  4308 ;; Auto vars:     Size  Location     Type
  4309 ;;		None
  4310 ;; Return value:  Size  Location     Type
  4311 ;;                  1    wreg      void 
  4312 ;; Registers used:
  4313 ;;		wreg, fsr2l, fsr2h, status,2, status,0, tblptrl, tblptrh, tblptru, prodl, prodh, cstack
  4314 ;; Tracked objects:
  4315 ;;		On entry : 0/0
  4316 ;;		On exit  : 0/0
  4317 ;;		Unchanged: 0/0
  4318 ;; Data sizes:     COMRAM   BANK0   BANK1
  4319 ;;      Params:         0       0       0
  4320 ;;      Locals:         0       0       0
  4321 ;;      Temps:          2       0       0
  4322 ;;      Totals:         2       0       0
  4323 ;;Total ram usage:        2 bytes
  4324 ;; Hardware stack levels used: 1
  4325 ;; Hardware stack levels required when called: 3
  4326 ;; This function calls:
  4327 ;;		_ADC_ExistValue
  4328 ;;		_ADC_GetX
  4329 ;;		_ADC_GetY
  4330 ;;		_SERIAL_PutString
  4331 ;;		_TI_GetTics
  4332 ;;		_TI_ResetTics
  4333 ;; This function is called by:
  4334 ;;		_main
  4335 ;; This function uses a non-reentrant model
  4336 ;;
  4337                           
  4338                           	psect	text19
  4339   000018                     __ptext19:
  4340                           	callstack 0
  4341   000018                     _DSP_Motor:
  4342                           	callstack 27
  4343                           
  4344                           ;TAD_DISPLAY.c: 39:     static unsigned char estado = 0;;TAD_DISPLAY.c: 40:     static u
      +                          nsigned char i;;TAD_DISPLAY.c: 42:     switch(estado){
  4345                           
  4346                           ;incstack = 0
  4347   000018  D0A4               	goto	l2276
  4348   00001A                     l2190:
  4349                           
  4350                           ;TAD_DISPLAY.c: 44:             if(ADC_ExistValue()){
  4351   00001A  EC02  F005         	call	_ADC_ExistValue	;wreg free
  4352   00001E  0900               	iorlw	0
  4353   000020  B4D8               	btfsc	status,2,c
  4354   000022  0012               	return	
  4355                           
  4356                           ;TAD_DISPLAY.c: 45:                 valorX = ADC_GetX();
  4357   000024  EC1E  F005         	call	_ADC_GetX	;wreg free
  4358   000028  C067  F00B         	movff	?_ADC_GetX,_valorX
  4359   00002C  C068  F00C         	movff	?_ADC_GetX+1,_valorX+1
  4360                           
  4361                           ;TAD_DISPLAY.c: 46:                 valorY = ADC_GetY();
  4362   000030  EC19  F005         	call	_ADC_GetY	;wreg free
  4363   000034  C067  F009         	movff	?_ADC_GetY,_valorY
  4364   000038  C068  F00A         	movff	?_ADC_GetY+1,_valorY+1
  4365                           
  4366                           ;TAD_DISPLAY.c: 47:                 i = 0;
  4367   00003C  6A2F               	clrf	DSP_Motor@i^0,c
  4368   00003E                     l2196:
  4369                           
  4370                           ;TAD_DISPLAY.c: 48:                 estado++;
  4371   00003E  2A30               	incf	DSP_Motor@estado^0,f,c
  4372                           
  4373                           ;TAD_DISPLAY.c: 50:             break;
  4374                           
  4375                           ;TAD_DISPLAY.c: 49:             }
  4376   000040  0012               	return	
  4377   000042                     l2198:
  4378                           
  4379                           ;TAD_DISPLAY.c: 52:             if(i == 7){
  4380   000042  0E07               	movlw	7
  4381   000044  182F               	xorwf	DSP_Motor@i^0,w,c
  4382   000046  B4D8               	btfsc	status,2,c
  4383   000048  D7FA               	goto	l2196
  4384                           
  4385                           ;TAD_DISPLAY.c: 55:                 i++;
  4386   00004A  2A2F               	incf	DSP_Motor@i^0,f,c
  4387                           
  4388                           ;TAD_DISPLAY.c: 56:                 valorX = valorX >> 1;
  4389   00004C  90D8               	bcf	status,0,c
  4390   00004E  300C               	rrcf	(_valorX+1)^0,w,c
  4391   000050  6E74               	movwf	??_DSP_Motor^0,c
  4392   000052  300B               	rrcf	_valorX^0,w,c
  4393   000054  6E0B               	movwf	_valorX^0,c
  4394   000056  C074  F00C         	movff	??_DSP_Motor,_valorX+1
  4395                           
  4396                           ;TAD_DISPLAY.c: 57:                 valorY = valorY >> 1;
  4397   00005A  90D8               	bcf	status,0,c
  4398   00005C  300A               	rrcf	(_valorY+1)^0,w,c
  4399   00005E  6E74               	movwf	??_DSP_Motor^0,c
  4400   000060  3009               	rrcf	_valorY^0,w,c
  4401   000062  6E09               	movwf	_valorY^0,c
  4402   000064  C074  F00A         	movff	??_DSP_Motor,_valorY+1
  4403   000068  0012               	return	
  4404   00006A                     l2208:
  4405                           
  4406                           ;TAD_DISPLAY.c: 61:             valorX = valorX & 0x07;
  4407   00006A  0E07               	movlw	7
  4408   00006C  140B               	andwf	_valorX^0,w,c
  4409   00006E  6E0B               	movwf	_valorX^0,c
  4410   000070  6A0C               	clrf	(_valorX+1)^0,c
  4411                           
  4412                           ;TAD_DISPLAY.c: 62:             valorY = valorY & 0x07;
  4413   000072  0E07               	movlw	7
  4414   000074  1409               	andwf	_valorY^0,w,c
  4415   000076  6E09               	movwf	_valorY^0,c
  4416   000078  6A0A               	clrf	(_valorY+1)^0,c
  4417                           
  4418                           ;TAD_DISPLAY.c: 64:             if(flagRebotes == 0){
  4419   00007A  5031               	movf	_flagRebotes^0,w,c
  4420   00007C  A4D8               	btfss	status,2,c
  4421   00007E  D042               	goto	l2250
  4422                           
  4423                           ;TAD_DISPLAY.c: 66:                 if(!PORTBbits.RB2){
  4424   000080  B481               	btfsc	129,2,c	;volatile
  4425   000082  D006               	goto	l163
  4426                           
  4427                           ;TAD_DISPLAY.c: 68:                     TI_ResetTics(timerRebotes);
  4428   000084  5066               	movf	_timerRebotes^0,w,c
  4429   000086  EC71  F004         	call	_TI_ResetTics
  4430                           
  4431                           ;TAD_DISPLAY.c: 69:                     flagRebotes = 2;
  4432   00008A  0E02               	movlw	2
  4433   00008C  6E31               	movwf	_flagRebotes^0,c
  4434                           
  4435                           ;TAD_DISPLAY.c: 71:                 } else {
  4436   00008E  0012               	return	
  4437   000090                     l163:
  4438                           
  4439                           ;TAD_DISPLAY.c: 72:                     estado = 0;
  4440   000090  6A30               	clrf	DSP_Motor@estado^0,c
  4441                           
  4442                           ;TAD_DISPLAY.c: 75:                     if(valorX == 0){
  4443   000092  500B               	movf	_valorX^0,w,c
  4444   000094  100C               	iorwf	(_valorX+1)^0,w,c
  4445   000096  A4D8               	btfss	status,2,c
  4446   000098  D008               	goto	l2226
  4447                           
  4448                           ;TAD_DISPLAY.c: 77:                         if(lastDirX != 0){
  4449   00009A  507B               	movf	_lastDirX^0,w,c
  4450   00009C  B4D8               	btfsc	status,2,c
  4451   00009E  D015               	goto	l2234
  4452                           
  4453                           ;TAD_DISPLAY.c: 78:                             SERIAL_PutString(3);
  4454   0000A0  0E03               	movlw	3
  4455   0000A2  EC94  F004         	call	_SERIAL_PutString
  4456                           
  4457                           ;TAD_DISPLAY.c: 79:                             lastDirX = 0;
  4458   0000A6  6A7B               	clrf	_lastDirX^0,c
  4459   0000A8  D010               	goto	l2234
  4460   0000AA                     l2226:
  4461   0000AA  0E07               	movlw	7
  4462   0000AC  180B               	xorwf	_valorX^0,w,c
  4463   0000AE  100C               	iorwf	(_valorX+1)^0,w,c
  4464   0000B0  A4D8               	btfss	status,2,c
  4465   0000B2  D00A               	goto	l168
  4466                           
  4467                           ;TAD_DISPLAY.c: 83:                         if(lastDirX != 7){
  4468   0000B4  0E07               	movlw	7
  4469   0000B6  187B               	xorwf	_lastDirX^0,w,c
  4470   0000B8  B4D8               	btfsc	status,2,c
  4471   0000BA  D007               	goto	l2234
  4472                           
  4473                           ;TAD_DISPLAY.c: 84:                             SERIAL_PutString(2);
  4474   0000BC  0E02               	movlw	2
  4475   0000BE  EC94  F004         	call	_SERIAL_PutString
  4476                           
  4477                           ;TAD_DISPLAY.c: 85:                             lastDirX = 7;
  4478   0000C2  0E07               	movlw	7
  4479   0000C4  6E7B               	movwf	_lastDirX^0,c
  4480   0000C6  D001               	goto	l2234
  4481   0000C8                     l168:
  4482                           
  4483                           ;TAD_DISPLAY.c: 88:                         lastDirX = 0xFF;
  4484   0000C8  687B               	setf	_lastDirX^0,c
  4485   0000CA                     l2234:
  4486                           
  4487                           ;TAD_DISPLAY.c: 92:                     if(valorY == 0){
  4488   0000CA  5009               	movf	_valorY^0,w,c
  4489   0000CC  100A               	iorwf	(_valorY+1)^0,w,c
  4490   0000CE  A4D8               	btfss	status,2,c
  4491   0000D0  D008               	goto	l2242
  4492                           
  4493                           ;TAD_DISPLAY.c: 94:                         if(lastDirY != 0){
  4494   0000D2  507A               	movf	_lastDirY^0,w,c
  4495   0000D4  B4D8               	btfsc	status,2,c
  4496   0000D6  0012               	return	
  4497                           
  4498                           ;TAD_DISPLAY.c: 95:                             SERIAL_PutString(1);
  4499   0000D8  0E01               	movlw	1
  4500   0000DA  EC94  F004         	call	_SERIAL_PutString
  4501                           
  4502                           ;TAD_DISPLAY.c: 96:                             lastDirY = 0;
  4503   0000DE  6A7A               	clrf	_lastDirY^0,c
  4504   0000E0  0012               	return	
  4505   0000E2                     l2242:
  4506   0000E2  0E07               	movlw	7
  4507   0000E4  1809               	xorwf	_valorY^0,w,c
  4508   0000E6  100A               	iorwf	(_valorY+1)^0,w,c
  4509   0000E8  A4D8               	btfss	status,2,c
  4510   0000EA  D00A               	goto	l174
  4511                           
  4512                           ;TAD_DISPLAY.c: 100:                         if(lastDirY != 7){
  4513   0000EC  0E07               	movlw	7
  4514   0000EE  187A               	xorwf	_lastDirY^0,w,c
  4515   0000F0  B4D8               	btfsc	status,2,c
  4516   0000F2  0012               	return	
  4517                           
  4518                           ;TAD_DISPLAY.c: 101:                             SERIAL_PutString(0);
  4519   0000F4  0E00               	movlw	0
  4520   0000F6  EC94  F004         	call	_SERIAL_PutString
  4521                           
  4522                           ;TAD_DISPLAY.c: 102:                             lastDirY = 7;
  4523   0000FA  0E07               	movlw	7
  4524   0000FC  6E7A               	movwf	_lastDirY^0,c
  4525   0000FE  0012               	return	
  4526   000100                     l174:
  4527                           
  4528                           ;TAD_DISPLAY.c: 105:                         lastDirY = 0xFF;
  4529   000100  687A               	setf	_lastDirY^0,c
  4530   000102  0012               	return	
  4531   000104                     l2250:
  4532   000104  0E02               	movlw	2
  4533   000106  1831               	xorwf	_flagRebotes^0,w,c
  4534   000108  A4D8               	btfss	status,2,c
  4535   00010A  0012               	return	
  4536                           
  4537                           ;TAD_DISPLAY.c: 111:                 if(TI_GetTics(timerRebotes) >= 16){
  4538   00010C  5066               	movf	_timerRebotes^0,w,c
  4539   00010E  ECDA  F003         	call	_TI_GetTics
  4540   000112  506A               	movf	(?_TI_GetTics+3)^0,w,c
  4541   000114  1069               	iorwf	(?_TI_GetTics+2)^0,w,c
  4542   000116  1068               	iorwf	(?_TI_GetTics+1)^0,w,c
  4543   000118  E104               	bnz	u1380
  4544   00011A  0E10               	movlw	16
  4545   00011C  5C67               	subwf	?_TI_GetTics^0,w,c
  4546   00011E  A0D8               	btfss	status,0,c
  4547   000120  0012               	return	
  4548   000122                     u1380:
  4549                           
  4550                           ;TAD_DISPLAY.c: 112:                     if(!PORTBbits.RB2){
  4551   000122  B481               	btfsc	129,2,c	;volatile
  4552   000124  D006               	goto	l180
  4553                           
  4554                           ;TAD_DISPLAY.c: 114:                         SERIAL_PutString(4);
  4555   000126  0E04               	movlw	4
  4556   000128  EC94  F004         	call	_SERIAL_PutString
  4557                           
  4558                           ;TAD_DISPLAY.c: 115:                         flagRebotes = 1;
  4559   00012C  0E01               	movlw	1
  4560   00012E  6E31               	movwf	_flagRebotes^0,c
  4561   000130  D786               	goto	l2196
  4562   000132                     l180:
  4563                           
  4564                           ;TAD_DISPLAY.c: 120:                         flagRebotes = 0;
  4565   000132  6A31               	clrf	_flagRebotes^0,c
  4566                           
  4567                           ;TAD_DISPLAY.c: 121:                         estado = 0;
  4568   000134  6A30               	clrf	DSP_Motor@estado^0,c
  4569   000136  0012               	return	
  4570   000138                     l182:
  4571                           
  4572                           ;TAD_DISPLAY.c: 128:             if(PORTBbits.RB2){
  4573   000138  A481               	btfss	129,2,c	;volatile
  4574   00013A  0012               	return	
  4575                           
  4576                           ;TAD_DISPLAY.c: 129:                 TI_ResetTics(timerRebotes);
  4577   00013C  5066               	movf	_timerRebotes^0,w,c
  4578   00013E  EC71  F004         	call	_TI_ResetTics
  4579   000142  D77D               	goto	l2196
  4580   000144                     l2266:
  4581                           
  4582                           ;TAD_DISPLAY.c: 134:             if(TI_GetTics(timerRebotes) >= 16){
  4583   000144  5066               	movf	_timerRebotes^0,w,c
  4584   000146  ECDA  F003         	call	_TI_GetTics
  4585   00014A  506A               	movf	(?_TI_GetTics+3)^0,w,c
  4586   00014C  1069               	iorwf	(?_TI_GetTics+2)^0,w,c
  4587   00014E  1068               	iorwf	(?_TI_GetTics+1)^0,w,c
  4588   000150  E104               	bnz	u1410
  4589   000152  0E10               	movlw	16
  4590   000154  5C67               	subwf	?_TI_GetTics^0,w,c
  4591   000156  A0D8               	btfss	status,0,c
  4592   000158  0012               	return	
  4593   00015A                     u1410:
  4594                           
  4595                           ;TAD_DISPLAY.c: 135:                 if(PORTBbits.RB2){
  4596   00015A  B481               	btfsc	129,2,c	;volatile
  4597   00015C  D7EA               	goto	l180
  4598                           
  4599                           ;TAD_DISPLAY.c: 141:                     estado--;
  4600   00015E  0630               	decf	DSP_Motor@estado^0,f,c
  4601   000160  0012               	return	
  4602   000162                     l2276:
  4603   000162  5030               	movf	DSP_Motor@estado^0,w,c
  4604                           
  4605                           ; Switch size 1, requested type "simple"
  4606                           ; Number of cases is 5, Range of values is 0 to 4
  4607                           ; switch strategies available:
  4608                           ; Name         Instructions Cycles
  4609                           ; simple_byte           16     9 (average)
  4610                           ;	Chosen strategy is simple_byte
  4611   000164  0A00               	xorlw	0	; case 0
  4612   000166  B4D8               	btfsc	status,2,c
  4613   000168  D758               	goto	l2190
  4614   00016A  0A01               	xorlw	1	; case 1
  4615   00016C  B4D8               	btfsc	status,2,c
  4616   00016E  D769               	goto	l2198
  4617   000170  0A03               	xorlw	3	; case 2
  4618   000172  B4D8               	btfsc	status,2,c
  4619   000174  D77A               	goto	l2208
  4620   000176  0A01               	xorlw	1	; case 3
  4621   000178  B4D8               	btfsc	status,2,c
  4622   00017A  D7DE               	goto	l182
  4623   00017C  0A07               	xorlw	7	; case 4
  4624   00017E  A4D8               	btfss	status,2,c
  4625   000180  0012               	return	
  4626   000182  D7E0               	goto	l2266
  4627   000184                     __end_of_DSP_Motor:
  4628                           	callstack 0
  4629                           
  4630 ;; *************** function _TI_ResetTics *****************
  4631 ;; Defined at:
  4632 ;;		line 44 in file "TAD_TIMER.c"
  4633 ;; Parameters:    Size  Location     Type
  4634 ;;  TimerHandle     1    wreg     unsigned char 
  4635 ;; Auto vars:     Size  Location     Type
  4636 ;;  TimerHandle     1    0[COMRAM] unsigned char 
  4637 ;; Return value:  Size  Location     Type
  4638 ;;                  1    wreg      void 
  4639 ;; Registers used:
  4640 ;;		wreg, fsr2l, fsr2h, status,2, status,0, prodl, prodh
  4641 ;; Tracked objects:
  4642 ;;		On entry : 0/0
  4643 ;;		On exit  : 0/0
  4644 ;;		Unchanged: 0/0
  4645 ;; Data sizes:     COMRAM   BANK0   BANK1
  4646 ;;      Params:         0       0       0
  4647 ;;      Locals:         1       0       0
  4648 ;;      Temps:          0       0       0
  4649 ;;      Totals:         1       0       0
  4650 ;;Total ram usage:        1 bytes
  4651 ;; Hardware stack levels used: 1
  4652 ;; Hardware stack levels required when called: 2
  4653 ;; This function calls:
  4654 ;;		Nothing
  4655 ;; This function is called by:
  4656 ;;		_DSP_Motor
  4657 ;;		_HEARTBEAT_Motor
  4658 ;;		_putCharTime
  4659 ;;		_putCharEcho
  4660 ;;		_getCharTime
  4661 ;;		_STIME_Motor
  4662 ;; This function uses a non-reentrant model
  4663 ;;
  4664                           
  4665                           	psect	text20
  4666   0008E2                     __ptext20:
  4667                           	callstack 0
  4668   0008E2                     _TI_ResetTics:
  4669                           	callstack 26
  4670                           
  4671                           ;incstack = 0
  4672                           ;TI_ResetTics@TimerHandle stored from wreg
  4673   0008E2  6E67               	movwf	TI_ResetTics@TimerHandle^0,c
  4674                           
  4675                           ;TAD_TIMER.c: 45:  (INTCONbits.GIE = 0); Timers[TimerHandle].TicsInicials=Tics; (INTCONb
      +                          its.GIE = 1);
  4676   0008E4  9EF2               	bcf	242,7,c	;volatile
  4677   0008E6  5067               	movf	TI_ResetTics@TimerHandle^0,w,c
  4678   0008E8  0D05               	mullw	5
  4679   0008EA  50F3               	movf	243,w,c
  4680   0008EC  0F9E               	addlw	low _Timers
  4681   0008EE  6ED9               	movwf	fsr2l,c
  4682   0008F0  6ADA               	clrf	fsr2h,c
  4683   0008F2  C001  FFDE         	movff	_Tics,postinc2	;volatile
  4684   0008F6  C002  FFDE         	movff	_Tics+1,postinc2	;volatile
  4685   0008FA  C003  FFDE         	movff	_Tics+2,postinc2	;volatile
  4686   0008FE  C004  FFDE         	movff	_Tics+3,postinc2	;volatile
  4687   000902  8EF2               	bsf	242,7,c	;volatile
  4688   000904  0012               	return		;funcret
  4689   000906                     __end_of_TI_ResetTics:
  4690                           	callstack 0
  4691                           
  4692 ;; *************** function _TI_GetTics *****************
  4693 ;; Defined at:
  4694 ;;		line 49 in file "TAD_TIMER.c"
  4695 ;; Parameters:    Size  Location     Type
  4696 ;;  TimerHandle     1    wreg     unsigned char 
  4697 ;; Auto vars:     Size  Location     Type
  4698 ;;  TimerHandle     1   12[COMRAM] unsigned char 
  4699 ;;  CopiaTicsAct    4    8[COMRAM] unsigned long 
  4700 ;; Return value:  Size  Location     Type
  4701 ;;                  4    0[COMRAM] unsigned long 
  4702 ;; Registers used:
  4703 ;;		wreg, fsr2l, fsr2h, status,2, status,0, prodl, prodh
  4704 ;; Tracked objects:
  4705 ;;		On entry : 0/0
  4706 ;;		On exit  : 0/0
  4707 ;;		Unchanged: 0/0
  4708 ;; Data sizes:     COMRAM   BANK0   BANK1
  4709 ;;      Params:         4       0       0
  4710 ;;      Locals:         5       0       0
  4711 ;;      Temps:          4       0       0
  4712 ;;      Totals:        13       0       0
  4713 ;;Total ram usage:       13 bytes
  4714 ;; Hardware stack levels used: 1
  4715 ;; Hardware stack levels required when called: 2
  4716 ;; This function calls:
  4717 ;;		Nothing
  4718 ;; This function is called by:
  4719 ;;		_DSP_Motor
  4720 ;;		_HEARTBEAT_Motor
  4721 ;;		_putCharTime
  4722 ;;		_putCharEcho
  4723 ;;		_getCharTime
  4724 ;; This function uses a non-reentrant model
  4725 ;;
  4726                           
  4727                           	psect	text21
  4728   0007B4                     __ptext21:
  4729                           	callstack 0
  4730   0007B4                     _TI_GetTics:
  4731                           	callstack 26
  4732                           
  4733                           ;incstack = 0
  4734                           ;TI_GetTics@TimerHandle stored from wreg
  4735   0007B4  6E73               	movwf	TI_GetTics@TimerHandle^0,c
  4736                           
  4737                           ;TAD_TIMER.c: 50:     (INTCONbits.GIE = 0); unsigned long CopiaTicsActual=Tics; (INTCONb
      +                          its.GIE = 1);
  4738   0007B6  9EF2               	bcf	242,7,c	;volatile
  4739   0007B8  C001  F06F         	movff	_Tics,TI_GetTics@CopiaTicsActual	;volatile
  4740   0007BC  C002  F070         	movff	_Tics+1,TI_GetTics@CopiaTicsActual+1	;volatile
  4741   0007C0  C003  F071         	movff	_Tics+2,TI_GetTics@CopiaTicsActual+2	;volatile
  4742   0007C4  C004  F072         	movff	_Tics+3,TI_GetTics@CopiaTicsActual+3	;volatile
  4743   0007C8  8EF2               	bsf	242,7,c	;volatile
  4744                           
  4745                           ;TAD_TIMER.c: 51:  return (CopiaTicsActual-(Timers[TimerHandle].TicsInicials));
  4746   0007CA  5073               	movf	TI_GetTics@TimerHandle^0,w,c
  4747   0007CC  0D05               	mullw	5
  4748   0007CE  50F3               	movf	243,w,c
  4749   0007D0  0F9E               	addlw	low _Timers
  4750   0007D2  6ED9               	movwf	fsr2l,c
  4751   0007D4  6ADA               	clrf	fsr2h,c
  4752   0007D6  CFDE F06B          	movff	postinc2,??_TI_GetTics
  4753   0007DA  CFDE F06C          	movff	postinc2,??_TI_GetTics+1
  4754   0007DE  CFDE F06D          	movff	postinc2,??_TI_GetTics+2
  4755   0007E2  CFDE F06E          	movff	postinc2,??_TI_GetTics+3
  4756   0007E6  506B               	movf	??_TI_GetTics^0,w,c
  4757   0007E8  5C6F               	subwf	TI_GetTics@CopiaTicsActual^0,w,c
  4758   0007EA  6E67               	movwf	?_TI_GetTics^0,c
  4759   0007EC  506C               	movf	(??_TI_GetTics+1)^0,w,c
  4760   0007EE  5870               	subwfb	(TI_GetTics@CopiaTicsActual+1)^0,w,c
  4761   0007F0  6E68               	movwf	(?_TI_GetTics+1)^0,c
  4762   0007F2  506D               	movf	(??_TI_GetTics+2)^0,w,c
  4763   0007F4  5871               	subwfb	(TI_GetTics@CopiaTicsActual+2)^0,w,c
  4764   0007F6  6E69               	movwf	(?_TI_GetTics+2)^0,c
  4765   0007F8  506E               	movf	(??_TI_GetTics+3)^0,w,c
  4766   0007FA  5872               	subwfb	(TI_GetTics@CopiaTicsActual+3)^0,w,c
  4767   0007FC  6E6A               	movwf	(?_TI_GetTics+3)^0,c
  4768   0007FE  0012               	return		;funcret
  4769   000800                     __end_of_TI_GetTics:
  4770                           	callstack 0
  4771                           
  4772 ;; *************** function _SERIAL_PutString *****************
  4773 ;; Defined at:
  4774 ;;		line 80 in file "TAD_SERIAL.c"
  4775 ;; Parameters:    Size  Location     Type
  4776 ;;  s               1    wreg     unsigned char 
  4777 ;; Auto vars:     Size  Location     Type
  4778 ;;  s               1    0[COMRAM] unsigned char 
  4779 ;; Return value:  Size  Location     Type
  4780 ;;                  1    wreg      void 
  4781 ;; Registers used:
  4782 ;;		wreg, status,2, status,0, tblptrl, tblptrh, tblptru, prodl, prodh
  4783 ;; Tracked objects:
  4784 ;;		On entry : 0/0
  4785 ;;		On exit  : 0/0
  4786 ;;		Unchanged: 0/0
  4787 ;; Data sizes:     COMRAM   BANK0   BANK1
  4788 ;;      Params:         0       0       0
  4789 ;;      Locals:         1       0       0
  4790 ;;      Temps:          0       0       0
  4791 ;;      Totals:         1       0       0
  4792 ;;Total ram usage:        1 bytes
  4793 ;; Hardware stack levels used: 1
  4794 ;; Hardware stack levels required when called: 2
  4795 ;; This function calls:
  4796 ;;		Nothing
  4797 ;; This function is called by:
  4798 ;;		_DSP_Motor
  4799 ;; This function uses a non-reentrant model
  4800 ;;
  4801                           
  4802                           	psect	text22
  4803   000928                     __ptext22:
  4804                           	callstack 0
  4805   000928                     _SERIAL_PutString:
  4806                           	callstack 27
  4807                           
  4808                           ;incstack = 0
  4809                           ;SERIAL_PutString@s stored from wreg
  4810   000928  6E67               	movwf	SERIAL_PutString@s^0,c
  4811                           
  4812                           ;TAD_SERIAL.c: 81:     pTxFrase = frases[s];
  4813   00092A  5067               	movf	SERIAL_PutString@s^0,w,c
  4814   00092C  0D02               	mullw	2
  4815   00092E  0EFF               	movlw	low _frases
  4816   000930  24F3               	addwf	243,w,c
  4817   000932  6EF6               	movwf	tblptrl,c
  4818   000934  0E1E               	movlw	high _frases
  4819   000936  20F4               	addwfc	244,w,c
  4820   000938  6EF7               	movwf	tblptrh,c
  4821   00093A                     	if	0	;There are less than 3 active tblptr bytes
  4822   00093A                     	endif
  4823   00093A  0009               	tblrd		*+
  4824   00093C  CFF5 F007          	movff	tablat,_pTxFrase
  4825   000940  000A               	tblrd		*-
  4826   000942  CFF5 F008          	movff	tablat,_pTxFrase+1
  4827                           
  4828                           ;TAD_SERIAL.c: 82:     estado = 0;
  4829   000946  6A2E               	clrf	_estado^0,c
  4830   000948  0012               	return		;funcret
  4831   00094A                     __end_of_SERIAL_PutString:
  4832                           	callstack 0
  4833                           
  4834 ;; *************** function _ADC_GetY *****************
  4835 ;; Defined at:
  4836 ;;		line 33 in file "TAD_ADC.c"
  4837 ;; Parameters:    Size  Location     Type
  4838 ;;		None
  4839 ;; Auto vars:     Size  Location     Type
  4840 ;;		None
  4841 ;; Return value:  Size  Location     Type
  4842 ;;                  2    0[COMRAM] unsigned int 
  4843 ;; Registers used:
  4844 ;;		None
  4845 ;; Tracked objects:
  4846 ;;		On entry : 0/0
  4847 ;;		On exit  : 0/0
  4848 ;;		Unchanged: 0/0
  4849 ;; Data sizes:     COMRAM   BANK0   BANK1
  4850 ;;      Params:         2       0       0
  4851 ;;      Locals:         0       0       0
  4852 ;;      Temps:          0       0       0
  4853 ;;      Totals:         2       0       0
  4854 ;;Total ram usage:        2 bytes
  4855 ;; Hardware stack levels used: 1
  4856 ;; Hardware stack levels required when called: 2
  4857 ;; This function calls:
  4858 ;;		Nothing
  4859 ;; This function is called by:
  4860 ;;		_DSP_Motor
  4861 ;; This function uses a non-reentrant model
  4862 ;;
  4863                           
  4864                           	psect	text23
  4865   000A32                     __ptext23:
  4866                           	callstack 0
  4867   000A32                     _ADC_GetY:
  4868                           	callstack 27
  4869                           
  4870                           ;TAD_ADC.c: 34:     return valueY;
  4871                           
  4872                           ;incstack = 0
  4873   000A32  C00F  F067         	movff	_valueY,?_ADC_GetY
  4874   000A36  C010  F068         	movff	_valueY+1,?_ADC_GetY+1
  4875   000A3A  0012               	return		;funcret
  4876   000A3C                     __end_of_ADC_GetY:
  4877                           	callstack 0
  4878                           
  4879 ;; *************** function _ADC_GetX *****************
  4880 ;; Defined at:
  4881 ;;		line 29 in file "TAD_ADC.c"
  4882 ;; Parameters:    Size  Location     Type
  4883 ;;		None
  4884 ;; Auto vars:     Size  Location     Type
  4885 ;;		None
  4886 ;; Return value:  Size  Location     Type
  4887 ;;                  2    0[COMRAM] unsigned int 
  4888 ;; Registers used:
  4889 ;;		None
  4890 ;; Tracked objects:
  4891 ;;		On entry : 0/0
  4892 ;;		On exit  : 0/0
  4893 ;;		Unchanged: 0/0
  4894 ;; Data sizes:     COMRAM   BANK0   BANK1
  4895 ;;      Params:         2       0       0
  4896 ;;      Locals:         0       0       0
  4897 ;;      Temps:          0       0       0
  4898 ;;      Totals:         2       0       0
  4899 ;;Total ram usage:        2 bytes
  4900 ;; Hardware stack levels used: 1
  4901 ;; Hardware stack levels required when called: 2
  4902 ;; This function calls:
  4903 ;;		Nothing
  4904 ;; This function is called by:
  4905 ;;		_DSP_Motor
  4906 ;; This function uses a non-reentrant model
  4907 ;;
  4908                           
  4909                           	psect	text24
  4910   000A3C                     __ptext24:
  4911                           	callstack 0
  4912   000A3C                     _ADC_GetX:
  4913                           	callstack 27
  4914                           
  4915                           ;TAD_ADC.c: 30:     return valueX;
  4916                           
  4917                           ;incstack = 0
  4918   000A3C  C011  F067         	movff	_valueX,?_ADC_GetX
  4919   000A40  C012  F068         	movff	_valueX+1,?_ADC_GetX+1
  4920   000A44  0012               	return		;funcret
  4921   000A46                     __end_of_ADC_GetX:
  4922                           	callstack 0
  4923                           
  4924 ;; *************** function _ADC_ExistValue *****************
  4925 ;; Defined at:
  4926 ;;		line 17 in file "TAD_ADC.c"
  4927 ;; Parameters:    Size  Location     Type
  4928 ;;		None
  4929 ;; Auto vars:     Size  Location     Type
  4930 ;;		None
  4931 ;; Return value:  Size  Location     Type
  4932 ;;                  1    wreg      unsigned char 
  4933 ;; Registers used:
  4934 ;;		wreg, status,2, status,0
  4935 ;; Tracked objects:
  4936 ;;		On entry : 0/0
  4937 ;;		On exit  : 0/0
  4938 ;;		Unchanged: 0/0
  4939 ;; Data sizes:     COMRAM   BANK0   BANK1
  4940 ;;      Params:         0       0       0
  4941 ;;      Locals:         0       0       0
  4942 ;;      Temps:          0       0       0
  4943 ;;      Totals:         0       0       0
  4944 ;;Total ram usage:        0 bytes
  4945 ;; Hardware stack levels used: 1
  4946 ;; Hardware stack levels required when called: 2
  4947 ;; This function calls:
  4948 ;;		Nothing
  4949 ;; This function is called by:
  4950 ;;		_DSP_Motor
  4951 ;; This function uses a non-reentrant model
  4952 ;;
  4953                           
  4954                           	psect	text25
  4955   000A04                     __ptext25:
  4956                           	callstack 0
  4957   000A04                     _ADC_ExistValue:
  4958                           	callstack 27
  4959                           
  4960                           ;TAD_ADC.c: 18:     return dataReady == 1;
  4961                           
  4962                           ;incstack = 0
  4963   000A04  0433               	decf	_dataReady^0,w,c
  4964   000A06  A4D8               	btfss	status,2,c
  4965   000A08  D002               	goto	u10
  4966   000A0A  0E01               	movlw	1
  4967   000A0C  0012               	return	
  4968   000A0E                     u10:
  4969   000A0E  0E00               	movlw	0
  4970   000A10  0012               	return		;funcret
  4971   000A12                     __end_of_ADC_ExistValue:
  4972                           	callstack 0
  4973                           
  4974 ;; *************** function _DSP_Init *****************
  4975 ;; Defined at:
  4976 ;;		line 26 in file "TAD_DISPLAY.c"
  4977 ;; Parameters:    Size  Location     Type
  4978 ;;		None
  4979 ;; Auto vars:     Size  Location     Type
  4980 ;;		None
  4981 ;; Return value:  Size  Location     Type
  4982 ;;                  1    wreg      void 
  4983 ;; Registers used:
  4984 ;;		wreg, fsr2l, fsr2h, status,2, status,0, prodl, prodh, cstack
  4985 ;; Tracked objects:
  4986 ;;		On entry : 0/0
  4987 ;;		On exit  : 0/0
  4988 ;;		Unchanged: 0/0
  4989 ;; Data sizes:     COMRAM   BANK0   BANK1
  4990 ;;      Params:         0       0       0
  4991 ;;      Locals:         0       0       0
  4992 ;;      Temps:          0       0       0
  4993 ;;      Totals:         0       0       0
  4994 ;;Total ram usage:        0 bytes
  4995 ;; Hardware stack levels used: 1
  4996 ;; Hardware stack levels required when called: 3
  4997 ;; This function calls:
  4998 ;;		_TI_NewTimer
  4999 ;; This function is called by:
  5000 ;;		_main
  5001 ;; This function uses a non-reentrant model
  5002 ;;
  5003                           
  5004                           	psect	text26
  5005   00099E                     __ptext26:
  5006                           	callstack 0
  5007   00099E                     _DSP_Init:
  5008                           	callstack 27
  5009                           
  5010                           ;TAD_DISPLAY.c: 27:     valorX = 0;
  5011                           
  5012                           ;incstack = 0
  5013   00099E  0E00               	movlw	0
  5014   0009A0  6E0C               	movwf	(_valorX+1)^0,c
  5015   0009A2  0E00               	movlw	0
  5016   0009A4  6E0B               	movwf	_valorX^0,c
  5017                           
  5018                           ;TAD_DISPLAY.c: 28:     valorY = 0;
  5019   0009A6  0E00               	movlw	0
  5020   0009A8  6E0A               	movwf	(_valorY+1)^0,c
  5021   0009AA  0E00               	movlw	0
  5022   0009AC  6E09               	movwf	_valorY^0,c
  5023                           
  5024                           ;TAD_DISPLAY.c: 29:     TI_NewTimer(&timerRebotes);
  5025   0009AE  0E66               	movlw	low _timerRebotes
  5026   0009B0  6E67               	movwf	TI_NewTimer@TimerHandle^0,c
  5027   0009B2  EC23  F004         	call	_TI_NewTimer	;wreg free
  5028   0009B6  0012               	return		;funcret
  5029   0009B8                     __end_of_DSP_Init:
  5030                           	callstack 0
  5031                           
  5032 ;; *************** function _TI_NewTimer *****************
  5033 ;; Defined at:
  5034 ;;		line 34 in file "TAD_TIMER.c"
  5035 ;; Parameters:    Size  Location     Type
  5036 ;;  TimerHandle     1    0[COMRAM] PTR unsigned char 
  5037 ;;		 -> t_siot_rx(1), t_siot(1), timerDutyCycle(1), timerLDR(1), 
  5038 ;;		 -> timerRebotes(1), 
  5039 ;; Auto vars:     Size  Location     Type
  5040 ;;  Comptador       1    2[COMRAM] unsigned char 
  5041 ;; Return value:  Size  Location     Type
  5042 ;;                  1    wreg      unsigned char 
  5043 ;; Registers used:
  5044 ;;		wreg, fsr2l, fsr2h, status,2, status,0, prodl, prodh
  5045 ;; Tracked objects:
  5046 ;;		On entry : 0/0
  5047 ;;		On exit  : 0/0
  5048 ;;		Unchanged: 0/0
  5049 ;; Data sizes:     COMRAM   BANK0   BANK1
  5050 ;;      Params:         1       0       0
  5051 ;;      Locals:         1       0       0
  5052 ;;      Temps:          1       0       0
  5053 ;;      Totals:         3       0       0
  5054 ;;Total ram usage:        3 bytes
  5055 ;; Hardware stack levels used: 1
  5056 ;; Hardware stack levels required when called: 2
  5057 ;; This function calls:
  5058 ;;		Nothing
  5059 ;; This function is called by:
  5060 ;;		_DSP_Init
  5061 ;;		_LDR_Init
  5062 ;;		_HREATBEAT_Init
  5063 ;;		_STIME_Init
  5064 ;; This function uses a non-reentrant model
  5065 ;;
  5066                           
  5067                           	psect	text27
  5068   000846                     __ptext27:
  5069                           	callstack 0
  5070   000846                     _TI_NewTimer:
  5071                           	callstack 27
  5072                           
  5073                           ;TAD_TIMER.c: 35:  unsigned char Comptador=0;
  5074                           
  5075                           ;incstack = 0
  5076   000846  6A69               	clrf	TI_NewTimer@Comptador^0,c
  5077                           
  5078                           ;TAD_TIMER.c: 36:  while (Timers[Comptador].Busy==1) {
  5079   000848  D005               	goto	l1948
  5080   00084A                     l1944:
  5081                           
  5082                           ;TAD_TIMER.c: 37:   if (++Comptador == 5) return (0);
  5083   00084A  2A69               	incf	TI_NewTimer@Comptador^0,f,c
  5084   00084C  0E05               	movlw	5
  5085   00084E  1869               	xorwf	TI_NewTimer@Comptador^0,w,c
  5086   000850  B4D8               	btfsc	status,2,c
  5087   000852  0012               	return	
  5088   000854                     l1948:
  5089                           
  5090                           ;TAD_TIMER.c: 36:  while (Timers[Comptador].Busy==1) {
  5091   000854  5069               	movf	TI_NewTimer@Comptador^0,w,c
  5092   000856  0D05               	mullw	5
  5093   000858  50F3               	movf	243,w,c
  5094   00085A  0FA2               	addlw	low (_Timers+4)
  5095   00085C  6ED9               	movwf	fsr2l,c
  5096   00085E  6ADA               	clrf	fsr2h,c
  5097   000860  04DE               	decf	postinc2,w,c
  5098   000862  B4D8               	btfsc	status,2,c
  5099   000864  D7F2               	goto	l1944
  5100                           
  5101                           ;TAD_TIMER.c: 39:  Timers[Comptador].Busy=1;
  5102   000866  5069               	movf	TI_NewTimer@Comptador^0,w,c
  5103   000868  0D05               	mullw	5
  5104   00086A  50F3               	movf	243,w,c
  5105   00086C  0FA2               	addlw	low (_Timers+4)
  5106   00086E  6ED9               	movwf	fsr2l,c
  5107   000870  6ADA               	clrf	fsr2h,c
  5108   000872  0E01               	movlw	1
  5109   000874  6EDF               	movwf	indf2,c
  5110                           
  5111                           ;TAD_TIMER.c: 40:  *TimerHandle=Comptador;
  5112   000876  5067               	movf	TI_NewTimer@TimerHandle^0,w,c
  5113   000878  6ED9               	movwf	fsr2l,c
  5114   00087A  6ADA               	clrf	fsr2h,c
  5115   00087C  C069  FFDF         	movff	TI_NewTimer@Comptador,indf2
  5116   000880  0012               	return		;funcret
  5117   000882                     __end_of_TI_NewTimer:
  5118                           	callstack 0
  5119                           
  5120 ;; *************** function _ADC_Motor *****************
  5121 ;; Defined at:
  5122 ;;		line 52 in file "TAD_ADC.c"
  5123 ;; Parameters:    Size  Location     Type
  5124 ;;		None
  5125 ;; Auto vars:     Size  Location     Type
  5126 ;;		None
  5127 ;; Return value:  Size  Location     Type
  5128 ;;                  1    wreg      void 
  5129 ;; Registers used:
  5130 ;;		wreg, status,2, status,0, cstack
  5131 ;; Tracked objects:
  5132 ;;		On entry : 0/0
  5133 ;;		On exit  : 0/0
  5134 ;;		Unchanged: 0/0
  5135 ;; Data sizes:     COMRAM   BANK0   BANK1
  5136 ;;      Params:         0       0       0
  5137 ;;      Locals:         0       0       0
  5138 ;;      Temps:          2       0       0
  5139 ;;      Totals:         2       0       0
  5140 ;;Total ram usage:        2 bytes
  5141 ;; Hardware stack levels used: 1
  5142 ;; Hardware stack levels required when called: 3
  5143 ;; This function calls:
  5144 ;;		_ADC_Finished
  5145 ;;		_ADC_Start
  5146 ;; This function is called by:
  5147 ;;		_main
  5148 ;; This function uses a non-reentrant model
  5149 ;;
  5150                           
  5151                           	psect	text28
  5152   0005EC                     __ptext28:
  5153                           	callstack 0
  5154   0005EC                     _ADC_Motor:
  5155                           	callstack 27
  5156                           
  5157                           ;TAD_ADC.c: 53:     switch(estat){
  5158                           
  5159                           ;incstack = 0
  5160   0005EC  D040               	goto	l1640
  5161   0005EE                     l103:
  5162                           
  5163                           ;TAD_ADC.c: 55:             ADCON0bits.CHS3 = 0;
  5164   0005EE  9AC2               	bcf	194,5,c	;volatile
  5165                           
  5166                           ;TAD_ADC.c: 56:             ADCON0bits.CHS2 = 0;
  5167   0005F0  98C2               	bcf	194,4,c	;volatile
  5168                           
  5169                           ;TAD_ADC.c: 57:             ADCON0bits.CHS1 = 0;
  5170   0005F2  96C2               	bcf	194,3,c	;volatile
  5171                           
  5172                           ;TAD_ADC.c: 58:             ADCON0bits.CHS0 = 0;
  5173   0005F4  94C2               	bcf	194,2,c	;volatile
  5174   0005F6                     l1604:
  5175                           
  5176                           ;TAD_ADC.c: 59:             estat++;
  5177   0005F6  2A34               	incf	_estat^0,f,c
  5178                           
  5179                           ;TAD_ADC.c: 60:             dataReady = 0;
  5180   0005F8  6A33               	clrf	_dataReady^0,c
  5181                           
  5182                           ;TAD_ADC.c: 61:             ADC_Start();
  5183   0005FA  EC2C  F005         	call	_ADC_Start	;wreg free
  5184                           
  5185                           ;TAD_ADC.c: 62:             break;
  5186   0005FE  0012               	return	
  5187   000600                     l1610:
  5188                           
  5189                           ;TAD_ADC.c: 64:             if(ADC_Finished()){
  5190   000600  EC09  F005         	call	_ADC_Finished	;wreg free
  5191   000604  0900               	iorlw	0
  5192   000606  B4D8               	btfsc	status,2,c
  5193   000608  0012               	return	
  5194                           
  5195                           ;TAD_ADC.c: 65:                 valueX = ((unsigned int)ADRESH * 256) | ADRESL;
  5196   00060A  50C4               	movf	196,w,c	;volatile
  5197   00060C  6E67               	movwf	??_ADC_Motor^0,c
  5198   00060E  50C3               	movf	195,w,c	;volatile
  5199   000610  6E11               	movwf	_valueX^0,c
  5200   000612  C067  F012         	movff	??_ADC_Motor,_valueX+1
  5201   000616                     l1614:
  5202                           
  5203                           ;TAD_ADC.c: 67:                 estat++;
  5204   000616  2A34               	incf	_estat^0,f,c
  5205   000618  0012               	return	
  5206   00061A                     l107:
  5207                           
  5208                           ;TAD_ADC.c: 71:             ADCON0bits.CHS3 = 0;
  5209   00061A  9AC2               	bcf	194,5,c	;volatile
  5210                           
  5211                           ;TAD_ADC.c: 72:             ADCON0bits.CHS2 = 0;
  5212   00061C  98C2               	bcf	194,4,c	;volatile
  5213                           
  5214                           ;TAD_ADC.c: 73:             ADCON0bits.CHS1 = 0;
  5215   00061E  96C2               	bcf	194,3,c	;volatile
  5216                           
  5217                           ;TAD_ADC.c: 74:             ADCON0bits.CHS0 = 1;
  5218   000620  84C2               	bsf	194,2,c	;volatile
  5219   000622  D7E9               	goto	l1604
  5220   000624                     l1622:
  5221                           
  5222                           ;TAD_ADC.c: 80:             if(ADC_Finished()){
  5223   000624  EC09  F005         	call	_ADC_Finished	;wreg free
  5224   000628  0900               	iorlw	0
  5225   00062A  B4D8               	btfsc	status,2,c
  5226   00062C  0012               	return	
  5227                           
  5228                           ;TAD_ADC.c: 81:                 valueY = ((unsigned int)ADRESH * 256) | ADRESL;
  5229   00062E  50C4               	movf	196,w,c	;volatile
  5230   000630  6E67               	movwf	??_ADC_Motor^0,c
  5231   000632  50C3               	movf	195,w,c	;volatile
  5232   000634  6E0F               	movwf	_valueY^0,c
  5233   000636  C067  F010         	movff	??_ADC_Motor,_valueY+1
  5234                           
  5235                           ;TAD_ADC.c: 83:                 dataReady = 1;
  5236   00063A  0E01               	movlw	1
  5237   00063C  6E33               	movwf	_dataReady^0,c
  5238   00063E  D7EB               	goto	l1614
  5239   000640                     l110:
  5240                           
  5241                           ;TAD_ADC.c: 88:             ADCON0bits.CHS3 = 0;
  5242   000640  9AC2               	bcf	194,5,c	;volatile
  5243                           
  5244                           ;TAD_ADC.c: 89:             ADCON0bits.CHS2 = 0;
  5245   000642  98C2               	bcf	194,4,c	;volatile
  5246                           
  5247                           ;TAD_ADC.c: 90:             ADCON0bits.CHS1 = 1;
  5248   000644  86C2               	bsf	194,3,c	;volatile
  5249                           
  5250                           ;TAD_ADC.c: 91:             ADCON0bits.CHS0 = 0;
  5251   000646  94C2               	bcf	194,2,c	;volatile
  5252                           
  5253                           ;TAD_ADC.c: 92:             dataReadyLDR = 0;
  5254   000648  6A32               	clrf	_dataReadyLDR^0,c
  5255                           
  5256                           ;TAD_ADC.c: 93:             ADC_Start();
  5257   00064A  EC2C  F005         	call	_ADC_Start	;wreg free
  5258   00064E  D7E3               	goto	l1614
  5259   000650                     l1632:
  5260                           
  5261                           ;TAD_ADC.c: 97:             if(ADC_Finished()){
  5262   000650  EC09  F005         	call	_ADC_Finished	;wreg free
  5263   000654  0900               	iorlw	0
  5264   000656  B4D8               	btfsc	status,2,c
  5265   000658  0012               	return	
  5266                           
  5267                           ;TAD_ADC.c: 98:                 valueLDR = ((unsigned int)ADRESH * 256) | ADRESL;
  5268   00065A  50C4               	movf	196,w,c	;volatile
  5269   00065C  6E67               	movwf	??_ADC_Motor^0,c
  5270   00065E  50C3               	movf	195,w,c	;volatile
  5271   000660  6E0D               	movwf	_valueLDR^0,c
  5272   000662  C067  F00E         	movff	??_ADC_Motor,_valueLDR+1
  5273                           
  5274                           ;TAD_ADC.c: 99:                 dataReadyLDR = 1;
  5275   000666  0E01               	movlw	1
  5276   000668  6E32               	movwf	_dataReadyLDR^0,c
  5277                           
  5278                           ;TAD_ADC.c: 100:                 estat = 0;
  5279   00066A  6A34               	clrf	_estat^0,c
  5280   00066C  0012               	return	
  5281   00066E                     l1640:
  5282   00066E  5034               	movf	_estat^0,w,c
  5283                           
  5284                           ; Switch size 1, requested type "simple"
  5285                           ; Number of cases is 6, Range of values is 0 to 5
  5286                           ; switch strategies available:
  5287                           ; Name         Instructions Cycles
  5288                           ; simple_byte           19    10 (average)
  5289                           ;	Chosen strategy is simple_byte
  5290   000670  0A00               	xorlw	0	; case 0
  5291   000672  B4D8               	btfsc	status,2,c
  5292   000674  D7BC               	goto	l103
  5293   000676  0A01               	xorlw	1	; case 1
  5294   000678  B4D8               	btfsc	status,2,c
  5295   00067A  D7C2               	goto	l1610
  5296   00067C  0A03               	xorlw	3	; case 2
  5297   00067E  B4D8               	btfsc	status,2,c
  5298   000680  D7CC               	goto	l107
  5299   000682  0A01               	xorlw	1	; case 3
  5300   000684  B4D8               	btfsc	status,2,c
  5301   000686  D7CE               	goto	l1622
  5302   000688  0A07               	xorlw	7	; case 4
  5303   00068A  B4D8               	btfsc	status,2,c
  5304   00068C  D7D9               	goto	l110
  5305   00068E  0A01               	xorlw	1	; case 5
  5306   000690  A4D8               	btfss	status,2,c
  5307   000692  0012               	return	
  5308   000694  D7DD               	goto	l1632
  5309   000696                     __end_of_ADC_Motor:
  5310                           	callstack 0
  5311                           
  5312 ;; *************** function _ADC_Start *****************
  5313 ;; Defined at:
  5314 ;;		line 37 in file "TAD_ADC.c"
  5315 ;; Parameters:    Size  Location     Type
  5316 ;;		None
  5317 ;; Auto vars:     Size  Location     Type
  5318 ;;		None
  5319 ;; Return value:  Size  Location     Type
  5320 ;;                  1    wreg      void 
  5321 ;; Registers used:
  5322 ;;		None
  5323 ;; Tracked objects:
  5324 ;;		On entry : 0/0
  5325 ;;		On exit  : 0/0
  5326 ;;		Unchanged: 0/0
  5327 ;; Data sizes:     COMRAM   BANK0   BANK1
  5328 ;;      Params:         0       0       0
  5329 ;;      Locals:         0       0       0
  5330 ;;      Temps:          0       0       0
  5331 ;;      Totals:         0       0       0
  5332 ;;Total ram usage:        0 bytes
  5333 ;; Hardware stack levels used: 1
  5334 ;; Hardware stack levels required when called: 2
  5335 ;; This function calls:
  5336 ;;		Nothing
  5337 ;; This function is called by:
  5338 ;;		_ADC_Motor
  5339 ;; This function uses a non-reentrant model
  5340 ;;
  5341                           
  5342                           	psect	text29
  5343   000A58                     __ptext29:
  5344                           	callstack 0
  5345   000A58                     _ADC_Start:
  5346                           	callstack 27
  5347                           
  5348                           ;TAD_ADC.c: 38:     ADCON0bits.GO_DONE = 1;
  5349                           
  5350                           ;incstack = 0
  5351   000A58  82C2               	bsf	194,1,c	;volatile
  5352   000A5A  0012               	return		;funcret
  5353   000A5C                     __end_of_ADC_Start:
  5354                           	callstack 0
  5355                           
  5356 ;; *************** function _ADC_Finished *****************
  5357 ;; Defined at:
  5358 ;;		line 41 in file "TAD_ADC.c"
  5359 ;; Parameters:    Size  Location     Type
  5360 ;;		None
  5361 ;; Auto vars:     Size  Location     Type
  5362 ;;		None
  5363 ;; Return value:  Size  Location     Type
  5364 ;;                  1    wreg      unsigned char 
  5365 ;; Registers used:
  5366 ;;		wreg
  5367 ;; Tracked objects:
  5368 ;;		On entry : 0/0
  5369 ;;		On exit  : 0/0
  5370 ;;		Unchanged: 0/0
  5371 ;; Data sizes:     COMRAM   BANK0   BANK1
  5372 ;;      Params:         0       0       0
  5373 ;;      Locals:         0       0       0
  5374 ;;      Temps:          0       0       0
  5375 ;;      Totals:         0       0       0
  5376 ;;Total ram usage:        0 bytes
  5377 ;; Hardware stack levels used: 1
  5378 ;; Hardware stack levels required when called: 2
  5379 ;; This function calls:
  5380 ;;		Nothing
  5381 ;; This function is called by:
  5382 ;;		_ADC_Motor
  5383 ;; This function uses a non-reentrant model
  5384 ;;
  5385                           
  5386                           	psect	text30
  5387   000A12                     __ptext30:
  5388                           	callstack 0
  5389   000A12                     _ADC_Finished:
  5390                           	callstack 27
  5391                           
  5392                           ;TAD_ADC.c: 42:     return !ADCON0bits.GO_DONE;
  5393                           
  5394                           ;incstack = 0
  5395   000A12  B2C2               	btfsc	194,1,c	;volatile
  5396   000A14  D002               	goto	u30
  5397   000A16  0E01               	movlw	1
  5398   000A18  0012               	return	
  5399   000A1A                     u30:
  5400   000A1A  0E00               	movlw	0
  5401   000A1C  0012               	return		;funcret
  5402   000A1E                     __end_of_ADC_Finished:
  5403                           	callstack 0
  5404                           
  5405 ;; *************** function _ADC_Init *****************
  5406 ;; Defined at:
  5407 ;;		line 11 in file "TAD_ADC.c"
  5408 ;; Parameters:    Size  Location     Type
  5409 ;;		None
  5410 ;; Auto vars:     Size  Location     Type
  5411 ;;		None
  5412 ;; Return value:  Size  Location     Type
  5413 ;;                  1    wreg      void 
  5414 ;; Registers used:
  5415 ;;		wreg, status,2
  5416 ;; Tracked objects:
  5417 ;;		On entry : 0/0
  5418 ;;		On exit  : 0/0
  5419 ;;		Unchanged: 0/0
  5420 ;; Data sizes:     COMRAM   BANK0   BANK1
  5421 ;;      Params:         0       0       0
  5422 ;;      Locals:         0       0       0
  5423 ;;      Temps:          0       0       0
  5424 ;;      Totals:         0       0       0
  5425 ;;Total ram usage:        0 bytes
  5426 ;; Hardware stack levels used: 1
  5427 ;; Hardware stack levels required when called: 2
  5428 ;; This function calls:
  5429 ;;		Nothing
  5430 ;; This function is called by:
  5431 ;;		_main
  5432 ;; This function uses a non-reentrant model
  5433 ;;
  5434                           
  5435                           	psect	text31
  5436   0009D0                     __ptext31:
  5437                           	callstack 0
  5438   0009D0                     _ADC_Init:
  5439                           	callstack 28
  5440                           
  5441                           ;TAD_ADC.c: 12:     estat = 0;
  5442                           
  5443                           ;incstack = 0
  5444   0009D0  6A34               	clrf	_estat^0,c
  5445                           
  5446                           ;TAD_ADC.c: 13:     valueX = 0;
  5447   0009D2  0E00               	movlw	0
  5448   0009D4  6E12               	movwf	(_valueX+1)^0,c
  5449   0009D6  0E00               	movlw	0
  5450   0009D8  6E11               	movwf	_valueX^0,c
  5451                           
  5452                           ;TAD_ADC.c: 14:     valueY = 0;
  5453   0009DA  0E00               	movlw	0
  5454   0009DC  6E10               	movwf	(_valueY+1)^0,c
  5455   0009DE  0E00               	movlw	0
  5456   0009E0  6E0F               	movwf	_valueY^0,c
  5457   0009E2  0012               	return		;funcret
  5458   0009E4                     __end_of_ADC_Init:
  5459                           	callstack 0
  5460                           
  5461 ;; *************** function _MyRSI *****************
  5462 ;; Defined at:
  5463 ;;		line 23 in file "main.c"
  5464 ;; Parameters:    Size  Location     Type
  5465 ;;		None
  5466 ;; Auto vars:     Size  Location     Type
  5467 ;;		None
  5468 ;; Return value:  Size  Location     Type
  5469 ;;                  1    wreg      void 
  5470 ;; Registers used:
  5471 ;;		wreg, status,2, status,0, cstack
  5472 ;; Tracked objects:
  5473 ;;		On entry : 0/0
  5474 ;;		On exit  : 0/0
  5475 ;;		Unchanged: 0/0
  5476 ;; Data sizes:     COMRAM   BANK0   BANK1
  5477 ;;      Params:         0       0       0
  5478 ;;      Locals:         0       0       0
  5479 ;;      Temps:          0       0       0
  5480 ;;      Totals:         0       0       0
  5481 ;;Total ram usage:        0 bytes
  5482 ;; Hardware stack levels used: 1
  5483 ;; Hardware stack levels required when called: 1
  5484 ;; This function calls:
  5485 ;;		_RSI_Timer0
  5486 ;; This function is called by:
  5487 ;;		Interrupt level 2
  5488 ;; This function uses a non-reentrant model
  5489 ;;
  5490                           
  5491                           	psect	intcode
  5492   000008                     __pintcode:
  5493                           	callstack 0
  5494   000008                     _MyRSI:
  5495                           	callstack 26
  5496                           
  5497                           ;incstack = 0
  5498   000008  827C               	bsf	btemp,1,c	;set compiler interrupt flag (level 2)
  5499                           
  5500                           ;main.c: 24:     initPorts();
  5501   00000A  B4F2               	btfsc	4082,2,c	;volatile
  5502                           
  5503                           ;main.c: 25:     TI_Init();
  5504   00000C  ECDC  F004         	call	_RSI_Timer0	;wreg free
  5505   000010  927C               	bcf	btemp,1,c	;clear compiler interrupt flag (level 2)
  5506   000012  0011               	retfie		f
  5507   000014                     __end_of_MyRSI:
  5508                           	callstack 0
  5509                           
  5510 ;; *************** function _RSI_Timer0 *****************
  5511 ;; Defined at:
  5512 ;;		line 18 in file "TAD_TIMER.c"
  5513 ;; Parameters:    Size  Location     Type
  5514 ;;		None
  5515 ;; Auto vars:     Size  Location     Type
  5516 ;;		None
  5517 ;; Return value:  Size  Location     Type
  5518 ;;                  1    wreg      void 
  5519 ;; Registers used:
  5520 ;;		wreg, status,2, status,0
  5521 ;; Tracked objects:
  5522 ;;		On entry : 0/0
  5523 ;;		On exit  : 0/0
  5524 ;;		Unchanged: 0/0
  5525 ;; Data sizes:     COMRAM   BANK0   BANK1
  5526 ;;      Params:         0       0       0
  5527 ;;      Locals:         0       0       0
  5528 ;;      Temps:          0       0       0
  5529 ;;      Totals:         0       0       0
  5530 ;;Total ram usage:        0 bytes
  5531 ;; Hardware stack levels used: 1
  5532 ;; This function calls:
  5533 ;;		Nothing
  5534 ;; This function is called by:
  5535 ;;		_MyRSI
  5536 ;; This function uses a non-reentrant model
  5537 ;;
  5538                           
  5539                           	psect	text33
  5540   0009B8                     __ptext33:
  5541                           	callstack 0
  5542   0009B8                     _RSI_Timer0:
  5543                           	callstack 26
  5544                           
  5545                           ;TAD_TIMER.c: 19:     TMR0=65224;
  5546                           
  5547                           ;incstack = 0
  5548   0009B8  0EFE               	movlw	254
  5549   0009BA  6ED7               	movwf	215,c	;volatile
  5550   0009BC  0EC8               	movlw	200
  5551   0009BE  6ED6               	movwf	214,c	;volatile
  5552                           
  5553                           ;TAD_TIMER.c: 20:     TMR0IF=0;
  5554   0009C0  94F2               	bcf	4082,2,c	;volatile
  5555                           
  5556                           ;TAD_TIMER.c: 21:     Tics++;
  5557   0009C2  0E01               	movlw	1
  5558   0009C4  2601               	addwf	_Tics^0,f,c	;volatile
  5559   0009C6  0E00               	movlw	0
  5560   0009C8  2202               	addwfc	(_Tics+1)^0,f,c	;volatile
  5561   0009CA  2203               	addwfc	(_Tics+2)^0,f,c	;volatile
  5562   0009CC  2204               	addwfc	(_Tics+3)^0,f,c	;volatile
  5563   0009CE  0012               	return		;funcret
  5564   0009D0                     __end_of_RSI_Timer0:
  5565                           	callstack 0
  5566                           
  5567                           	psect	rparam
  5568   000001                     ___rparam_used  equ	1
  5569   000000                     ___param_bank   equ	0
  5570   000000                     __Lparam        equ	__Lrparam
  5571   000000                     __Hparam        equ	__Hrparam
  5572                           
  5573                           	psect	temp
  5574   00007C                     btemp:
  5575                           	callstack 0
  5576   00007C                     	ds	1
  5577   00007C                     int$flags       set	btemp
  5578   00007D                     wtemp8          set	btemp+1
  5579   00007D                     ttemp5          set	btemp+1
  5580   000080                     ttemp6          set	btemp+4
  5581   000084                     ttemp7          set	btemp+8
  5582                           
  5583                           	psect	idloc
  5584                           
  5585                           ;Config register IDLOC0 @ 0x200000
  5586                           ;	unspecified, using default values
  5587   200000                     	org	2097152
  5588   200000  FF                 	db	255
  5589                           
  5590                           ;Config register IDLOC1 @ 0x200001
  5591                           ;	unspecified, using default values
  5592   200001                     	org	2097153
  5593   200001  FF                 	db	255
  5594                           
  5595                           ;Config register IDLOC2 @ 0x200002
  5596                           ;	unspecified, using default values
  5597   200002                     	org	2097154
  5598   200002  FF                 	db	255
  5599                           
  5600                           ;Config register IDLOC3 @ 0x200003
  5601                           ;	unspecified, using default values
  5602   200003                     	org	2097155
  5603   200003  FF                 	db	255
  5604                           
  5605                           ;Config register IDLOC4 @ 0x200004
  5606                           ;	unspecified, using default values
  5607   200004                     	org	2097156
  5608   200004  FF                 	db	255
  5609                           
  5610                           ;Config register IDLOC5 @ 0x200005
  5611                           ;	unspecified, using default values
  5612   200005                     	org	2097157
  5613   200005  FF                 	db	255
  5614                           
  5615                           ;Config register IDLOC6 @ 0x200006
  5616                           ;	unspecified, using default values
  5617   200006                     	org	2097158
  5618   200006  FF                 	db	255
  5619                           
  5620                           ;Config register IDLOC7 @ 0x200007
  5621                           ;	unspecified, using default values
  5622   200007                     	org	2097159
  5623   200007  FF                 	db	255
  5624                           
  5625                           	psect	config
  5626                           
  5627                           ; Padding undefined space
  5628   300000                     	org	3145728
  5629   300000  FF                 	db	255
  5630                           
  5631                           ;Config register CONFIG1H @ 0x300001
  5632                           ;	Oscillator
  5633                           ;	OSC = HS, HS Oscillator
  5634                           ;	Fail-Safe Clock Monitor Enable bit
  5635                           ;	FCMEN = 0x0, unprogrammed default
  5636                           ;	Internal/External Oscillator Switchover bit
  5637                           ;	IESO = 0x0, unprogrammed default
  5638   300001                     	org	3145729
  5639   300001  02                 	db	2
  5640                           
  5641                           ;Config register CONFIG2L @ 0x300002
  5642                           ;	Power-up Timer Enable bit
  5643                           ;	PWRT = OFF, PWRT disabled
  5644                           ;	Brown-out Reset Enable bits
  5645                           ;	BOR = OFF, Brown-out Reset disabled in hardware and software
  5646                           ;	Brown-out Reset Voltage bits
  5647                           ;	BORV = 0x3, unprogrammed default
  5648   300002                     	org	3145730
  5649   300002  19                 	db	25
  5650                           
  5651                           ;Config register CONFIG2H @ 0x300003
  5652                           ;	Watchdog Timer Enable bit
  5653                           ;	WDT = OFF, WDT disabled (control is placed on the SWDTEN bit)
  5654                           ;	Watchdog Timer Postscale Select bits
  5655                           ;	WDTPS = 0xF, unprogrammed default
  5656   300003                     	org	3145731
  5657   300003  1E                 	db	30
  5658                           
  5659                           ; Padding undefined space
  5660   300004                     	org	3145732
  5661   300004  FF                 	db	255
  5662                           
  5663                           ;Config register CONFIG3H @ 0x300005
  5664                           ;	CCP2 MUX bit
  5665                           ;	CCP2MX = 0x1, unprogrammed default
  5666                           ;	PORTB A/D Enable bit
  5667                           ;	PBADEN = DIG, PORTB<4:0> pins are configured as digital I/O on Reset
  5668                           ;	Low-Power Timer1 Oscillator Enable bit
  5669                           ;	LPT1OSC = 0x0, unprogrammed default
  5670                           ;	MCLR Pin Enable bit
  5671                           ;	MCLRE = ON, MCLR pin enabled; RE3 input pin disabled
  5672   300005                     	org	3145733
  5673   300005  81                 	db	129
  5674                           
  5675                           ;Config register CONFIG4L @ 0x300006
  5676                           ;	Stack Full/Underflow Reset Enable bit
  5677                           ;	STVREN = 0x1, unprogrammed default
  5678                           ;	Single-Supply ICSP Enable bit
  5679                           ;	LVP = OFF, Single-Supply ICSP disabled
  5680                           ;	Boot Block Size Select bits
  5681                           ;	BBSIZ = 0x0, unprogrammed default
  5682                           ;	Extended Instruction Set Enable bit
  5683                           ;	XINST = 0x0, unprogrammed default
  5684                           ;	Background Debugger Enable bit
  5685                           ;	DEBUG = OFF, Background debugger disabled, RB6 and RB7 configured as general purpose I
      +                          /O pins
  5686   300006                     	org	3145734
  5687   300006  81                 	db	129
  5688                           
  5689                           ; Padding undefined space
  5690   300007                     	org	3145735
  5691   300007  FF                 	db	255
  5692                           
  5693                           ;Config register CONFIG5L @ 0x300008
  5694                           ;	unspecified, using default values
  5695                           ;	Code Protection bit
  5696                           ;	CP0 = 0x1, unprogrammed default
  5697                           ;	Code Protection bit
  5698                           ;	CP1 = 0x1, unprogrammed default
  5699   300008                     	org	3145736
  5700   300008  03                 	db	3
  5701                           
  5702                           ;Config register CONFIG5H @ 0x300009
  5703                           ;	unspecified, using default values
  5704                           ;	Boot Block Code Protection bitProtect Boot
  5705                           ;	CPB = 0x1, unprogrammed default
  5706                           ;	Data EEPROM Code Protection bit
  5707                           ;	CPD = 0x1, unprogrammed default
  5708   300009                     	org	3145737
  5709   300009  C0                 	db	192
  5710                           
  5711                           ;Config register CONFIG6L @ 0x30000A
  5712                           ;	unspecified, using default values
  5713                           ;	Write Protection bit
  5714                           ;	WRT0 = 0x1, unprogrammed default
  5715                           ;	Write Protection bit
  5716                           ;	WRT1 = 0x1, unprogrammed default
  5717   30000A                     	org	3145738
  5718   30000A  03                 	db	3
  5719                           
  5720                           ;Config register CONFIG6H @ 0x30000B
  5721                           ;	unspecified, using default values
  5722                           ;	Configuration Register Write Protection bit
  5723                           ;	WRTC = 0x1, unprogrammed default
  5724                           ;	Boot Block Write Protection bit
  5725                           ;	WRTB = 0x1, unprogrammed default
  5726                           ;	Data EEPROM Write Protection bit
  5727                           ;	WRTD = 0x1, unprogrammed default
  5728   30000B                     	org	3145739
  5729   30000B  E0                 	db	224
  5730                           
  5731                           ;Config register CONFIG7L @ 0x30000C
  5732                           ;	unspecified, using default values
  5733                           ;	Table Read Protection bit
  5734                           ;	EBTR0 = 0x1, unprogrammed default
  5735                           ;	Table Read Protection bit
  5736                           ;	EBTR1 = 0x1, unprogrammed default
  5737   30000C                     	org	3145740
  5738   30000C  03                 	db	3
  5739                           
  5740                           ;Config register CONFIG7H @ 0x30000D
  5741                           ;	unspecified, using default values
  5742                           ;	Boot Block Table Read Protection bit
  5743                           ;	EBTRB = 0x1, unprogrammed default
  5744   30000D                     	org	3145741
  5745   30000D  40                 	db	64
  5746                           tosu	equ	0xFFF
  5747                           tosh	equ	0xFFE
  5748                           tosl	equ	0xFFD
  5749                           stkptr	equ	0xFFC
  5750                           pclatu	equ	0xFFB
  5751                           pclath	equ	0xFFA
  5752                           pcl	equ	0xFF9
  5753                           tblptru	equ	0xFF8
  5754                           tblptrh	equ	0xFF7
  5755                           tblptrl	equ	0xFF6
  5756                           tablat	equ	0xFF5
  5757                           prodh	equ	0xFF4
  5758                           prodl	equ	0xFF3
  5759                           indf0	equ	0xFEF
  5760                           postinc0	equ	0xFEE
  5761                           postdec0	equ	0xFED
  5762                           preinc0	equ	0xFEC
  5763                           plusw0	equ	0xFEB
  5764                           fsr0h	equ	0xFEA
  5765                           fsr0l	equ	0xFE9
  5766                           wreg	equ	0xFE8
  5767                           indf1	equ	0xFE7
  5768                           postinc1	equ	0xFE6
  5769                           postdec1	equ	0xFE5
  5770                           preinc1	equ	0xFE4
  5771                           plusw1	equ	0xFE3
  5772                           fsr1h	equ	0xFE2
  5773                           fsr1l	equ	0xFE1
  5774                           bsr	equ	0xFE0
  5775                           indf2	equ	0xFDF
  5776                           postinc2	equ	0xFDE
  5777                           postdec2	equ	0xFDD
  5778                           preinc2	equ	0xFDC
  5779                           plusw2	equ	0xFDB
  5780                           fsr2h	equ	0xFDA
  5781                           fsr2l	equ	0xFD9
  5782                           status	equ	0xFD8

Data Sizes:
    Strings     54
    Constant    217
    Data        4
    BSS         157
    Persistent  0
    Stack       0

Auto Spaces:
    Space          Size  Autos    Used
    COMRAM          126     17     123
    BANK0           128      0      55
    BANK1           256      0       0

Pointer List with Targets:

    CMD_setCmd@aux	PTR unsigned char  size(1) Largest target is 30
		 -> comando(COMRAM[30]), 

    comandos	const PTR const unsigned char [8] size(2) Largest target is 16
		 -> comando0(CODE[12]), comando1(CODE[13]), comando2(CODE[8]), comando3(CODE[6]), 
		 -> comando4(CODE[16]), comando5(CODE[15]), comando6(CODE[6]), comando7(CODE[11]), 

    frases	const PTR const unsigned char [7] size(2) Largest target is 21
		 -> frase0(CODE[10]), frase1(CODE[12]), frase2(CODE[12]), frase3(CODE[13]), 
		 -> frase4(CODE[9]), frase5(CODE[19]), frase6(CODE[21]), 

    getCharTime@c	PTR unsigned char  size(1) Largest target is 1
		 -> STIME_Motor@c(COMRAM[1]), 

    pTxFrase	PTR const unsigned char  size(2) Largest target is 21
		 -> frase0(CODE[10]), frase1(CODE[12]), frase2(CODE[12]), frase3(CODE[13]), 
		 -> frase4(CODE[9]), frase5(CODE[19]), frase6(CODE[21]), NULL(NULL[0]), 

    SERIAL_ReadByte@b	PTR unsigned char  size(1) Largest target is 1
		 -> SERIAL_Motor@aux(COMRAM[1]), 

    string	const PTR const unsigned char [2] size(2) Largest target is 30
		 -> STR_1(CODE[24]), STR_2(CODE[30]), 

    TI_NewTimer@TimerHandle	PTR unsigned char  size(1) Largest target is 1
		 -> t_siot(COMRAM[1]), t_siot_rx(COMRAM[1]), timerDutyCycle(COMRAM[1]), timerLDR(COMRAM[1]), 
		 -> timerRebotes(COMRAM[1]), 

    validarData@buf	PTR unsigned char  size(1) Largest target is 15
		 -> rxBuf(COMRAM[15]), 


Critical Paths under _main in COMRAM

    _main->_HEARTBEAT_Motor
    _main->_STIME_Motor
    _STIME_Motor->_getCharTime
    _STIME_Motor->_putCharEcho
    _STIME_Motor->_putCharTime
    _putCharTime->_TI_GetTics
    _putCharEcho->_TI_GetTics
    _getCharTime->_TI_GetTics
    _STIME_Init->_TI_NewTimer
    _SERIAL_Motor->_CMD_setCmd
    _LDR_Init->_TI_NewTimer
    _HREATBEAT_Init->_TI_NewTimer
    _HEARTBEAT_Motor->_TI_GetTics
    _DSP_Motor->_TI_GetTics
    _DSP_Init->_TI_NewTimer

Critical Paths under _MyRSI in COMRAM

    None.

Critical Paths under _main in BANK0

    None.

Critical Paths under _MyRSI in BANK0

    None.

Critical Paths under _main in BANK1

    None.

Critical Paths under _MyRSI in BANK1

    None.

Call Graph Tables:

 ---------------------------------------------------------------------------------
 (Depth) Function   	        Calls       Base Space   Used Autos Params    Refs
 ---------------------------------------------------------------------------------
 (0) _main                                                 0     0      0    1423
                           _ADC_Init
                          _ADC_Motor
                           _DSP_Init
                          _DSP_Motor
                    _HEARTBEAT_Motor
                     _HREATBEAT_Init
                           _LDR_Init
                        _SERIAL_Init
                       _SERIAL_Motor
                         _STIME_Init
                        _STIME_Motor
                            _TI_Init
                          _initPorts
 ---------------------------------------------------------------------------------
 (1) _initPorts                                            0     0      0       0
 ---------------------------------------------------------------------------------
 (1) _TI_Init                                              1     1      0      68
                                              0 COMRAM     1     1      0
 ---------------------------------------------------------------------------------
 (1) _STIME_Motor                                          1     1      0     526
                                             16 COMRAM     1     1      0
                       _TI_ResetTics
                        _getCharTime
                        _putCharEcho
                        _putCharTime
                        _validarData
 ---------------------------------------------------------------------------------
 (2) _validarData                                          2     1      1      89
                                              0 COMRAM     2     1      1
 ---------------------------------------------------------------------------------
 (2) _putCharTime                                          3     3      0     126
                                             13 COMRAM     3     3      0
                         _TI_GetTics
                       _TI_ResetTics
 ---------------------------------------------------------------------------------
 (2) _putCharEcho                                          3     3      0     110
                                             13 COMRAM     3     3      0
                         _TI_GetTics
                       _TI_ResetTics
 ---------------------------------------------------------------------------------
 (2) _getCharTime                                          3     2      1     104
                                             13 COMRAM     3     2      1
                         _TI_GetTics
                       _TI_ResetTics
 ---------------------------------------------------------------------------------
 (1) _STIME_Init                                           0     0      0     116
                        _TI_NewTimer
 ---------------------------------------------------------------------------------
 (1) _SERIAL_Motor                                         2     2      0     188
                                              2 COMRAM     2     2      0
                         _CMD_setCmd
              _EEPROM_WriteAvailable
                  _LDR_SleepReceived
                    _SERIAL_ReadByte
                     _guardarCharArr
 ---------------------------------------------------------------------------------
 (2) _guardarCharArr                                       1     1      0      15
                                              0 COMRAM     1     1      0
 ---------------------------------------------------------------------------------
 (2) _SERIAL_ReadByte                                      1     0      1      23
                                              0 COMRAM     1     0      1
 ---------------------------------------------------------------------------------
 (2) _LDR_SleepReceived                                    0     0      0       0
 ---------------------------------------------------------------------------------
 (2) _EEPROM_WriteAvailable                                0     0      0       0
 ---------------------------------------------------------------------------------
 (2) _CMD_setCmd                                           2     1      1      37
                                              0 COMRAM     2     1      1
 ---------------------------------------------------------------------------------
 (1) _SERIAL_Init                                          0     0      0       0
 ---------------------------------------------------------------------------------
 (1) _LDR_Init                                             0     0      0     116
                        _TI_NewTimer
 ---------------------------------------------------------------------------------
 (1) _HREATBEAT_Init                                       0     0      0     116
                        _TI_NewTimer
 ---------------------------------------------------------------------------------
 (1) _HEARTBEAT_Motor                                      4     4      0      81
                                             13 COMRAM     4     4      0
                         _TI_GetTics
                       _TI_ResetTics
 ---------------------------------------------------------------------------------
 (1) _DSP_Motor                                            2     2      0      96
                                             13 COMRAM     2     2      0
                     _ADC_ExistValue
                           _ADC_GetX
                           _ADC_GetY
                   _SERIAL_PutString
                         _TI_GetTics
                       _TI_ResetTics
 ---------------------------------------------------------------------------------
 (3) _TI_ResetTics                                         1     1      0      29
                                              0 COMRAM     1     1      0
 ---------------------------------------------------------------------------------
 (3) _TI_GetTics                                          13     9      4      52
                                              0 COMRAM    13     9      4
 ---------------------------------------------------------------------------------
 (2) _SERIAL_PutString                                     1     1      0      15
                                              0 COMRAM     1     1      0
 ---------------------------------------------------------------------------------
 (2) _ADC_GetY                                             2     0      2       0
                                              0 COMRAM     2     0      2
 ---------------------------------------------------------------------------------
 (2) _ADC_GetX                                             2     0      2       0
                                              0 COMRAM     2     0      2
 ---------------------------------------------------------------------------------
 (2) _ADC_ExistValue                                       0     0      0       0
 ---------------------------------------------------------------------------------
 (1) _DSP_Init                                             0     0      0     116
                        _TI_NewTimer
 ---------------------------------------------------------------------------------
 (2) _TI_NewTimer                                          3     2      1     116
                                              0 COMRAM     3     2      1
 ---------------------------------------------------------------------------------
 (1) _ADC_Motor                                            2     2      0       0
                                              0 COMRAM     2     2      0
                       _ADC_Finished
                          _ADC_Start
 ---------------------------------------------------------------------------------
 (2) _ADC_Start                                            0     0      0       0
 ---------------------------------------------------------------------------------
 (2) _ADC_Finished                                         0     0      0       0
 ---------------------------------------------------------------------------------
 (1) _ADC_Init                                             0     0      0       0
 ---------------------------------------------------------------------------------
 Estimated maximum stack depth 3
 ---------------------------------------------------------------------------------
 (Depth) Function   	        Calls       Base Space   Used Autos Params    Refs
 ---------------------------------------------------------------------------------
 (4) _MyRSI                                                0     0      0       0
                         _RSI_Timer0
 ---------------------------------------------------------------------------------
 (5) _RSI_Timer0                                           0     0      0       0
 ---------------------------------------------------------------------------------
 Estimated maximum stack depth 5
 ---------------------------------------------------------------------------------

 Call Graph Graphs:

 _main (ROOT)
   _ADC_Init
   _ADC_Motor
     _ADC_Finished
     _ADC_Start
   _DSP_Init
     _TI_NewTimer
   _DSP_Motor
     _ADC_ExistValue
     _ADC_GetX
     _ADC_GetY
     _SERIAL_PutString
     _TI_GetTics
     _TI_ResetTics
   _HEARTBEAT_Motor
     _TI_GetTics
     _TI_ResetTics
   _HREATBEAT_Init
     _TI_NewTimer
   _LDR_Init
     _TI_NewTimer
   _SERIAL_Init
   _SERIAL_Motor
     _CMD_setCmd
     _EEPROM_WriteAvailable
     _LDR_SleepReceived
     _SERIAL_ReadByte
     _guardarCharArr
   _STIME_Init
     _TI_NewTimer
   _STIME_Motor
     _TI_ResetTics
     _getCharTime
       _TI_GetTics
       _TI_ResetTics
     _putCharEcho
       _TI_GetTics
       _TI_ResetTics
     _putCharTime
       _TI_GetTics
       _TI_ResetTics
     _validarData
   _TI_Init
   _initPorts

 _MyRSI (ROOT)
   _RSI_Timer0

Address spaces:
Name               Size   Autos  Total    Usage
BIGRAM             511      0       0      0.0%
BITBANK1           256      0       0      0.0%
BANK1              256      0       0      0.0%
BITBANK0           128      0       0      0.0%
BANK0              128      0      55     43.0%
BITCOMRAM          126      0       0      0.0%
COMRAM             126     17     123     97.6%
BITBIGSFRhll        39      0       0      0.0%
BITBIGSFRlhl        36      0       0      0.0%
BITBIGSFRhlh        26      0       0      0.0%
BITBIGSFRhh         13      0       0      0.0%
BITBIGSFRlhh         5      0       0      0.0%
BITBIGSFRll          1      0       0      0.0%
STACK                0      0       0      0.0%
DATA                 0      0     178      0.0%


Microchip Technology PIC18 Macro Assembler V3.00 build 20241204225717 
Symbol Table                                                                                   Tue Apr 21 17:12:31 2026

                  CMD_setCmd@e 0068                     _RSI_Timer0 09B8                             u10 0A0E  
                           u30 0A1A           getCharTime@estado_rx 0018                     _TI_GetTics 07B4  
                CMD_setCmd@aux 0067                            l110 0640                            l103 05EE  
                          l107 061A                            l163 0090                            l180 0132  
                          l413 0730                            l182 0138                            l174 0100  
                          l262 090E                            l502 04DE                            l168 00C8  
                          l416 074A                            l272 0186                            l520 06C4  
                          l506 051A                            l524 0700                            l535 02E0  
                          l289 0284                            u100 0A00                            u101 09FC  
                          u930 090A                            u990 040A                            _arr 0080  
                          wreg 0FE8                           l2000 0458                           l2100 0724  
                         l2020 0476                           l2102 072A                           l2014 046E  
                         l2120 0312                           l2112 02EE                           l2008 0466  
                         l2122 0314                           l2026 047E                           l2060 0536  
                         l2302 01E6                           l2134 0356                           l2126 031C  
                         l2046 04E8                           l2062 053C                           l2208 006A  
                         l2144 0388                           l2136 0370                           l2400 0562  
                         l1610 0600                           l2242 00E2                           l2234 00CA  
                         l2226 00AA                           l2250 0104                           l2330 025E  
                         l2322 0236                           l2314 020E                           l2154 03A4  
                         l2082 06CE                           l2074 06AC                           l2058 0522  
                         l1604 05F6                           l2308 01F6                           l2156 03BE  
                         l2420 0594                           l2404 0568                   STIME_Motor@c 0077  
                         l1622 0624                           l1614 0616                           l2190 001A  
                         l2334 0272                           l2318 0222                           l2430 05AE  
                         l2414 057E                           l2166 08BA                           l1632 0650  
                         l1640 066E                           l2328 0252                           l2432 05B4  
                         l2266 0144                           l2362 0734                           l2290 01BC  
                         l2098 0710                           l2426 05A0                           l2418 0590  
                         l2442 05D0                           l2196 003E                           l2276 0162  
                         l2380 075E                           l2348 02A0                           l2198 0042  
                         l2390 079E                           l2294 01CA                           l2358 02C2  
                         l2378 075A                           l2394 0542                           l2458 08A2  
                         l1944 084A                    _TI_NewTimer 0846                           l1948 0854  
                         l1964 0916                           l1990 040E                           STR_1 1FE6  
                         STR_2 1FC8                           u1204 034C                           u1205 0348  
                         u1230 039E                           u1214 0366                           u1134 06DE  
                         u1070 0498                           u1215 0362                           u1135 06DA  
                         u1160 0304                           u1410 015A                           u1180 0332  
                         u1094 04F8                           u1095 04F4                           u1380 0122  
                         u1640 0798                           u1690 05AA                           _TMR0 0FD6  
                         _Tics 0001                           _flag 0028                           _main 0882  
                         fsr2h 0FDA                           indf2 0FDF                           fsr1l 0FE1  
                         fsr2l 0FD9                           btemp 007C               __end_of_ADC_GetX 0A46  
             __end_of_ADC_GetY 0A3C               __end_of_ADC_Init 09E4                __end_of_TI_Init 08E2  
                         prodh 0FF4                           prodl 0FF3                           start 0014  
                 ___param_bank 0000        getCharTime@byteTemporal 0017              putCharTime@bitIdx 001F  
              _HEARTBEAT_Motor 072E               __end_of_DSP_Init 09B8                          ?_main 0067  
             ?_SERIAL_ReadByte 0067               __end_of_LDR_Init 0A28                          _T0CON 0FD5  
                        _RCREG 0FAE                          _SPBRG 0FAF                          _TXREG 0FAD  
     STIME_Motor@charPendiente 0015                          _MyRSI 0008                          _estat 0034  
                 _TI_ResetTics 08E2                          _rxBuf 0053                          _rxIdx 0027  
                        tablat 0FF5              __end_of_ADC_Motor 0696              __end_of_ADC_Start 0A5C  
                        ttemp5 007D                          ttemp6 0080                          ttemp7 0084  
                        status 0FD8                          wtemp8 007D                    ?_STIME_Init 0067  
__end_of_EEPROM_WriteAvailable 0A04                   _ADC_Finished 0A12                   ?_SERIAL_Init 0067  
              __initialization 0800                   __end_of_main 08B8                    ?_RSI_Timer0 0067  
               TI_Init@counter 0067               ??_HREATBEAT_Init 006A                    ?_TI_GetTics 0067  
                       ??_main 0078                  __activetblptr 0002           _estado@TAD_CMD$F1019 0014  
            guardarCharArr@aux 0067                         ?_MyRSI 0067                         _ADCON0 0FC2  
                       _ADCON1 0FC1                         _ADCON2 0FC0              __end_of_DSP_Motor 0184  
                       _ADRESH 0FC4                         _ADRESL 0FC3                      ??_TI_Init 0067  
                       _TMR0IF 7F92                         _SPBRGH 0FB0                   ?_validarData 0067  
            SERIAL_PutString@s 0067                  SERIAL_Motor@c 0069        __end_of_HEARTBEAT_Motor 07B4  
             __end_of_comando0 1F7E               __end_of_comando1 1F65               __end_of_comando2 1FBC  
             __end_of_comando3 1FC8               __end_of_comando4 1F49               __end_of_comando5 1F58  
             __end_of_comando6 1FC2               __end_of_comando7 1FA1               __end_of_comandos 1EFF  
                       _Timers 009E                         _frase0 1FA1                         _frase1 1F8A  
                       _frase2 1F7E                         _frase3 1F65                         _frase4 1FAB  
                       _frase5 1F26                         _frase6 1F11                         _indice 002D  
                       _frases 1EFF                         _estado 002E                         clear_0 0826  
                       clear_1 0832                   ?_putCharEcho 0067                         _t_siot 0063  
                       _valueX 0011                         _valueY 000F                         isa$std 0001  
                       _valorX 000B                         _valorY 0009                   ?_putCharTime 0067  
                       _string 1F0D              ?_SERIAL_PutString 0067                   __pdataCOMRAM 0078  
                    ?_ADC_GetX 0067                      ?_ADC_GetY 0067                      ?_ADC_Init 0067  
           ??_SERIAL_PutString 0067                   __mediumconst 1EEE                         tblptrh 0FF7  
                       tblptrl 0FF6                         tblptru 0FF8                   _dataReadyLDR 0032  
                 ?_STIME_Motor 0067           putCharEcho@estado_tx 001C                     __accesstop 0080  
      __end_of__initialization 0838                  ___rparam_used 0001                   ??_CMD_setCmd 0068  
                    ?_DSP_Init 0067                      ?_LDR_Init 0067                  ?_SERIAL_Motor 0067  
                __end_of_MyRSI 0014                 __pcstackCOMRAM 0067           TI_NewTimer@Comptador 0069  
                   ??_ADC_GetX 0069                     ??_ADC_GetY 0069                     ??_ADC_Init 0067  
                      ??_MyRSI 0067             __end_of_CMD_setCmd 0A4E                   ?_TI_NewTimer 0067  
                   __pbssBANK0 0080                 validarData@buf 0067                     ??_DSP_Init 006A  
               ??_SERIAL_Motor 0069                     ??_LDR_Init 006A         TI_NewTimer@TimerHandle 0067  
             ?_HEARTBEAT_Motor 0067            putCharTime@currChar 0076        TI_ResetTics@TimerHandle 0067  
            STIME_Motor@estado 0016                        _TI_Init 08B8                   ??_STIME_Init 006A  
                    _ADC_Motor 05EC                      _ADC_Start 0A58                        __Hparam 0000  
                      __Lparam 0000          putCharEcho@charToSend 001B                   ??_RSI_Timer0 0067  
                 ??_TI_GetTics 006B                        __pcinit 0800                        __ramtop 0200  
                      __ptext0 0882                        __ptext1 094A                        __ptext2 08B8  
                      __ptext3 0540                        __ptext4 03C2                        __ptext5 0482  
                      __ptext6 0696                        __ptext7 02DE                        __ptext8 09E4  
                      __ptext9 0184                        _comando 0035              __end_of_initPorts 0966  
           __end_of_STIME_Init 09F6                     _parseMonth 0024                        _ptxChar 0020  
         end_of_initialization 0838             __end_of_RSI_Timer0 09D0                      _DSP_Motor 0018  
                __Lmediumconst 1EEE             __end_of_TI_GetTics 0800                     ?_ADC_Motor 0067  
                ??_getCharTime 0075                     ?_ADC_Start 0067          _EEPROM_WriteAvailable 09F6  
                    _RCSTAbits 0FAB                        postdec1 0FE5                        postinc0 0FEE  
                      postinc2 0FDE                LDR_Motor@estado 002B                      _PORTBbits 0F81  
               _guardarCharArr 0966           __end_of_SERIAL_Motor 02DE          TI_GetTics@TimerHandle 0073  
                    _TRISAbits 0F92                      _TRISBbits 0F93               SERIAL_ReadByte@b 0067  
                   ?_DSP_Motor 0067                      _TXSTAbits 0FAC            __end_of_getCharTime 03C2  
                __pidataCOMRAM 0A54         __end_of_guardarCharArr 0982                 __end_of_frase0 1FAB  
               __end_of_frase1 1F96                 __end_of_frase2 1F8A                 __end_of_frase3 1F72  
               __end_of_frase4 1FB4                 __end_of_frase5 1F39                 __end_of_frase6 1F26  
               __end_of_frases 1F0D                 _ADC_ExistValue 0A04                 __end_of_string 1F11  
          start_initialization 0800             putCharEcho@sending 001A                     init@indice 0078  
            ??_SERIAL_ReadByte 0068                     DSP_Motor@i 002F                    ??_ADC_Motor 0067  
                  ??_ADC_Start 0067         ?_EEPROM_WriteAvailable 0067                     LDR_Motor@i 002A  
              ?_guardarCharArr 0067         __end_of_ADC_ExistValue 0A12                    __pbssCOMRAM 0001  
                ?_TI_ResetTics 0067                       ?_TI_Init 0067                    ??_DSP_Motor 0074  
                    _dataReady 0033                      _dateReady 0026                  ?_ADC_Finished 0067  
                ??_SERIAL_Init 0067                    _getCharTime 02DE                      __pintcode 0008  
                __pmediumconst 1EEE                    _flagRebotes 0031                 _timerDutyCycle 0064  
              ?_ADC_ExistValue 0067           putCharTime@estado_tx 001E                    __smallconst 1EEE  
                     _ADC_GetX 0A3C                       _ADC_GetY 0A32                       _ADC_Init 09D0  
               ??_TI_ResetTics 0067                      _initPorts 094A                      _dutyCycle 0029  
                    _parseHour 0023               _SERIAL_PutString 0928                       _LATAbits 0F89  
                ??_validarData 0068                 ??_ADC_Finished 0067                       _DSP_Init 099E  
                     _LDR_Init 0A1E                   _SERIAL_Motor 0184                      _t_siot_rx 0062  
                     _PIR1bits 0F9E                  ??_putCharEcho 0074            __end_of_SERIAL_Init 099E  
                ??_putCharTime 0074                     _ADCON0bits 0FC2                 _HREATBEAT_Init 0A28  
                   ?_initPorts 0067                  ??_STIME_Motor 0077                    _INTCON2bits 0FF1  
            putCharEcho@bitIdx 001D                      copy_data0 0814      _estado@TAD_HEARTBEAT$F828 0079  
              SERIAL_Motor@aux 006A                      init@eInit 0013              _LDR_SleepReceived 0A4E  
                 getCharTime@c 0074                     _EECON1bits 0FA6             ?_LDR_SleepReceived 0067  
                     __Hrparam 0000                       __Lrparam 0000            __end_of_validarData 0482  
          ??_LDR_SleepReceived 0067         __end_of_HREATBEAT_Init 0A32            __end_of_putCharEcho 072E  
          __end_of_putCharTime 0540                _SERIAL_ReadByte 0906              ??_HEARTBEAT_Motor 0074  
                     __ptext10 0966                       __ptext11 0906                       __ptext20 08E2  
                     __ptext12 0A4E                       __ptext21 07B4                       __ptext13 09F6  
                     __ptext30 0A12                       __ptext22 0928                       __ptext14 0A46  
                     __ptext31 09D0                       __ptext23 0A32                       __ptext15 0982  
                     __ptext24 0A3C                       __ptext16 0A1E                       __ptext33 09B8  
                     __ptext25 0A04                       __ptext17 0A28                       __ptext26 099E  
                     __ptext18 072E                       __ptext27 0846                       __ptext19 0018  
                     __ptext28 05EC                       __ptext29 0A58                       _pTxFrase 0007  
                     _comando0 1F72                       _comando1 1F58                       _comando2 1FB4  
                     _comando3 1FC2                       _comando4 1F39                       _comando5 1F49  
                     _comando6 1FBC                       _comando7 1F96                  ??_TI_NewTimer 0068  
                     _comandos 1EEF      __end_of_LDR_SleepReceived 0A54                       _lastDirX 007B  
                     _lastDirY 007A        ??_EEPROM_WriteAvailable 0067                       _parseDay 0025  
                     _parseMin 0022                       _parseSec 0021            __end_of_STIME_Motor 05EC  
                   _CMD_setCmd 0A46                    _SERIAL_Init 0982                       _valueLDR 000D  
                 _sleepRecived 002C                       _timerLDR 0065               ??_guardarCharArr 0067  
                     isa$xinst 0000           __end_of_TI_ResetTics 0906                       int$flags 007C  
         __end_of_ADC_Finished 0A1E                ?_HREATBEAT_Init 0067                     _INTCONbits 0FF2  
    TI_GetTics@CopiaTicsActual 006F                    ??_initPorts 0067                       intlevel2 0000  
                 _timerRebotes 0066                    _validarData 03C2            __end_of_TI_NewTimer 0882  
                 ?_getCharTime 0074                   putCharEcho@c 0076              LDR_Motor@valorLDR 0005  
             ??_ADC_ExistValue 0067                DSP_Motor@estado 0030                    _putCharEcho 0696  
                  _putCharTime 0482        __end_of_SERIAL_ReadByte 0928       __end_of_SERIAL_PutString 094A  
         getCharTime@bitIdx_rx 0019                    _STIME_Motor 0540                     _STIME_Init 09E4  
                  ?_CMD_setCmd 0067  
