

Microchip MPLAB XC8 Assembler V3.00 build 20241204225717 
                                                                                               Thu Mar 19 12:12:07 2026

Microchip MPLAB XC8 C Compiler v3.00 (Free license) build 20241204225717 Og1 
     1                           	processor	18F4321
     2                           	fnconf	rparam,??,?,0
     3                           	pagewidth 120
     4                           	opt	flic
     5                           	psect	idataCOMRAM,global,class=CODE,space=0,delta=1,noexec
     6                           	psect	smallconst,global,reloc=2,class=SMALLCONST,space=0,delta=1,noexec
     7                           	psect	cinit,global,reloc=2,class=CODE,space=0,delta=1
     8                           	psect	bssCOMRAM,global,class=COMRAM,space=1,delta=1,lowdata,noexec
     9                           	psect	dataCOMRAM,global,class=COMRAM,space=1,delta=1,lowdata,noexec
    10                           	psect	bssBANK0,global,class=BANK0,space=1,delta=1,lowdata,noexec
    11                           	psect	cstackCOMRAM,global,class=COMRAM,space=1,delta=1,lowdata,noexec
    12                           	psect	text0,global,reloc=2,class=CODE,space=0,delta=1
    13                           	psect	text1,global,reloc=2,class=CODE,space=0,delta=1
    14                           	psect	text2,global,reloc=2,class=CODE,space=0,delta=1
    15                           	psect	text3,global,reloc=2,class=CODE,space=0,delta=1
    16                           	psect	text4,global,reloc=2,class=CODE,space=0,delta=1
    17                           	psect	text5,global,reloc=2,class=CODE,space=0,delta=1
    18                           	psect	text6,global,reloc=2,class=CODE,space=0,delta=1
    19                           	psect	text7,global,reloc=2,class=CODE,space=0,delta=1
    20                           	psect	text8,global,reloc=2,class=CODE,space=0,delta=1
    21                           	psect	text9,global,reloc=2,class=CODE,space=0,delta=1
    22                           	psect	text10,global,reloc=2,class=CODE,space=0,delta=1
    23                           	psect	text11,global,reloc=2,class=CODE,space=0,delta=1
    24                           	psect	text12,global,reloc=2,class=CODE,space=0,delta=1
    25                           	psect	text13,global,reloc=2,class=CODE,space=0,delta=1
    26                           	psect	text14,global,reloc=2,class=CODE,space=0,delta=1
    27                           	psect	text15,global,reloc=2,class=CODE,space=0,delta=1
    28                           	psect	text16,global,reloc=2,class=CODE,space=0,delta=1
    29                           	psect	text17,global,reloc=2,class=CODE,space=0,delta=1
    30                           	psect	text18,global,reloc=2,class=CODE,space=0,delta=1
    31                           	psect	text19,global,reloc=2,class=CODE,space=0,delta=1
    32                           	psect	text20,global,reloc=2,class=CODE,space=0,delta=1
    33                           	psect	intcode,global,reloc=2,class=CODE,space=0,delta=1
    34                           	psect	text22,global,reloc=2,class=CODE,space=0,delta=1
    35                           	psect	intsave_regs,global,class=BIGRAM,space=1,delta=1,noexec
    36                           	psect	rparam,global,class=COMRAM,space=1,delta=1,noexec
    37                           	psect	temp,global,ovrld,common,class=COMRAM,space=1,delta=1,lowdata
    38                           	psect	idloc,global,abs,ovrld,class=IDLOC,space=5,delta=1,noexec
    39                           	psect	config,global,abs,ovrld,class=CONFIG,space=4,delta=1,noexec
    40   000000                     
    41                           ; Generated 05/12/2024 GMT
    42                           ; 
    43                           ; Copyright © 2024, Microchip Technology Inc. and its subsidiaries ("Microchip")
    44                           ; All rights reserved.
    45                           ; 
    46                           ; This software is developed by Microchip Technology Inc. and its subsidiaries ("Microch
      +                          ip").
    47                           ; 
    48                           ; Redistribution and use in source and binary forms, with or without modification, are
    49                           ; permitted provided that the following conditions are met:
    50                           ; 
    51                           ;     1. Redistributions of source code must retain the above copyright notice, this lis
      +                          t of
    52                           ;        conditions and the following disclaimer.
    53                           ; 
    54                           ;     2. Redistributions in binary form must reproduce the above copyright notice, this 
      +                          list
    55                           ;        of conditions and the following disclaimer in the documentation and/or other
    56                           ;        materials provided with the distribution. Publication is not required when
    57                           ;        this file is used in an embedded application.
    58                           ; 
    59                           ;     3. Microchip's name may not be used to endorse or promote products derived from th
      +                          is
    60                           ;        software without specific prior written permission.
    61                           ; 
    62                           ; THIS SOFTWARE IS PROVIDED BY MICROCHIP "AS IS" AND ANY EXPRESS OR IMPLIED WARRANTIES,
    63                           ; INCLUDING, BUT NOT LIMITED TO, THE IMPLIED WARRANTIES OF MERCHANTABILITY AND FITNESS F
      +                          OR
    64                           ; PURPOSE ARE DISCLAIMED.  IN NO EVENT SHALL MICROCHIP BE LIABLE FOR ANY DIRECT, INDIREC
      +                          T,
    65                           ; INCIDENTAL, SPECIAL, EXEMPLARY, OR CONSEQUENTIAL DAMAGES (INCLUDING BUT NOT LIMITED TO
    66                           ; PROCUREMENT OF SUBSTITUTE GOODS OR SERVICES; LOSS OF USE, DATA OR PROFITS; OR BUSINESS
    67                           ; INTERRUPTION) HOWSOEVER CAUSED AND ON ANY THEORY OF LIABILITY, WHETHER IN CONTRACT, ST
      +                          RICT
    68                           ; LIABILITY, OR TORT (INCLUDING NEGLIGENCE OR OTHERWISE) ARISING IN ANY WAY OUT OF THE U
      +                          SE OF
    69                           ; THIS SOFTWARE, EVEN IF ADVISED OF THE POSSIBILITY OF SUCH DAMAGE.
    70                           ; 
    71                           ; 
    72                           ; Code-generator required, PIC18F4321 Definitions
    73                           ; 
    74                           ; SFR Addresses
    75   000FE0                     bsr             equ	4064
    76   000FE9                     fsr0            equ	4073
    77   000FEA                     fsr0h           equ	4074
    78   000FE9                     fsr0l           equ	4073
    79   000FE1                     fsr1            equ	4065
    80   000FE2                     fsr1h           equ	4066
    81   000FE1                     fsr1l           equ	4065
    82   000FD9                     fsr2            equ	4057
    83   000FDA                     fsr2h           equ	4058
    84   000FD9                     fsr2l           equ	4057
    85   000FEF                     indf0           equ	4079
    86   000FE7                     indf1           equ	4071
    87   000FDF                     indf2           equ	4063
    88   000FF2                     intcon          equ	4082
    89   000000                     nvmcon          equ	0
    90   000FF9                     pcl             equ	4089
    91   000FFA                     pclath          equ	4090
    92   000FFB                     pclatu          equ	4091
    93   000FEB                     plusw0          equ	4075
    94   000FE3                     plusw1          equ	4067
    95   000FDB                     plusw2          equ	4059
    96   000FED                     postdec0        equ	4077
    97   000FE5                     postdec1        equ	4069
    98   000FDD                     postdec2        equ	4061
    99   000FEE                     postinc0        equ	4078
   100   000FE6                     postinc1        equ	4070
   101   000FDE                     postinc2        equ	4062
   102   000FEC                     preinc0         equ	4076
   103   000FE4                     preinc1         equ	4068
   104   000FDC                     preinc2         equ	4060
   105   000FF3                     prod            equ	4083
   106   000FF4                     prodh           equ	4084
   107   000FF3                     prodl           equ	4083
   108   000FD8                     status          equ	4056
   109   000FF5                     tablat          equ	4085
   110   000FF6                     tblptr          equ	4086
   111   000FF7                     tblptrh         equ	4087
   112   000FF6                     tblptrl         equ	4086
   113   000FF8                     tblptru         equ	4088
   114   000FFD                     tosl            equ	4093
   115   000FE8                     wreg            equ	4072
   116   000F80                     PORTA           equ	3968	;# 
   117   000F81                     PORTB           equ	3969	;# 
   118   000F82                     PORTC           equ	3970	;# 
   119   000F83                     PORTD           equ	3971	;# 
   120   000F84                     PORTE           equ	3972	;# 
   121   000F89                     LATA            equ	3977	;# 
   122   000F8A                     LATB            equ	3978	;# 
   123   000F8B                     LATC            equ	3979	;# 
   124   000F8C                     LATD            equ	3980	;# 
   125   000F8D                     LATE            equ	3981	;# 
   126   000F92                     TRISA           equ	3986	;# 
   127   000F92                     DDRA            equ	3986	;# 
   128   000F93                     TRISB           equ	3987	;# 
   129   000F93                     DDRB            equ	3987	;# 
   130   000F94                     TRISC           equ	3988	;# 
   131   000F94                     DDRC            equ	3988	;# 
   132   000F95                     TRISD           equ	3989	;# 
   133   000F95                     DDRD            equ	3989	;# 
   134   000F96                     TRISE           equ	3990	;# 
   135   000F96                     DDRE            equ	3990	;# 
   136   000F9B                     OSCTUNE         equ	3995	;# 
   137   000F9D                     PIE1            equ	3997	;# 
   138   000F9E                     PIR1            equ	3998	;# 
   139   000F9F                     IPR1            equ	3999	;# 
   140   000FA0                     PIE2            equ	4000	;# 
   141   000FA1                     PIR2            equ	4001	;# 
   142   000FA2                     IPR2            equ	4002	;# 
   143   000FA6                     EECON1          equ	4006	;# 
   144   000FA7                     EECON2          equ	4007	;# 
   145   000FA8                     EEDATA          equ	4008	;# 
   146   000FA9                     EEADR           equ	4009	;# 
   147   000FAB                     RCSTA           equ	4011	;# 
   148   000FAB                     RCSTA1          equ	4011	;# 
   149   000FAC                     TXSTA           equ	4012	;# 
   150   000FAC                     TXSTA1          equ	4012	;# 
   151   000FAD                     TXREG           equ	4013	;# 
   152   000FAD                     TXREG1          equ	4013	;# 
   153   000FAE                     RCREG           equ	4014	;# 
   154   000FAE                     RCREG1          equ	4014	;# 
   155   000FAF                     SPBRG           equ	4015	;# 
   156   000FAF                     SPBRG1          equ	4015	;# 
   157   000FB0                     SPBRGH          equ	4016	;# 
   158   000FB1                     T3CON           equ	4017	;# 
   159   000FB2                     TMR3            equ	4018	;# 
   160   000FB2                     TMR3L           equ	4018	;# 
   161   000FB3                     TMR3H           equ	4019	;# 
   162   000FB4                     CMCON           equ	4020	;# 
   163   000FB5                     CVRCON          equ	4021	;# 
   164   000FB6                     ECCP1AS         equ	4022	;# 
   165   000FB7                     ECCP1DEL        equ	4023	;# 
   166   000FB7                     PWM1CON         equ	4023	;# 
   167   000FB8                     BAUDCON         equ	4024	;# 
   168   000FB8                     BAUDCTL         equ	4024	;# 
   169   000FBA                     CCP2CON         equ	4026	;# 
   170   000FBB                     CCPR2           equ	4027	;# 
   171   000FBB                     CCPR2L          equ	4027	;# 
   172   000FBC                     CCPR2H          equ	4028	;# 
   173   000FBD                     CCP1CON         equ	4029	;# 
   174   000FBD                     ECCP1CON        equ	4029	;# 
   175   000FBE                     CCPR1           equ	4030	;# 
   176   000FBE                     CCPR1L          equ	4030	;# 
   177   000FBF                     CCPR1H          equ	4031	;# 
   178   000FC0                     ADCON2          equ	4032	;# 
   179   000FC1                     ADCON1          equ	4033	;# 
   180   000FC2                     ADCON0          equ	4034	;# 
   181   000FC3                     ADRES           equ	4035	;# 
   182   000FC3                     ADRESL          equ	4035	;# 
   183   000FC4                     ADRESH          equ	4036	;# 
   184   000FC5                     SSPCON2         equ	4037	;# 
   185   000FC6                     SSPCON1         equ	4038	;# 
   186   000FC7                     SSPSTAT         equ	4039	;# 
   187   000FC8                     SSPADD          equ	4040	;# 
   188   000FC9                     SSPBUF          equ	4041	;# 
   189   000FCA                     T2CON           equ	4042	;# 
   190   000FCB                     PR2             equ	4043	;# 
   191   000FCB                     MEMCON          equ	4043	;# 
   192   000FCC                     TMR2            equ	4044	;# 
   193   000FCD                     T1CON           equ	4045	;# 
   194   000FCE                     TMR1            equ	4046	;# 
   195   000FCE                     TMR1L           equ	4046	;# 
   196   000FCF                     TMR1H           equ	4047	;# 
   197   000FD0                     RCON            equ	4048	;# 
   198   000FD1                     WDTCON          equ	4049	;# 
   199   000FD2                     HLVDCON         equ	4050	;# 
   200   000FD2                     LVDCON          equ	4050	;# 
   201   000FD3                     OSCCON          equ	4051	;# 
   202   000FD5                     T0CON           equ	4053	;# 
   203   000FD6                     TMR0            equ	4054	;# 
   204   000FD6                     TMR0L           equ	4054	;# 
   205   000FD7                     TMR0H           equ	4055	;# 
   206   000FD8                     STATUS          equ	4056	;# 
   207   000FD9                     FSR2            equ	4057	;# 
   208   000FD9                     FSR2L           equ	4057	;# 
   209   000FDA                     FSR2H           equ	4058	;# 
   210   000FDB                     PLUSW2          equ	4059	;# 
   211   000FDC                     PREINC2         equ	4060	;# 
   212   000FDD                     POSTDEC2        equ	4061	;# 
   213   000FDE                     POSTINC2        equ	4062	;# 
   214   000FDF                     INDF2           equ	4063	;# 
   215   000FE0                     BSR             equ	4064	;# 
   216   000FE1                     FSR1            equ	4065	;# 
   217   000FE1                     FSR1L           equ	4065	;# 
   218   000FE2                     FSR1H           equ	4066	;# 
   219   000FE3                     PLUSW1          equ	4067	;# 
   220   000FE4                     PREINC1         equ	4068	;# 
   221   000FE5                     POSTDEC1        equ	4069	;# 
   222   000FE6                     POSTINC1        equ	4070	;# 
   223   000FE7                     INDF1           equ	4071	;# 
   224   000FE8                     WREG            equ	4072	;# 
   225   000FE9                     FSR0            equ	4073	;# 
   226   000FE9                     FSR0L           equ	4073	;# 
   227   000FEA                     FSR0H           equ	4074	;# 
   228   000FEB                     PLUSW0          equ	4075	;# 
   229   000FEC                     PREINC0         equ	4076	;# 
   230   000FED                     POSTDEC0        equ	4077	;# 
   231   000FEE                     POSTINC0        equ	4078	;# 
   232   000FEF                     INDF0           equ	4079	;# 
   233   000FF0                     INTCON3         equ	4080	;# 
   234   000FF1                     INTCON2         equ	4081	;# 
   235   000FF2                     INTCON          equ	4082	;# 
   236   000FF3                     PROD            equ	4083	;# 
   237   000FF3                     PRODL           equ	4083	;# 
   238   000FF4                     PRODH           equ	4084	;# 
   239   000FF5                     TABLAT          equ	4085	;# 
   240   000FF6                     TBLPTR          equ	4086	;# 
   241   000FF6                     TBLPTRL         equ	4086	;# 
   242   000FF7                     TBLPTRH         equ	4087	;# 
   243   000FF8                     TBLPTRU         equ	4088	;# 
   244   000FF9                     PCLAT           equ	4089	;# 
   245   000FF9                     PC              equ	4089	;# 
   246   000FF9                     PCL             equ	4089	;# 
   247   000FFA                     PCLATH          equ	4090	;# 
   248   000FFB                     PCLATU          equ	4091	;# 
   249   000FFC                     STKPTR          equ	4092	;# 
   250   000FFD                     TOS             equ	4093	;# 
   251   000FFD                     TOSL            equ	4093	;# 
   252   000FFE                     TOSH            equ	4094	;# 
   253   000FFF                     TOSU            equ	4095	;# 
   254   000F80                     PORTA           equ	3968	;# 
   255   000F81                     PORTB           equ	3969	;# 
   256   000F82                     PORTC           equ	3970	;# 
   257   000F83                     PORTD           equ	3971	;# 
   258   000F84                     PORTE           equ	3972	;# 
   259   000F89                     LATA            equ	3977	;# 
   260   000F8A                     LATB            equ	3978	;# 
   261   000F8B                     LATC            equ	3979	;# 
   262   000F8C                     LATD            equ	3980	;# 
   263   000F8D                     LATE            equ	3981	;# 
   264   000F92                     TRISA           equ	3986	;# 
   265   000F92                     DDRA            equ	3986	;# 
   266   000F93                     TRISB           equ	3987	;# 
   267   000F93                     DDRB            equ	3987	;# 
   268   000F94                     TRISC           equ	3988	;# 
   269   000F94                     DDRC            equ	3988	;# 
   270   000F95                     TRISD           equ	3989	;# 
   271   000F95                     DDRD            equ	3989	;# 
   272   000F96                     TRISE           equ	3990	;# 
   273   000F96                     DDRE            equ	3990	;# 
   274   000F9B                     OSCTUNE         equ	3995	;# 
   275   000F9D                     PIE1            equ	3997	;# 
   276   000F9E                     PIR1            equ	3998	;# 
   277   000F9F                     IPR1            equ	3999	;# 
   278   000FA0                     PIE2            equ	4000	;# 
   279   000FA1                     PIR2            equ	4001	;# 
   280   000FA2                     IPR2            equ	4002	;# 
   281   000FA6                     EECON1          equ	4006	;# 
   282   000FA7                     EECON2          equ	4007	;# 
   283   000FA8                     EEDATA          equ	4008	;# 
   284   000FA9                     EEADR           equ	4009	;# 
   285   000FAB                     RCSTA           equ	4011	;# 
   286   000FAB                     RCSTA1          equ	4011	;# 
   287   000FAC                     TXSTA           equ	4012	;# 
   288   000FAC                     TXSTA1          equ	4012	;# 
   289   000FAD                     TXREG           equ	4013	;# 
   290   000FAD                     TXREG1          equ	4013	;# 
   291   000FAE                     RCREG           equ	4014	;# 
   292   000FAE                     RCREG1          equ	4014	;# 
   293   000FAF                     SPBRG           equ	4015	;# 
   294   000FAF                     SPBRG1          equ	4015	;# 
   295   000FB0                     SPBRGH          equ	4016	;# 
   296   000FB1                     T3CON           equ	4017	;# 
   297   000FB2                     TMR3            equ	4018	;# 
   298   000FB2                     TMR3L           equ	4018	;# 
   299   000FB3                     TMR3H           equ	4019	;# 
   300   000FB4                     CMCON           equ	4020	;# 
   301   000FB5                     CVRCON          equ	4021	;# 
   302   000FB6                     ECCP1AS         equ	4022	;# 
   303   000FB7                     ECCP1DEL        equ	4023	;# 
   304   000FB7                     PWM1CON         equ	4023	;# 
   305   000FB8                     BAUDCON         equ	4024	;# 
   306   000FB8                     BAUDCTL         equ	4024	;# 
   307   000FBA                     CCP2CON         equ	4026	;# 
   308   000FBB                     CCPR2           equ	4027	;# 
   309   000FBB                     CCPR2L          equ	4027	;# 
   310   000FBC                     CCPR2H          equ	4028	;# 
   311   000FBD                     CCP1CON         equ	4029	;# 
   312   000FBD                     ECCP1CON        equ	4029	;# 
   313   000FBE                     CCPR1           equ	4030	;# 
   314   000FBE                     CCPR1L          equ	4030	;# 
   315   000FBF                     CCPR1H          equ	4031	;# 
   316   000FC0                     ADCON2          equ	4032	;# 
   317   000FC1                     ADCON1          equ	4033	;# 
   318   000FC2                     ADCON0          equ	4034	;# 
   319   000FC3                     ADRES           equ	4035	;# 
   320   000FC3                     ADRESL          equ	4035	;# 
   321   000FC4                     ADRESH          equ	4036	;# 
   322   000FC5                     SSPCON2         equ	4037	;# 
   323   000FC6                     SSPCON1         equ	4038	;# 
   324   000FC7                     SSPSTAT         equ	4039	;# 
   325   000FC8                     SSPADD          equ	4040	;# 
   326   000FC9                     SSPBUF          equ	4041	;# 
   327   000FCA                     T2CON           equ	4042	;# 
   328   000FCB                     PR2             equ	4043	;# 
   329   000FCB                     MEMCON          equ	4043	;# 
   330   000FCC                     TMR2            equ	4044	;# 
   331   000FCD                     T1CON           equ	4045	;# 
   332   000FCE                     TMR1            equ	4046	;# 
   333   000FCE                     TMR1L           equ	4046	;# 
   334   000FCF                     TMR1H           equ	4047	;# 
   335   000FD0                     RCON            equ	4048	;# 
   336   000FD1                     WDTCON          equ	4049	;# 
   337   000FD2                     HLVDCON         equ	4050	;# 
   338   000FD2                     LVDCON          equ	4050	;# 
   339   000FD3                     OSCCON          equ	4051	;# 
   340   000FD5                     T0CON           equ	4053	;# 
   341   000FD6                     TMR0            equ	4054	;# 
   342   000FD6                     TMR0L           equ	4054	;# 
   343   000FD7                     TMR0H           equ	4055	;# 
   344   000FD8                     STATUS          equ	4056	;# 
   345   000FD9                     FSR2            equ	4057	;# 
   346   000FD9                     FSR2L           equ	4057	;# 
   347   000FDA                     FSR2H           equ	4058	;# 
   348   000FDB                     PLUSW2          equ	4059	;# 
   349   000FDC                     PREINC2         equ	4060	;# 
   350   000FDD                     POSTDEC2        equ	4061	;# 
   351   000FDE                     POSTINC2        equ	4062	;# 
   352   000FDF                     INDF2           equ	4063	;# 
   353   000FE0                     BSR             equ	4064	;# 
   354   000FE1                     FSR1            equ	4065	;# 
   355   000FE1                     FSR1L           equ	4065	;# 
   356   000FE2                     FSR1H           equ	4066	;# 
   357   000FE3                     PLUSW1          equ	4067	;# 
   358   000FE4                     PREINC1         equ	4068	;# 
   359   000FE5                     POSTDEC1        equ	4069	;# 
   360   000FE6                     POSTINC1        equ	4070	;# 
   361   000FE7                     INDF1           equ	4071	;# 
   362   000FE8                     WREG            equ	4072	;# 
   363   000FE9                     FSR0            equ	4073	;# 
   364   000FE9                     FSR0L           equ	4073	;# 
   365   000FEA                     FSR0H           equ	4074	;# 
   366   000FEB                     PLUSW0          equ	4075	;# 
   367   000FEC                     PREINC0         equ	4076	;# 
   368   000FED                     POSTDEC0        equ	4077	;# 
   369   000FEE                     POSTINC0        equ	4078	;# 
   370   000FEF                     INDF0           equ	4079	;# 
   371   000FF0                     INTCON3         equ	4080	;# 
   372   000FF1                     INTCON2         equ	4081	;# 
   373   000FF2                     INTCON          equ	4082	;# 
   374   000FF3                     PROD            equ	4083	;# 
   375   000FF3                     PRODL           equ	4083	;# 
   376   000FF4                     PRODH           equ	4084	;# 
   377   000FF5                     TABLAT          equ	4085	;# 
   378   000FF6                     TBLPTR          equ	4086	;# 
   379   000FF6                     TBLPTRL         equ	4086	;# 
   380   000FF7                     TBLPTRH         equ	4087	;# 
   381   000FF8                     TBLPTRU         equ	4088	;# 
   382   000FF9                     PCLAT           equ	4089	;# 
   383   000FF9                     PC              equ	4089	;# 
   384   000FF9                     PCL             equ	4089	;# 
   385   000FFA                     PCLATH          equ	4090	;# 
   386   000FFB                     PCLATU          equ	4091	;# 
   387   000FFC                     STKPTR          equ	4092	;# 
   388   000FFD                     TOS             equ	4093	;# 
   389   000FFD                     TOSL            equ	4093	;# 
   390   000FFE                     TOSH            equ	4094	;# 
   391   000FFF                     TOSU            equ	4095	;# 
   392   000F80                     PORTA           equ	3968	;# 
   393   000F81                     PORTB           equ	3969	;# 
   394   000F82                     PORTC           equ	3970	;# 
   395   000F83                     PORTD           equ	3971	;# 
   396   000F84                     PORTE           equ	3972	;# 
   397   000F89                     LATA            equ	3977	;# 
   398   000F8A                     LATB            equ	3978	;# 
   399   000F8B                     LATC            equ	3979	;# 
   400   000F8C                     LATD            equ	3980	;# 
   401   000F8D                     LATE            equ	3981	;# 
   402   000F92                     TRISA           equ	3986	;# 
   403   000F92                     DDRA            equ	3986	;# 
   404   000F93                     TRISB           equ	3987	;# 
   405   000F93                     DDRB            equ	3987	;# 
   406   000F94                     TRISC           equ	3988	;# 
   407   000F94                     DDRC            equ	3988	;# 
   408   000F95                     TRISD           equ	3989	;# 
   409   000F95                     DDRD            equ	3989	;# 
   410   000F96                     TRISE           equ	3990	;# 
   411   000F96                     DDRE            equ	3990	;# 
   412   000F9B                     OSCTUNE         equ	3995	;# 
   413   000F9D                     PIE1            equ	3997	;# 
   414   000F9E                     PIR1            equ	3998	;# 
   415   000F9F                     IPR1            equ	3999	;# 
   416   000FA0                     PIE2            equ	4000	;# 
   417   000FA1                     PIR2            equ	4001	;# 
   418   000FA2                     IPR2            equ	4002	;# 
   419   000FA6                     EECON1          equ	4006	;# 
   420   000FA7                     EECON2          equ	4007	;# 
   421   000FA8                     EEDATA          equ	4008	;# 
   422   000FA9                     EEADR           equ	4009	;# 
   423   000FAB                     RCSTA           equ	4011	;# 
   424   000FAB                     RCSTA1          equ	4011	;# 
   425   000FAC                     TXSTA           equ	4012	;# 
   426   000FAC                     TXSTA1          equ	4012	;# 
   427   000FAD                     TXREG           equ	4013	;# 
   428   000FAD                     TXREG1          equ	4013	;# 
   429   000FAE                     RCREG           equ	4014	;# 
   430   000FAE                     RCREG1          equ	4014	;# 
   431   000FAF                     SPBRG           equ	4015	;# 
   432   000FAF                     SPBRG1          equ	4015	;# 
   433   000FB0                     SPBRGH          equ	4016	;# 
   434   000FB1                     T3CON           equ	4017	;# 
   435   000FB2                     TMR3            equ	4018	;# 
   436   000FB2                     TMR3L           equ	4018	;# 
   437   000FB3                     TMR3H           equ	4019	;# 
   438   000FB4                     CMCON           equ	4020	;# 
   439   000FB5                     CVRCON          equ	4021	;# 
   440   000FB6                     ECCP1AS         equ	4022	;# 
   441   000FB7                     ECCP1DEL        equ	4023	;# 
   442   000FB7                     PWM1CON         equ	4023	;# 
   443   000FB8                     BAUDCON         equ	4024	;# 
   444   000FB8                     BAUDCTL         equ	4024	;# 
   445   000FBA                     CCP2CON         equ	4026	;# 
   446   000FBB                     CCPR2           equ	4027	;# 
   447   000FBB                     CCPR2L          equ	4027	;# 
   448   000FBC                     CCPR2H          equ	4028	;# 
   449   000FBD                     CCP1CON         equ	4029	;# 
   450   000FBD                     ECCP1CON        equ	4029	;# 
   451   000FBE                     CCPR1           equ	4030	;# 
   452   000FBE                     CCPR1L          equ	4030	;# 
   453   000FBF                     CCPR1H          equ	4031	;# 
   454   000FC0                     ADCON2          equ	4032	;# 
   455   000FC1                     ADCON1          equ	4033	;# 
   456   000FC2                     ADCON0          equ	4034	;# 
   457   000FC3                     ADRES           equ	4035	;# 
   458   000FC3                     ADRESL          equ	4035	;# 
   459   000FC4                     ADRESH          equ	4036	;# 
   460   000FC5                     SSPCON2         equ	4037	;# 
   461   000FC6                     SSPCON1         equ	4038	;# 
   462   000FC7                     SSPSTAT         equ	4039	;# 
   463   000FC8                     SSPADD          equ	4040	;# 
   464   000FC9                     SSPBUF          equ	4041	;# 
   465   000FCA                     T2CON           equ	4042	;# 
   466   000FCB                     PR2             equ	4043	;# 
   467   000FCB                     MEMCON          equ	4043	;# 
   468   000FCC                     TMR2            equ	4044	;# 
   469   000FCD                     T1CON           equ	4045	;# 
   470   000FCE                     TMR1            equ	4046	;# 
   471   000FCE                     TMR1L           equ	4046	;# 
   472   000FCF                     TMR1H           equ	4047	;# 
   473   000FD0                     RCON            equ	4048	;# 
   474   000FD1                     WDTCON          equ	4049	;# 
   475   000FD2                     HLVDCON         equ	4050	;# 
   476   000FD2                     LVDCON          equ	4050	;# 
   477   000FD3                     OSCCON          equ	4051	;# 
   478   000FD5                     T0CON           equ	4053	;# 
   479   000FD6                     TMR0            equ	4054	;# 
   480   000FD6                     TMR0L           equ	4054	;# 
   481   000FD7                     TMR0H           equ	4055	;# 
   482   000FD8                     STATUS          equ	4056	;# 
   483   000FD9                     FSR2            equ	4057	;# 
   484   000FD9                     FSR2L           equ	4057	;# 
   485   000FDA                     FSR2H           equ	4058	;# 
   486   000FDB                     PLUSW2          equ	4059	;# 
   487   000FDC                     PREINC2         equ	4060	;# 
   488   000FDD                     POSTDEC2        equ	4061	;# 
   489   000FDE                     POSTINC2        equ	4062	;# 
   490   000FDF                     INDF2           equ	4063	;# 
   491   000FE0                     BSR             equ	4064	;# 
   492   000FE1                     FSR1            equ	4065	;# 
   493   000FE1                     FSR1L           equ	4065	;# 
   494   000FE2                     FSR1H           equ	4066	;# 
   495   000FE3                     PLUSW1          equ	4067	;# 
   496   000FE4                     PREINC1         equ	4068	;# 
   497   000FE5                     POSTDEC1        equ	4069	;# 
   498   000FE6                     POSTINC1        equ	4070	;# 
   499   000FE7                     INDF1           equ	4071	;# 
   500   000FE8                     WREG            equ	4072	;# 
   501   000FE9                     FSR0            equ	4073	;# 
   502   000FE9                     FSR0L           equ	4073	;# 
   503   000FEA                     FSR0H           equ	4074	;# 
   504   000FEB                     PLUSW0          equ	4075	;# 
   505   000FEC                     PREINC0         equ	4076	;# 
   506   000FED                     POSTDEC0        equ	4077	;# 
   507   000FEE                     POSTINC0        equ	4078	;# 
   508   000FEF                     INDF0           equ	4079	;# 
   509   000FF0                     INTCON3         equ	4080	;# 
   510   000FF1                     INTCON2         equ	4081	;# 
   511   000FF2                     INTCON          equ	4082	;# 
   512   000FF3                     PROD            equ	4083	;# 
   513   000FF3                     PRODL           equ	4083	;# 
   514   000FF4                     PRODH           equ	4084	;# 
   515   000FF5                     TABLAT          equ	4085	;# 
   516   000FF6                     TBLPTR          equ	4086	;# 
   517   000FF6                     TBLPTRL         equ	4086	;# 
   518   000FF7                     TBLPTRH         equ	4087	;# 
   519   000FF8                     TBLPTRU         equ	4088	;# 
   520   000FF9                     PCLAT           equ	4089	;# 
   521   000FF9                     PC              equ	4089	;# 
   522   000FF9                     PCL             equ	4089	;# 
   523   000FFA                     PCLATH          equ	4090	;# 
   524   000FFB                     PCLATU          equ	4091	;# 
   525   000FFC                     STKPTR          equ	4092	;# 
   526   000FFD                     TOS             equ	4093	;# 
   527   000FFD                     TOSL            equ	4093	;# 
   528   000FFE                     TOSH            equ	4094	;# 
   529   000FFF                     TOSU            equ	4095	;# 
   530   000F80                     PORTA           equ	3968	;# 
   531   000F81                     PORTB           equ	3969	;# 
   532   000F82                     PORTC           equ	3970	;# 
   533   000F83                     PORTD           equ	3971	;# 
   534   000F84                     PORTE           equ	3972	;# 
   535   000F89                     LATA            equ	3977	;# 
   536   000F8A                     LATB            equ	3978	;# 
   537   000F8B                     LATC            equ	3979	;# 
   538   000F8C                     LATD            equ	3980	;# 
   539   000F8D                     LATE            equ	3981	;# 
   540   000F92                     TRISA           equ	3986	;# 
   541   000F92                     DDRA            equ	3986	;# 
   542   000F93                     TRISB           equ	3987	;# 
   543   000F93                     DDRB            equ	3987	;# 
   544   000F94                     TRISC           equ	3988	;# 
   545   000F94                     DDRC            equ	3988	;# 
   546   000F95                     TRISD           equ	3989	;# 
   547   000F95                     DDRD            equ	3989	;# 
   548   000F96                     TRISE           equ	3990	;# 
   549   000F96                     DDRE            equ	3990	;# 
   550   000F9B                     OSCTUNE         equ	3995	;# 
   551   000F9D                     PIE1            equ	3997	;# 
   552   000F9E                     PIR1            equ	3998	;# 
   553   000F9F                     IPR1            equ	3999	;# 
   554   000FA0                     PIE2            equ	4000	;# 
   555   000FA1                     PIR2            equ	4001	;# 
   556   000FA2                     IPR2            equ	4002	;# 
   557   000FA6                     EECON1          equ	4006	;# 
   558   000FA7                     EECON2          equ	4007	;# 
   559   000FA8                     EEDATA          equ	4008	;# 
   560   000FA9                     EEADR           equ	4009	;# 
   561   000FAB                     RCSTA           equ	4011	;# 
   562   000FAB                     RCSTA1          equ	4011	;# 
   563   000FAC                     TXSTA           equ	4012	;# 
   564   000FAC                     TXSTA1          equ	4012	;# 
   565   000FAD                     TXREG           equ	4013	;# 
   566   000FAD                     TXREG1          equ	4013	;# 
   567   000FAE                     RCREG           equ	4014	;# 
   568   000FAE                     RCREG1          equ	4014	;# 
   569   000FAF                     SPBRG           equ	4015	;# 
   570   000FAF                     SPBRG1          equ	4015	;# 
   571   000FB0                     SPBRGH          equ	4016	;# 
   572   000FB1                     T3CON           equ	4017	;# 
   573   000FB2                     TMR3            equ	4018	;# 
   574   000FB2                     TMR3L           equ	4018	;# 
   575   000FB3                     TMR3H           equ	4019	;# 
   576   000FB4                     CMCON           equ	4020	;# 
   577   000FB5                     CVRCON          equ	4021	;# 
   578   000FB6                     ECCP1AS         equ	4022	;# 
   579   000FB7                     ECCP1DEL        equ	4023	;# 
   580   000FB7                     PWM1CON         equ	4023	;# 
   581   000FB8                     BAUDCON         equ	4024	;# 
   582   000FB8                     BAUDCTL         equ	4024	;# 
   583   000FBA                     CCP2CON         equ	4026	;# 
   584   000FBB                     CCPR2           equ	4027	;# 
   585   000FBB                     CCPR2L          equ	4027	;# 
   586   000FBC                     CCPR2H          equ	4028	;# 
   587   000FBD                     CCP1CON         equ	4029	;# 
   588   000FBD                     ECCP1CON        equ	4029	;# 
   589   000FBE                     CCPR1           equ	4030	;# 
   590   000FBE                     CCPR1L          equ	4030	;# 
   591   000FBF                     CCPR1H          equ	4031	;# 
   592   000FC0                     ADCON2          equ	4032	;# 
   593   000FC1                     ADCON1          equ	4033	;# 
   594   000FC2                     ADCON0          equ	4034	;# 
   595   000FC3                     ADRES           equ	4035	;# 
   596   000FC3                     ADRESL          equ	4035	;# 
   597   000FC4                     ADRESH          equ	4036	;# 
   598   000FC5                     SSPCON2         equ	4037	;# 
   599   000FC6                     SSPCON1         equ	4038	;# 
   600   000FC7                     SSPSTAT         equ	4039	;# 
   601   000FC8                     SSPADD          equ	4040	;# 
   602   000FC9                     SSPBUF          equ	4041	;# 
   603   000FCA                     T2CON           equ	4042	;# 
   604   000FCB                     PR2             equ	4043	;# 
   605   000FCB                     MEMCON          equ	4043	;# 
   606   000FCC                     TMR2            equ	4044	;# 
   607   000FCD                     T1CON           equ	4045	;# 
   608   000FCE                     TMR1            equ	4046	;# 
   609   000FCE                     TMR1L           equ	4046	;# 
   610   000FCF                     TMR1H           equ	4047	;# 
   611   000FD0                     RCON            equ	4048	;# 
   612   000FD1                     WDTCON          equ	4049	;# 
   613   000FD2                     HLVDCON         equ	4050	;# 
   614   000FD2                     LVDCON          equ	4050	;# 
   615   000FD3                     OSCCON          equ	4051	;# 
   616   000FD5                     T0CON           equ	4053	;# 
   617   000FD6                     TMR0            equ	4054	;# 
   618   000FD6                     TMR0L           equ	4054	;# 
   619   000FD7                     TMR0H           equ	4055	;# 
   620   000FD8                     STATUS          equ	4056	;# 
   621   000FD9                     FSR2            equ	4057	;# 
   622   000FD9                     FSR2L           equ	4057	;# 
   623   000FDA                     FSR2H           equ	4058	;# 
   624   000FDB                     PLUSW2          equ	4059	;# 
   625   000FDC                     PREINC2         equ	4060	;# 
   626   000FDD                     POSTDEC2        equ	4061	;# 
   627   000FDE                     POSTINC2        equ	4062	;# 
   628   000FDF                     INDF2           equ	4063	;# 
   629   000FE0                     BSR             equ	4064	;# 
   630   000FE1                     FSR1            equ	4065	;# 
   631   000FE1                     FSR1L           equ	4065	;# 
   632   000FE2                     FSR1H           equ	4066	;# 
   633   000FE3                     PLUSW1          equ	4067	;# 
   634   000FE4                     PREINC1         equ	4068	;# 
   635   000FE5                     POSTDEC1        equ	4069	;# 
   636   000FE6                     POSTINC1        equ	4070	;# 
   637   000FE7                     INDF1           equ	4071	;# 
   638   000FE8                     WREG            equ	4072	;# 
   639   000FE9                     FSR0            equ	4073	;# 
   640   000FE9                     FSR0L           equ	4073	;# 
   641   000FEA                     FSR0H           equ	4074	;# 
   642   000FEB                     PLUSW0          equ	4075	;# 
   643   000FEC                     PREINC0         equ	4076	;# 
   644   000FED                     POSTDEC0        equ	4077	;# 
   645   000FEE                     POSTINC0        equ	4078	;# 
   646   000FEF                     INDF0           equ	4079	;# 
   647   000FF0                     INTCON3         equ	4080	;# 
   648   000FF1                     INTCON2         equ	4081	;# 
   649   000FF2                     INTCON          equ	4082	;# 
   650   000FF3                     PROD            equ	4083	;# 
   651   000FF3                     PRODL           equ	4083	;# 
   652   000FF4                     PRODH           equ	4084	;# 
   653   000FF5                     TABLAT          equ	4085	;# 
   654   000FF6                     TBLPTR          equ	4086	;# 
   655   000FF6                     TBLPTRL         equ	4086	;# 
   656   000FF7                     TBLPTRH         equ	4087	;# 
   657   000FF8                     TBLPTRU         equ	4088	;# 
   658   000FF9                     PCLAT           equ	4089	;# 
   659   000FF9                     PC              equ	4089	;# 
   660   000FF9                     PCL             equ	4089	;# 
   661   000FFA                     PCLATH          equ	4090	;# 
   662   000FFB                     PCLATU          equ	4091	;# 
   663   000FFC                     STKPTR          equ	4092	;# 
   664   000FFD                     TOS             equ	4093	;# 
   665   000FFD                     TOSL            equ	4093	;# 
   666   000FFE                     TOSH            equ	4094	;# 
   667   000FFF                     TOSU            equ	4095	;# 
   668   000F80                     PORTA           equ	3968	;# 
   669   000F81                     PORTB           equ	3969	;# 
   670   000F82                     PORTC           equ	3970	;# 
   671   000F83                     PORTD           equ	3971	;# 
   672   000F84                     PORTE           equ	3972	;# 
   673   000F89                     LATA            equ	3977	;# 
   674   000F8A                     LATB            equ	3978	;# 
   675   000F8B                     LATC            equ	3979	;# 
   676   000F8C                     LATD            equ	3980	;# 
   677   000F8D                     LATE            equ	3981	;# 
   678   000F92                     TRISA           equ	3986	;# 
   679   000F92                     DDRA            equ	3986	;# 
   680   000F93                     TRISB           equ	3987	;# 
   681   000F93                     DDRB            equ	3987	;# 
   682   000F94                     TRISC           equ	3988	;# 
   683   000F94                     DDRC            equ	3988	;# 
   684   000F95                     TRISD           equ	3989	;# 
   685   000F95                     DDRD            equ	3989	;# 
   686   000F96                     TRISE           equ	3990	;# 
   687   000F96                     DDRE            equ	3990	;# 
   688   000F9B                     OSCTUNE         equ	3995	;# 
   689   000F9D                     PIE1            equ	3997	;# 
   690   000F9E                     PIR1            equ	3998	;# 
   691   000F9F                     IPR1            equ	3999	;# 
   692   000FA0                     PIE2            equ	4000	;# 
   693   000FA1                     PIR2            equ	4001	;# 
   694   000FA2                     IPR2            equ	4002	;# 
   695   000FA6                     EECON1          equ	4006	;# 
   696   000FA7                     EECON2          equ	4007	;# 
   697   000FA8                     EEDATA          equ	4008	;# 
   698   000FA9                     EEADR           equ	4009	;# 
   699   000FAB                     RCSTA           equ	4011	;# 
   700   000FAB                     RCSTA1          equ	4011	;# 
   701   000FAC                     TXSTA           equ	4012	;# 
   702   000FAC                     TXSTA1          equ	4012	;# 
   703   000FAD                     TXREG           equ	4013	;# 
   704   000FAD                     TXREG1          equ	4013	;# 
   705   000FAE                     RCREG           equ	4014	;# 
   706   000FAE                     RCREG1          equ	4014	;# 
   707   000FAF                     SPBRG           equ	4015	;# 
   708   000FAF                     SPBRG1          equ	4015	;# 
   709   000FB0                     SPBRGH          equ	4016	;# 
   710   000FB1                     T3CON           equ	4017	;# 
   711   000FB2                     TMR3            equ	4018	;# 
   712   000FB2                     TMR3L           equ	4018	;# 
   713   000FB3                     TMR3H           equ	4019	;# 
   714   000FB4                     CMCON           equ	4020	;# 
   715   000FB5                     CVRCON          equ	4021	;# 
   716   000FB6                     ECCP1AS         equ	4022	;# 
   717   000FB7                     ECCP1DEL        equ	4023	;# 
   718   000FB7                     PWM1CON         equ	4023	;# 
   719   000FB8                     BAUDCON         equ	4024	;# 
   720   000FB8                     BAUDCTL         equ	4024	;# 
   721   000FBA                     CCP2CON         equ	4026	;# 
   722   000FBB                     CCPR2           equ	4027	;# 
   723   000FBB                     CCPR2L          equ	4027	;# 
   724   000FBC                     CCPR2H          equ	4028	;# 
   725   000FBD                     CCP1CON         equ	4029	;# 
   726   000FBD                     ECCP1CON        equ	4029	;# 
   727   000FBE                     CCPR1           equ	4030	;# 
   728   000FBE                     CCPR1L          equ	4030	;# 
   729   000FBF                     CCPR1H          equ	4031	;# 
   730   000FC0                     ADCON2          equ	4032	;# 
   731   000FC1                     ADCON1          equ	4033	;# 
   732   000FC2                     ADCON0          equ	4034	;# 
   733   000FC3                     ADRES           equ	4035	;# 
   734   000FC3                     ADRESL          equ	4035	;# 
   735   000FC4                     ADRESH          equ	4036	;# 
   736   000FC5                     SSPCON2         equ	4037	;# 
   737   000FC6                     SSPCON1         equ	4038	;# 
   738   000FC7                     SSPSTAT         equ	4039	;# 
   739   000FC8                     SSPADD          equ	4040	;# 
   740   000FC9                     SSPBUF          equ	4041	;# 
   741   000FCA                     T2CON           equ	4042	;# 
   742   000FCB                     PR2             equ	4043	;# 
   743   000FCB                     MEMCON          equ	4043	;# 
   744   000FCC                     TMR2            equ	4044	;# 
   745   000FCD                     T1CON           equ	4045	;# 
   746   000FCE                     TMR1            equ	4046	;# 
   747   000FCE                     TMR1L           equ	4046	;# 
   748   000FCF                     TMR1H           equ	4047	;# 
   749   000FD0                     RCON            equ	4048	;# 
   750   000FD1                     WDTCON          equ	4049	;# 
   751   000FD2                     HLVDCON         equ	4050	;# 
   752   000FD2                     LVDCON          equ	4050	;# 
   753   000FD3                     OSCCON          equ	4051	;# 
   754   000FD5                     T0CON           equ	4053	;# 
   755   000FD6                     TMR0            equ	4054	;# 
   756   000FD6                     TMR0L           equ	4054	;# 
   757   000FD7                     TMR0H           equ	4055	;# 
   758   000FD8                     STATUS          equ	4056	;# 
   759   000FD9                     FSR2            equ	4057	;# 
   760   000FD9                     FSR2L           equ	4057	;# 
   761   000FDA                     FSR2H           equ	4058	;# 
   762   000FDB                     PLUSW2          equ	4059	;# 
   763   000FDC                     PREINC2         equ	4060	;# 
   764   000FDD                     POSTDEC2        equ	4061	;# 
   765   000FDE                     POSTINC2        equ	4062	;# 
   766   000FDF                     INDF2           equ	4063	;# 
   767   000FE0                     BSR             equ	4064	;# 
   768   000FE1                     FSR1            equ	4065	;# 
   769   000FE1                     FSR1L           equ	4065	;# 
   770   000FE2                     FSR1H           equ	4066	;# 
   771   000FE3                     PLUSW1          equ	4067	;# 
   772   000FE4                     PREINC1         equ	4068	;# 
   773   000FE5                     POSTDEC1        equ	4069	;# 
   774   000FE6                     POSTINC1        equ	4070	;# 
   775   000FE7                     INDF1           equ	4071	;# 
   776   000FE8                     WREG            equ	4072	;# 
   777   000FE9                     FSR0            equ	4073	;# 
   778   000FE9                     FSR0L           equ	4073	;# 
   779   000FEA                     FSR0H           equ	4074	;# 
   780   000FEB                     PLUSW0          equ	4075	;# 
   781   000FEC                     PREINC0         equ	4076	;# 
   782   000FED                     POSTDEC0        equ	4077	;# 
   783   000FEE                     POSTINC0        equ	4078	;# 
   784   000FEF                     INDF0           equ	4079	;# 
   785   000FF0                     INTCON3         equ	4080	;# 
   786   000FF1                     INTCON2         equ	4081	;# 
   787   000FF2                     INTCON          equ	4082	;# 
   788   000FF3                     PROD            equ	4083	;# 
   789   000FF3                     PRODL           equ	4083	;# 
   790   000FF4                     PRODH           equ	4084	;# 
   791   000FF5                     TABLAT          equ	4085	;# 
   792   000FF6                     TBLPTR          equ	4086	;# 
   793   000FF6                     TBLPTRL         equ	4086	;# 
   794   000FF7                     TBLPTRH         equ	4087	;# 
   795   000FF8                     TBLPTRU         equ	4088	;# 
   796   000FF9                     PCLAT           equ	4089	;# 
   797   000FF9                     PC              equ	4089	;# 
   798   000FF9                     PCL             equ	4089	;# 
   799   000FFA                     PCLATH          equ	4090	;# 
   800   000FFB                     PCLATU          equ	4091	;# 
   801   000FFC                     STKPTR          equ	4092	;# 
   802   000FFD                     TOS             equ	4093	;# 
   803   000FFD                     TOSL            equ	4093	;# 
   804   000FFE                     TOSH            equ	4094	;# 
   805   000FFF                     TOSU            equ	4095	;# 
   806                           
   807                           	psect	idataCOMRAM
   808   0008C2                     __pidataCOMRAM:
   809                           	callstack 0
   810                           
   811                           ;initializer for _lastDirY
   812   0008C2  FF                 	db	255
   813                           
   814                           ;initializer for _lastDirX
   815   0008C3  FF                 	db	255
   816                           
   817                           	psect	smallconst
   818   000200                     __psmallconst:
   819                           	callstack 0
   820   000200  00                 	db	0
   821   000201                     _frases:
   822                           	callstack 0
   823   000201  2B                 	db	low _frase0
   824   000202  1F                 	db	low _frase1
   825   000203  13                 	db	low _frase2
   826   000204  06                 	db	low _frase3
   827   000205  35                 	db	low _frase4
   828   000206                     __end_of_frases:
   829                           	callstack 0
   830   000206                     _frase3:
   831                           	callstack 0
   832   000206  4D                 	db	77
   833   000207  4F                 	db	79
   834   000208  56                 	db	86
   835   000209  45                 	db	69
   836   00020A  5F                 	db	95
   837   00020B  52                 	db	82
   838   00020C  49                 	db	73
   839   00020D  47                 	db	71
   840   00020E  48                 	db	72
   841   00020F  54                 	db	84
   842   000210  0D                 	db	13
   843   000211  0A                 	db	10
   844   000212  00                 	db	0
   845   000213                     __end_of_frase3:
   846                           	callstack 0
   847   000213                     _frase2:
   848                           	callstack 0
   849   000213  4D                 	db	77
   850   000214  4F                 	db	79
   851   000215  56                 	db	86
   852   000216  45                 	db	69
   853   000217  5F                 	db	95
   854   000218  4C                 	db	76
   855   000219  45                 	db	69
   856   00021A  46                 	db	70
   857   00021B  54                 	db	84
   858   00021C  0D                 	db	13
   859   00021D  0A                 	db	10
   860   00021E  00                 	db	0
   861   00021F                     __end_of_frase2:
   862                           	callstack 0
   863   00021F                     _frase1:
   864                           	callstack 0
   865   00021F  4D                 	db	77
   866   000220  4F                 	db	79
   867   000221  56                 	db	86
   868   000222  45                 	db	69
   869   000223  5F                 	db	95
   870   000224  44                 	db	68
   871   000225  4F                 	db	79
   872   000226  57                 	db	87
   873   000227  4E                 	db	78
   874   000228  0D                 	db	13
   875   000229  0A                 	db	10
   876   00022A  00                 	db	0
   877   00022B                     __end_of_frase1:
   878                           	callstack 0
   879   00022B                     _frase0:
   880                           	callstack 0
   881   00022B  4D                 	db	77
   882   00022C  4F                 	db	79
   883   00022D  56                 	db	86
   884   00022E  45                 	db	69
   885   00022F  5F                 	db	95
   886   000230  55                 	db	85
   887   000231  50                 	db	80
   888   000232  0D                 	db	13
   889   000233  0A                 	db	10
   890   000234  00                 	db	0
   891   000235                     __end_of_frase0:
   892                           	callstack 0
   893   000235                     _frase4:
   894                           	callstack 0
   895   000235  53                 	db	83
   896   000236  45                 	db	69
   897   000237  4C                 	db	76
   898   000238  45                 	db	69
   899   000239  43                 	db	67
   900   00023A  54                 	db	84
   901   00023B  0D                 	db	13
   902   00023C  0A                 	db	10
   903   00023D  00                 	db	0
   904   00023E                     __end_of_frase4:
   905                           	callstack 0
   906   007F92                     _TMR0IF         set	32658
   907   000FD6                     _TMR0           set	4054
   908   000FF2                     _INTCONbits     set	4082
   909   000FD5                     _T0CON          set	4053
   910   000FAE                     _RCREG          set	4014
   911   000FAD                     _TXREG          set	4013
   912   000F9E                     _PIR1bits       set	3998
   913   000FB0                     _SPBRGH         set	4016
   914   000FAF                     _SPBRG          set	4015
   915   000FAB                     _RCSTAbits      set	4011
   916   000FAC                     _TXSTAbits      set	4012
   917   000F81                     _PORTBbits      set	3969
   918   000FC3                     _ADRESL         set	4035
   919   000FC4                     _ADRESH         set	4036
   920   000FC2                     _ADCON0bits     set	4034
   921   000FC0                     _ADCON2         set	4032
   922   000FC1                     _ADCON1         set	4033
   923   000FC2                     _ADCON0         set	4034
   924   000FF1                     _INTCON2bits    set	4081
   925   000F93                     _TRISBbits      set	3987
   926   00023E  00                 	db	0	; dummy byte at the end
   927   000200                     __smallconst    set	__psmallconst
   928   000200                     __mediumconst   set	__psmallconst
   929   000002                     __activetblptr  equ	2
   930                           
   931                           ; #config settings
   932                           
   933                           	psect	cinit
   934   00072C                     __pcinit:
   935                           	callstack 0
   936   00072C                     start_initialization:
   937                           	callstack 0
   938   00072C                     __initialization:
   939                           	callstack 0
   940                           
   941                           ; Initialize objects allocated to COMRAM (2 bytes)
   942                           ; load TBLPTR registers with __pidataCOMRAM
   943   00072C  0EC2               	movlw	low __pidataCOMRAM
   944   00072E  6EF6               	movwf	tblptrl,c
   945   000730  0E08               	movlw	high __pidataCOMRAM
   946   000732  6EF7               	movwf	tblptrh,c
   947   000734  0E00               	movlw	low (__pidataCOMRAM shr (0+16))
   948   000736  6EF8               	movwf	tblptru,c
   949   000738  0009               	tblrd		*+	;fetch initializer
   950   00073A  CFF5 F03B          	movff	tablat,__pdataCOMRAM
   951   00073E  0009               	tblrd		*+	;fetch initializer
   952   000740  CFF5 F03C          	movff	tablat,__pdataCOMRAM+1
   953                           
   954                           ; Clear objects allocated to BANK0 (100 bytes)
   955   000744  EE00  F080         	lfsr	0,__pbssBANK0
   956   000748  0E64               	movlw	100
   957   00074A                     clear_0:
   958   00074A  6AEE               	clrf	postinc0,c
   959   00074C  06E8               	decf	wreg,f,c
   960   00074E  E1FD               	bnz	clear_0
   961                           
   962                           ; Clear objects allocated to COMRAM (43 bytes)
   963   000750  EE00  F001         	lfsr	0,__pbssCOMRAM
   964   000754  0E2B               	movlw	43
   965   000756                     clear_1:
   966   000756  6AEE               	clrf	postinc0,c
   967   000758  06E8               	decf	wreg,f,c
   968   00075A  E1FD               	bnz	clear_1
   969   00075C                     end_of_initialization:
   970                           	callstack 0
   971   00075C                     __end_of__initialization:
   972                           	callstack 0
   973   00075C  903D               	bcf	int$flags,0,c	;clear compiler interrupt flag (level 1)
   974   00075E  923D               	bcf	int$flags,1,c	;clear compiler interrupt flag (level 2)
   975   000760  0E00               	movlw	low (__Lmediumconst shr (0+16))
   976   000762  6EF8               	movwf	tblptru,c
   977   000764  0100               	movlb	0
   978   000766  EFCF  F003         	goto	_main	;jump to C main() function
   979                           
   980                           	psect	bssCOMRAM
   981   000001                     __pbssCOMRAM:
   982                           	callstack 0
   983   000001                     _Timers:
   984                           	callstack 0
   985   000001                     	ds	20
   986   000015                     _Tics:
   987                           	callstack 0
   988   000015                     	ds	4
   989   000019                     _valorY:
   990                           	callstack 0
   991   000019                     	ds	2
   992   00001B                     _valorX:
   993                           	callstack 0
   994   00001B                     	ds	2
   995   00001D                     _valueY:
   996                           	callstack 0
   997   00001D                     	ds	2
   998   00001F                     _valueX:
   999                           	callstack 0
  1000   00001F                     	ds	2
  1001   000021                     _pTxFrase:
  1002                           	callstack 0
  1003   000021                     	ds	1
  1004   000022                     _permisosEscritura:
  1005                           	callstack 0
  1006   000022                     	ds	1
  1007   000023                     	ds	1
  1008   000024                     _indice:
  1009                           	callstack 0
  1010   000024                     	ds	1
  1011   000025                     _estado:
  1012                           	callstack 0
  1013   000025                     	ds	1
  1014   000026                     DSP_Motor@i:
  1015                           	callstack 0
  1016   000026                     	ds	1
  1017   000027                     DSP_Motor@estado:
  1018                           	callstack 0
  1019   000027                     	ds	1
  1020   000028                     _flagRebotes:
  1021                           	callstack 0
  1022   000028                     	ds	1
  1023   000029                     _dataReady:
  1024                           	callstack 0
  1025   000029                     	ds	1
  1026   00002A                     _estat:
  1027                           	callstack 0
  1028   00002A                     	ds	1
  1029   00002B                     _timerRebotes:
  1030                           	callstack 0
  1031   00002B                     	ds	1
  1032                           
  1033                           	psect	dataCOMRAM
  1034   00003B                     __pdataCOMRAM:
  1035                           	callstack 0
  1036   00003B                     _lastDirY:
  1037                           	callstack 0
  1038   00003B                     	ds	1
  1039   00003C                     _lastDirX:
  1040                           	callstack 0
  1041   00003C                     	ds	1
  1042                           
  1043                           	psect	bssBANK0
  1044   000080                     __pbssBANK0:
  1045                           	callstack 0
  1046   000080                     _readArr:
  1047                           	callstack 0
  1048   000080                     	ds	100
  1049                           
  1050                           	psect	cstackCOMRAM
  1051   00002C                     __pcstackCOMRAM:
  1052                           	callstack 0
  1053   00002C                     ?_ADC_GetX:
  1054                           	callstack 0
  1055   00002C                     ?_ADC_GetY:
  1056                           	callstack 0
  1057   00002C                     ?_TI_GetTics:
  1058                           	callstack 0
  1059   00002C                     SERIAL_ReadByte@b:
  1060                           	callstack 0
  1061   00002C                     guardarCharArr@aux:
  1062                           	callstack 0
  1063   00002C                     TI_Init@counter:
  1064                           	callstack 0
  1065   00002C                     TI_NewTimer@TimerHandle:
  1066                           	callstack 0
  1067   00002C                     TI_ResetTics@TimerHandle:
  1068                           	callstack 0
  1069   00002C                     ??_ADC_Motor:
  1070   00002C                     ??_SERIAL_PutString:
  1071   00002C                     
  1072                           ; 1 bytes @ 0x0
  1073   00002C                     	ds	1
  1074   00002D                     SERIAL_PutString@s:
  1075                           	callstack 0
  1076   00002D                     
  1077                           ; 1 bytes @ 0x1
  1078   00002D                     	ds	1
  1079   00002E                     Motor_Serial@c:
  1080                           	callstack 0
  1081   00002E                     TI_NewTimer@Comptador:
  1082                           	callstack 0
  1083   00002E                     
  1084                           ; 1 bytes @ 0x2
  1085   00002E                     	ds	1
  1086   00002F                     Motor_Serial@aux:
  1087                           	callstack 0
  1088   00002F                     
  1089                           ; 1 bytes @ 0x3
  1090   00002F                     	ds	1
  1091   000030                     ??_TI_GetTics:
  1092                           
  1093                           ; 1 bytes @ 0x4
  1094   000030                     	ds	4
  1095   000034                     TI_GetTics@CopiaTicsActual:
  1096                           	callstack 0
  1097                           
  1098                           ; 4 bytes @ 0x8
  1099   000034                     	ds	4
  1100   000038                     TI_GetTics@TimerHandle:
  1101                           	callstack 0
  1102                           
  1103                           ; 1 bytes @ 0xC
  1104   000038                     	ds	1
  1105   000039                     ??_DSP_Motor:
  1106                           
  1107                           ; 1 bytes @ 0xD
  1108   000039                     	ds	2
  1109   00003B                     
  1110                           ; 1 bytes @ 0xF
  1111 ;;
  1112 ;;Main: autosize = 0, tempsize = 0, incstack = 0, save=0
  1113 ;;
  1114 ;; *************** function _main *****************
  1115 ;; Defined at:
  1116 ;;		line 30 in file "main.c"
  1117 ;; Parameters:    Size  Location     Type
  1118 ;;		None
  1119 ;; Auto vars:     Size  Location     Type
  1120 ;;		None
  1121 ;; Return value:  Size  Location     Type
  1122 ;;                  1    wreg      void 
  1123 ;; Registers used:
  1124 ;;		wreg, fsr2l, fsr2h, status,2, status,0, tblptrl, tblptrh, tblptru, prodl, prodh, cstack
  1125 ;; Tracked objects:
  1126 ;;		On entry : 0/0
  1127 ;;		On exit  : 0/0
  1128 ;;		Unchanged: 0/0
  1129 ;; Data sizes:     COMRAM   BANK0   BANK1
  1130 ;;      Params:         0       0       0
  1131 ;;      Locals:         0       0       0
  1132 ;;      Temps:          0       0       0
  1133 ;;      Totals:         0       0       0
  1134 ;;Total ram usage:        0 bytes
  1135 ;; Hardware stack levels required when called: 4
  1136 ;; This function calls:
  1137 ;;		_ADC_Init
  1138 ;;		_ADC_Motor
  1139 ;;		_DSP_Init
  1140 ;;		_DSP_Motor
  1141 ;;		_Motor_Serial
  1142 ;;		_SERIAL_Init
  1143 ;;		_TI_Init
  1144 ;;		_initPorts
  1145 ;; This function is called by:
  1146 ;;		Startup code after reset
  1147 ;; This function uses a non-reentrant model
  1148 ;;
  1149                           
  1150                           	psect	text0
  1151   00079E                     __ptext0:
  1152                           	callstack 0
  1153   00079E                     _main:
  1154                           	callstack 27
  1155   00079E  EC5A  F004         	call	_initPorts	;wreg free
  1156   0007A2  ECB5  F003         	call	_TI_Init	;wreg free
  1157   0007A6  EC05  F004         	call	_ADC_Init	;wreg free
  1158   0007AA  EC22  F004         	call	_DSP_Init	;wreg free
  1159   0007AE  ECF5  F003         	call	_SERIAL_Init	;wreg free
  1160   0007B2                     l1456:
  1161   0007B2  ECAE  F002         	call	_ADC_Motor	;wreg free
  1162   0007B6  EC20  F001         	call	_DSP_Motor	;wreg free
  1163   0007BA  EC4A  F002         	call	_Motor_Serial	;wreg free
  1164   0007BE  EFD9  F003         	goto	l1456
  1165   0007C2  EF10  F000         	goto	start
  1166   0007C6                     __end_of_main:
  1167                           	callstack 0
  1168                           
  1169 ;; *************** function _initPorts *****************
  1170 ;; Defined at:
  1171 ;;		line 25 in file "main.c"
  1172 ;; Parameters:    Size  Location     Type
  1173 ;;		None
  1174 ;; Auto vars:     Size  Location     Type
  1175 ;;		None
  1176 ;; Return value:  Size  Location     Type
  1177 ;;                  1    wreg      void 
  1178 ;; Registers used:
  1179 ;;		None
  1180 ;; Tracked objects:
  1181 ;;		On entry : 0/0
  1182 ;;		On exit  : 0/0
  1183 ;;		Unchanged: 0/0
  1184 ;; Data sizes:     COMRAM   BANK0   BANK1
  1185 ;;      Params:         0       0       0
  1186 ;;      Locals:         0       0       0
  1187 ;;      Temps:          0       0       0
  1188 ;;      Totals:         0       0       0
  1189 ;;Total ram usage:        0 bytes
  1190 ;; Hardware stack levels used: 1
  1191 ;; Hardware stack levels required when called: 2
  1192 ;; This function calls:
  1193 ;;		Nothing
  1194 ;; This function is called by:
  1195 ;;		_main
  1196 ;; This function uses a non-reentrant model
  1197 ;;
  1198                           
  1199                           	psect	text1
  1200   0008B4                     __ptext1:
  1201                           	callstack 0
  1202   0008B4                     _initPorts:
  1203                           	callstack 28
  1204   0008B4                     
  1205                           ;main.c: 26:     }
  1206   0008B4  8493               	bsf	147,2,c	;volatile
  1207                           
  1208                           ;main.c: 27: }
  1209   0008B6  9EF1               	bcf	241,7,c	;volatile
  1210   0008B8  0012               	return		;funcret
  1211   0008BA                     __end_of_initPorts:
  1212                           	callstack 0
  1213                           
  1214 ;; *************** function _TI_Init *****************
  1215 ;; Defined at:
  1216 ;;		line 24 in file "TAD_TIMER.c"
  1217 ;; Parameters:    Size  Location     Type
  1218 ;;		None
  1219 ;; Auto vars:     Size  Location     Type
  1220 ;;  counter         1    0[COMRAM] unsigned char 
  1221 ;; Return value:  Size  Location     Type
  1222 ;;                  1    wreg      void 
  1223 ;; Registers used:
  1224 ;;		wreg, fsr2l, fsr2h, status,2, status,0, prodl, prodh
  1225 ;; Tracked objects:
  1226 ;;		On entry : 0/0
  1227 ;;		On exit  : 0/0
  1228 ;;		Unchanged: 0/0
  1229 ;; Data sizes:     COMRAM   BANK0   BANK1
  1230 ;;      Params:         0       0       0
  1231 ;;      Locals:         1       0       0
  1232 ;;      Temps:          0       0       0
  1233 ;;      Totals:         1       0       0
  1234 ;;Total ram usage:        1 bytes
  1235 ;; Hardware stack levels used: 1
  1236 ;; Hardware stack levels required when called: 2
  1237 ;; This function calls:
  1238 ;;		Nothing
  1239 ;; This function is called by:
  1240 ;;		_main
  1241 ;; This function uses a non-reentrant model
  1242 ;;
  1243                           
  1244                           	psect	text2
  1245   00076A                     __ptext2:
  1246                           	callstack 0
  1247   00076A                     _TI_Init:
  1248                           	callstack 28
  1249   00076A                     
  1250                           ;TAD_TIMER.c: 25:  for (unsigned char counter=0; counter<4; counter++) {
  1251   00076A  6A2C               	clrf	TI_Init@counter^0,c
  1252   00076C                     l1052:
  1253                           
  1254                           ;TAD_TIMER.c: 26:   Timers[counter].Busy=0;
  1255   00076C  502C               	movf	TI_Init@counter^0,w,c
  1256   00076E  0D05               	mullw	5
  1257   000770  50F3               	movf	243,w,c
  1258   000772  0F05               	addlw	low (_Timers+4)
  1259   000774  6ED9               	movwf	fsr2l,c
  1260   000776  6ADA               	clrf	fsr2h,c
  1261   000778  6ADF               	clrf	indf2,c
  1262   00077A                     
  1263                           ;TAD_TIMER.c: 27:  }
  1264   00077A  2A2C               	incf	TI_Init@counter^0,f,c
  1265   00077C  0E03               	movlw	3
  1266   00077E  642C               	cpfsgt	TI_Init@counter^0,c
  1267   000780  EFC4  F003         	goto	u121
  1268   000784  EFC6  F003         	goto	u120
  1269   000788                     u121:
  1270   000788  EFB6  F003         	goto	l1052
  1271   00078C                     u120:
  1272   00078C                     
  1273                           ;TAD_TIMER.c: 28:  T0CON=0x82;
  1274   00078C  0E82               	movlw	130
  1275   00078E  6ED5               	movwf	213,c	;volatile
  1276                           
  1277                           ;TAD_TIMER.c: 29:     TMR0=64911;
  1278   000790  0EFD               	movlw	253
  1279   000792  6ED7               	movwf	215,c	;volatile
  1280   000794  0E8F               	movlw	143
  1281   000796  6ED6               	movwf	214,c	;volatile
  1282   000798                     
  1283                           ;TAD_TIMER.c: 30:  INTCONbits.TMR0IF = 0;
  1284   000798  94F2               	bcf	242,2,c	;volatile
  1285   00079A                     
  1286                           ;TAD_TIMER.c: 31:  INTCONbits.TMR0IE = 1;
  1287   00079A  8AF2               	bsf	242,5,c	;volatile
  1288   00079C  0012               	return		;funcret
  1289   00079E                     __end_of_TI_Init:
  1290                           	callstack 0
  1291                           
  1292 ;; *************** function _SERIAL_Init *****************
  1293 ;; Defined at:
  1294 ;;		line 33 in file "TAD_SERIAL.c"
  1295 ;; Parameters:    Size  Location     Type
  1296 ;;		None
  1297 ;; Auto vars:     Size  Location     Type
  1298 ;;		None
  1299 ;; Return value:  Size  Location     Type
  1300 ;;                  1    wreg      void 
  1301 ;; Registers used:
  1302 ;;		wreg, status,2, cstack
  1303 ;; Tracked objects:
  1304 ;;		On entry : 0/0
  1305 ;;		On exit  : 0/0
  1306 ;;		Unchanged: 0/0
  1307 ;; Data sizes:     COMRAM   BANK0   BANK1
  1308 ;;      Params:         0       0       0
  1309 ;;      Locals:         0       0       0
  1310 ;;      Temps:          0       0       0
  1311 ;;      Totals:         0       0       0
  1312 ;;Total ram usage:        0 bytes
  1313 ;; Hardware stack levels used: 1
  1314 ;; Hardware stack levels required when called: 3
  1315 ;; This function calls:
  1316 ;;		_SERIAL_denegarEscritura
  1317 ;; This function is called by:
  1318 ;;		_main
  1319 ;; This function uses a non-reentrant model
  1320 ;;
  1321                           
  1322                           	psect	text3
  1323   0007EA                     __ptext3:
  1324                           	callstack 0
  1325   0007EA                     _SERIAL_Init:
  1326                           	callstack 27
  1327   0007EA                     
  1328                           ;TAD_SERIAL.c: 35:     TXSTAbits.SYNC = 0;
  1329   0007EA  98AC               	bcf	172,4,c	;volatile
  1330                           
  1331                           ;TAD_SERIAL.c: 36:     TXSTAbits.TX9 = 0;
  1332   0007EC  9CAC               	bcf	172,6,c	;volatile
  1333                           
  1334                           ;TAD_SERIAL.c: 37:     TXSTAbits.BRGH = 1;
  1335   0007EE  84AC               	bsf	172,2,c	;volatile
  1336                           
  1337                           ;TAD_SERIAL.c: 38:     TXSTAbits.TXEN = 1;
  1338   0007F0  8AAC               	bsf	172,5,c	;volatile
  1339                           
  1340                           ;TAD_SERIAL.c: 41:     RCSTAbits.SPEN = 1;
  1341   0007F2  8EAB               	bsf	171,7,c	;volatile
  1342                           
  1343                           ;TAD_SERIAL.c: 42:     RCSTAbits.RX9 = 0;
  1344   0007F4  9CAB               	bcf	171,6,c	;volatile
  1345                           
  1346                           ;TAD_SERIAL.c: 43:     RCSTAbits.CREN = 1;
  1347   0007F6  88AB               	bsf	171,4,c	;volatile
  1348   0007F8                     
  1349                           ;TAD_SERIAL.c: 48:     SPBRG = (unsigned char)((10000000UL / (16UL * 9600UL)) - 1UL);
  1350   0007F8  0E40               	movlw	64
  1351   0007FA  6EAF               	movwf	175,c	;volatile
  1352   0007FC                     
  1353                           ;TAD_SERIAL.c: 49:     SPBRGH = 0;
  1354   0007FC  6AB0               	clrf	176,c	;volatile
  1355   0007FE                     
  1356                           ;TAD_SERIAL.c: 52:     PIR1bits.RCIF = 0;
  1357   0007FE  9A9E               	bcf	158,5,c	;volatile
  1358                           
  1359                           ;TAD_SERIAL.c: 53:     estado = 1;
  1360   000800  0E01               	movlw	1
  1361   000802  6E25               	movwf	_estado^0,c
  1362   000804                     
  1363                           ;TAD_SERIAL.c: 55:     SERIAL_denegarEscritura();
  1364   000804  EC5D  F004         	call	_SERIAL_denegarEscritura	;wreg free
  1365   000808  0012               	return		;funcret
  1366   00080A                     __end_of_SERIAL_Init:
  1367                           	callstack 0
  1368                           
  1369 ;; *************** function _SERIAL_denegarEscritura *****************
  1370 ;; Defined at:
  1371 ;;		line 117 in file "TAD_SERIAL.c"
  1372 ;; Parameters:    Size  Location     Type
  1373 ;;		None
  1374 ;; Auto vars:     Size  Location     Type
  1375 ;;		None
  1376 ;; Return value:  Size  Location     Type
  1377 ;;                  1    wreg      void 
  1378 ;; Registers used:
  1379 ;;		None
  1380 ;; Tracked objects:
  1381 ;;		On entry : 0/0
  1382 ;;		On exit  : 0/0
  1383 ;;		Unchanged: 0/0
  1384 ;; Data sizes:     COMRAM   BANK0   BANK1
  1385 ;;      Params:         0       0       0
  1386 ;;      Locals:         0       0       0
  1387 ;;      Temps:          0       0       0
  1388 ;;      Totals:         0       0       0
  1389 ;;Total ram usage:        0 bytes
  1390 ;; Hardware stack levels used: 1
  1391 ;; Hardware stack levels required when called: 2
  1392 ;; This function calls:
  1393 ;;		Nothing
  1394 ;; This function is called by:
  1395 ;;		_SERIAL_Init
  1396 ;; This function uses a non-reentrant model
  1397 ;;
  1398                           
  1399                           	psect	text4
  1400   0008BA                     __ptext4:
  1401                           	callstack 0
  1402   0008BA                     _SERIAL_denegarEscritura:
  1403                           	callstack 27
  1404   0008BA                     
  1405                           ;TAD_SERIAL.c: 118:     permisosEscritura = 0;
  1406   0008BA  6A22               	clrf	_permisosEscritura^0,c
  1407   0008BC  0012               	return		;funcret
  1408   0008BE                     __end_of_SERIAL_denegarEscritura:
  1409                           	callstack 0
  1410                           
  1411 ;; *************** function _Motor_Serial *****************
  1412 ;; Defined at:
  1413 ;;		line 132 in file "TAD_SERIAL.c"
  1414 ;; Parameters:    Size  Location     Type
  1415 ;;		None
  1416 ;; Auto vars:     Size  Location     Type
  1417 ;;  c               1    2[COMRAM] unsigned char 
  1418 ;;  aux             1    3[COMRAM] unsigned char 
  1419 ;; Return value:  Size  Location     Type
  1420 ;;                  1    wreg      void 
  1421 ;; Registers used:
  1422 ;;		wreg, fsr2l, fsr2h, status,2, status,0, tblptrl, tblptrh, tblptru, cstack
  1423 ;; Tracked objects:
  1424 ;;		On entry : 0/0
  1425 ;;		On exit  : 0/0
  1426 ;;		Unchanged: 0/0
  1427 ;; Data sizes:     COMRAM   BANK0   BANK1
  1428 ;;      Params:         0       0       0
  1429 ;;      Locals:         2       0       0
  1430 ;;      Temps:          0       0       0
  1431 ;;      Totals:         2       0       0
  1432 ;;Total ram usage:        2 bytes
  1433 ;; Hardware stack levels used: 1
  1434 ;; Hardware stack levels required when called: 3
  1435 ;; This function calls:
  1436 ;;		_SERIAL_PutString
  1437 ;;		_SERIAL_ReadByte
  1438 ;;		_guardarCharArr
  1439 ;; This function is called by:
  1440 ;;		_main
  1441 ;; This function uses a non-reentrant model
  1442 ;;
  1443                           
  1444                           	psect	text5
  1445   000494                     __ptext5:
  1446                           	callstack 0
  1447   000494                     _Motor_Serial:
  1448                           	callstack 27
  1449   000494                     
  1450                           ;TAD_SERIAL.c: 133:     unsigned char aux;;TAD_SERIAL.c: 136:     switch(estado){
  1451   000494  EFA2  F002         	goto	l1444
  1452   000498                     l232:
  1453                           
  1454                           ;TAD_SERIAL.c: 138:             if (PIR1bits.TXIF) {
  1455   000498  A89E               	btfss	158,4,c	;volatile
  1456   00049A  EF51  F002         	goto	u651
  1457   00049E  EF53  F002         	goto	u650
  1458   0004A2                     u651:
  1459   0004A2  EFAD  F002         	goto	l241
  1460   0004A6                     u650:
  1461   0004A6                     
  1462                           ;TAD_SERIAL.c: 141:                 if(pTxFrase && *pTxFrase != '\0') {
  1463   0004A6  5021               	movf	_pTxFrase^0,w,c
  1464   0004A8  B4D8               	btfsc	status,2,c
  1465   0004AA  EF59  F002         	goto	u661
  1466   0004AE  EF5B  F002         	goto	u660
  1467   0004B2                     u661:
  1468   0004B2  EF75  F002         	goto	l234
  1469   0004B6                     u660:
  1470   0004B6  C021  FFF6         	movff	_pTxFrase,tblptrl
  1471   0004BA                     	if	1	;There is more than 1 active tblptr byte
  1472   0004BA  0E02               	movlw	high __smallconst
  1473   0004BC  6EF7               	movwf	tblptrh,c
  1474   0004BE                     	endif
  1475   0004BE                     	if	0	;tblptru may be non-zero
  1476   0004BE                     	endif
  1477   0004BE                     	if	0	;tblptru may be non-zero
  1478   0004BE                     	endif
  1479   0004BE  0008               	tblrd		*
  1480   0004C0  50F5               	movf	tablat,w,c
  1481   0004C2  0900               	iorlw	0
  1482   0004C4  B4D8               	btfsc	status,2,c
  1483   0004C6  EF67  F002         	goto	u671
  1484   0004CA  EF69  F002         	goto	u670
  1485   0004CE                     u671:
  1486   0004CE  EF75  F002         	goto	l234
  1487   0004D2                     u670:
  1488   0004D2                     
  1489                           ;TAD_SERIAL.c: 151:                     char c = *pTxFrase++;
  1490   0004D2  C021  FFF6         	movff	_pTxFrase,tblptrl
  1491   0004D6                     	if	1	;There is more than 1 active tblptr byte
  1492   0004D6  0E02               	movlw	high __smallconst
  1493   0004D8  6EF7               	movwf	tblptrh,c
  1494   0004DA                     	endif
  1495   0004DA                     	if	0	;tblptru may be non-zero
  1496   0004DA                     	endif
  1497   0004DA                     	if	0	;tblptru may be non-zero
  1498   0004DA                     	endif
  1499   0004DA  0008               	tblrd		*
  1500   0004DC  CFF5 F02E          	movff	tablat,Motor_Serial@c
  1501   0004E0  2A21               	incf	_pTxFrase^0,f,c
  1502   0004E2                     
  1503                           ;TAD_SERIAL.c: 152:                     TXREG = (unsigned char)c;
  1504   0004E2  C02E  FFAD         	movff	Motor_Serial@c,4013	;volatile
  1505                           
  1506                           ;TAD_SERIAL.c: 153:                 }else {
  1507   0004E6  EFAD  F002         	goto	l241
  1508   0004EA                     l234:
  1509                           
  1510                           ;TAD_SERIAL.c: 154:                     pTxFrase = 0;
  1511   0004EA  6A21               	clrf	_pTxFrase^0,c
  1512   0004EC                     
  1513                           ;TAD_SERIAL.c: 155:                     estado = 1;
  1514   0004EC  0E01               	movlw	1
  1515   0004EE  6E25               	movwf	_estado^0,c
  1516   0004F0  EFAD  F002         	goto	l241
  1517   0004F4                     l1430:
  1518                           
  1519                           ;TAD_SERIAL.c: 160:             if(SERIAL_ReadByte(&aux) && permisosEscritura == 1){
  1520   0004F4  0E2F               	movlw	low Motor_Serial@aux
  1521   0004F6  6E2C               	movwf	SERIAL_ReadByte@b^0,c
  1522   0004F8  EC73  F003         	call	_SERIAL_ReadByte	;wreg free
  1523   0004FC  0900               	iorlw	0
  1524   0004FE  B4D8               	btfsc	status,2,c
  1525   000500  EF84  F002         	goto	u681
  1526   000504  EF86  F002         	goto	u680
  1527   000508                     u681:
  1528   000508  EFAD  F002         	goto	l241
  1529   00050C                     u680:
  1530   00050C  0422               	decf	_permisosEscritura^0,w,c
  1531   00050E  A4D8               	btfss	status,2,c
  1532   000510  EF8C  F002         	goto	u691
  1533   000514  EF8E  F002         	goto	u690
  1534   000518                     u691:
  1535   000518  EFAD  F002         	goto	l241
  1536   00051C                     u690:
  1537   00051C                     
  1538                           ;TAD_SERIAL.c: 161:                 if(aux == '\r'){
  1539   00051C  0E0D               	movlw	13
  1540   00051E  182F               	xorwf	Motor_Serial@aux^0,w,c
  1541   000520  A4D8               	btfss	status,2,c
  1542   000522  EF95  F002         	goto	u701
  1543   000526  EF97  F002         	goto	u700
  1544   00052A                     u701:
  1545   00052A  EF9D  F002         	goto	l1440
  1546   00052E                     u700:
  1547   00052E                     
  1548                           ;TAD_SERIAL.c: 164:                     indice = 0;
  1549   00052E  6A24               	clrf	_indice^0,c
  1550   000530                     
  1551                           ;TAD_SERIAL.c: 165:                     SERIAL_PutString(12);
  1552   000530  0E0C               	movlw	12
  1553   000532  EC15  F004         	call	_SERIAL_PutString
  1554                           
  1555                           ;TAD_SERIAL.c: 166:                 }else{
  1556   000536  EFAD  F002         	goto	l241
  1557   00053A                     l1440:
  1558                           
  1559                           ;TAD_SERIAL.c: 167:                     guardarCharArr(aux);
  1560   00053A  502F               	movf	Motor_Serial@aux^0,w,c
  1561   00053C  EC27  F003         	call	_guardarCharArr
  1562   000540  EFAD  F002         	goto	l241
  1563   000544                     l1444:
  1564   000544  5025               	movf	_estado^0,w,c
  1565                           
  1566                           ; Switch size 1, requested type "simple"
  1567                           ; Number of cases is 2, Range of values is 0 to 1
  1568                           ; switch strategies available:
  1569                           ; Name         Instructions Cycles
  1570                           ; simple_byte            7     4 (average)
  1571                           ;	Chosen strategy is simple_byte
  1572   000546  0A00               	xorlw	0	; case 0
  1573   000548  B4D8               	btfsc	status,2,c
  1574   00054A  EF4C  F002         	goto	l232
  1575   00054E  0A01               	xorlw	1	; case 1
  1576   000550  B4D8               	btfsc	status,2,c
  1577   000552  EF7A  F002         	goto	l1430
  1578   000556  EFAD  F002         	goto	l241
  1579   00055A                     l241:
  1580   00055A  0012               	return		;funcret
  1581   00055C                     __end_of_Motor_Serial:
  1582                           	callstack 0
  1583                           
  1584 ;; *************** function _guardarCharArr *****************
  1585 ;; Defined at:
  1586 ;;		line 95 in file "TAD_SERIAL.c"
  1587 ;; Parameters:    Size  Location     Type
  1588 ;;  aux             1    wreg     unsigned char 
  1589 ;; Auto vars:     Size  Location     Type
  1590 ;;  aux             1    0[COMRAM] unsigned char 
  1591 ;; Return value:  Size  Location     Type
  1592 ;;                  1    wreg      void 
  1593 ;; Registers used:
  1594 ;;		wreg, fsr2l, fsr2h, status,2, status,0
  1595 ;; Tracked objects:
  1596 ;;		On entry : 0/0
  1597 ;;		On exit  : 0/0
  1598 ;;		Unchanged: 0/0
  1599 ;; Data sizes:     COMRAM   BANK0   BANK1
  1600 ;;      Params:         0       0       0
  1601 ;;      Locals:         1       0       0
  1602 ;;      Temps:          0       0       0
  1603 ;;      Totals:         1       0       0
  1604 ;;Total ram usage:        1 bytes
  1605 ;; Hardware stack levels used: 1
  1606 ;; Hardware stack levels required when called: 2
  1607 ;; This function calls:
  1608 ;;		Nothing
  1609 ;; This function is called by:
  1610 ;;		_Motor_Serial
  1611 ;; This function uses a non-reentrant model
  1612 ;;
  1613                           
  1614                           	psect	text6
  1615   00064E                     __ptext6:
  1616                           	callstack 0
  1617   00064E                     _guardarCharArr:
  1618                           	callstack 27
  1619                           
  1620                           ;incstack = 0
  1621                           ;guardarCharArr@aux stored from wreg
  1622   00064E  6E2C               	movwf	guardarCharArr@aux^0,c
  1623   000650                     
  1624                           ;TAD_SERIAL.c: 97:     if(aux == 127){
  1625   000650  0E7F               	movlw	127
  1626   000652  182C               	xorwf	guardarCharArr@aux^0,w,c
  1627   000654  A4D8               	btfss	status,2,c
  1628   000656  EF2F  F003         	goto	u451
  1629   00065A  EF31  F003         	goto	u450
  1630   00065E                     u451:
  1631   00065E  EF41  F003         	goto	l1314
  1632   000662                     u450:
  1633   000662                     
  1634                           ;TAD_SERIAL.c: 98:         if(indice > 0){
  1635   000662  5024               	movf	_indice^0,w,c
  1636   000664  B4D8               	btfsc	status,2,c
  1637   000666  EF37  F003         	goto	u461
  1638   00066A  EF39  F003         	goto	u460
  1639   00066E                     u461:
  1640   00066E  EF4A  F003         	goto	l1320
  1641   000672                     u460:
  1642   000672                     
  1643                           ;TAD_SERIAL.c: 99:             indice--;
  1644   000672  0624               	decf	_indice^0,f,c
  1645   000674                     l1312:
  1646                           
  1647                           ;TAD_SERIAL.c: 100:             readArr[indice] = '\0';
  1648   000674  5024               	movf	_indice^0,w,c
  1649   000676  0F80               	addlw	low _readArr
  1650   000678  6ED9               	movwf	fsr2l,c
  1651   00067A  6ADA               	clrf	fsr2h,c
  1652   00067C  6ADF               	clrf	indf2,c
  1653   00067E  EF4A  F003         	goto	l1320
  1654   000682                     l1314:
  1655                           
  1656                           ;TAD_SERIAL.c: 103:         readArr[indice] = aux;
  1657   000682  5024               	movf	_indice^0,w,c
  1658   000684  0F80               	addlw	low _readArr
  1659   000686  6ED9               	movwf	fsr2l,c
  1660   000688  6ADA               	clrf	fsr2h,c
  1661   00068A  C02C  FFDF         	movff	guardarCharArr@aux,indf2
  1662   00068E                     
  1663                           ;TAD_SERIAL.c: 104:         indice++;
  1664   00068E  2A24               	incf	_indice^0,f,c
  1665   000690  EF3A  F003         	goto	l1312
  1666   000694                     l1320:
  1667                           
  1668                           ;TAD_SERIAL.c: 107:     TXREG = aux;
  1669   000694  C02C  FFAD         	movff	guardarCharArr@aux,4013	;volatile
  1670   000698  0012               	return		;funcret
  1671   00069A                     __end_of_guardarCharArr:
  1672                           	callstack 0
  1673                           
  1674 ;; *************** function _SERIAL_ReadByte *****************
  1675 ;; Defined at:
  1676 ;;		line 74 in file "TAD_SERIAL.c"
  1677 ;; Parameters:    Size  Location     Type
  1678 ;;  b               1    0[COMRAM] PTR unsigned char 
  1679 ;;		 -> Motor_Serial@aux(1), 
  1680 ;; Auto vars:     Size  Location     Type
  1681 ;;		None
  1682 ;; Return value:  Size  Location     Type
  1683 ;;                  1    wreg      unsigned char 
  1684 ;; Registers used:
  1685 ;;		wreg, fsr2l, fsr2h, status,2
  1686 ;; Tracked objects:
  1687 ;;		On entry : 0/0
  1688 ;;		On exit  : 0/0
  1689 ;;		Unchanged: 0/0
  1690 ;; Data sizes:     COMRAM   BANK0   BANK1
  1691 ;;      Params:         1       0       0
  1692 ;;      Locals:         0       0       0
  1693 ;;      Temps:          0       0       0
  1694 ;;      Totals:         1       0       0
  1695 ;;Total ram usage:        1 bytes
  1696 ;; Hardware stack levels used: 1
  1697 ;; Hardware stack levels required when called: 2
  1698 ;; This function calls:
  1699 ;;		Nothing
  1700 ;; This function is called by:
  1701 ;;		_Motor_Serial
  1702 ;; This function uses a non-reentrant model
  1703 ;;
  1704                           
  1705                           	psect	text7
  1706   0006E6                     __ptext7:
  1707                           	callstack 0
  1708   0006E6                     _SERIAL_ReadByte:
  1709                           	callstack 27
  1710   0006E6                     
  1711                           ;TAD_SERIAL.c: 75:     if (PIR1bits.RCIF == 0) return 0;
  1712   0006E6  BA9E               	btfsc	158,5,c	;volatile
  1713   0006E8  EF78  F003         	goto	u421
  1714   0006EC  EF7A  F003         	goto	u420
  1715   0006F0                     u421:
  1716   0006F0  EF7D  F003         	goto	l213
  1717   0006F4                     u420:
  1718   0006F4                     l1288:
  1719   0006F4  0E00               	movlw	0
  1720   0006F6  EF95  F003         	goto	l214
  1721   0006FA                     l213:
  1722                           
  1723                           ;TAD_SERIAL.c: 78:     if (RCSTAbits.OERR) {
  1724   0006FA  A2AB               	btfss	171,1,c	;volatile
  1725   0006FC  EF82  F003         	goto	u431
  1726   000700  EF84  F003         	goto	u430
  1727   000704                     u431:
  1728   000704  EF86  F003         	goto	l1294
  1729   000708                     u430:
  1730   000708                     
  1731                           ;TAD_SERIAL.c: 79:         RCSTAbits.CREN = 0;
  1732   000708  98AB               	bcf	171,4,c	;volatile
  1733                           
  1734                           ;TAD_SERIAL.c: 80:         RCSTAbits.CREN = 1;
  1735   00070A  88AB               	bsf	171,4,c	;volatile
  1736   00070C                     l1294:
  1737                           
  1738                           ;TAD_SERIAL.c: 83:     *b = RCREG;
  1739   00070C  502C               	movf	SERIAL_ReadByte@b^0,w,c
  1740   00070E  6ED9               	movwf	fsr2l,c
  1741   000710  6ADA               	clrf	fsr2h,c
  1742   000712  CFAE FFDF          	movff	4014,indf2	;volatile
  1743   000716                     
  1744                           ;TAD_SERIAL.c: 86:     if (RCSTAbits.FERR) return 0;
  1745   000716  A4AB               	btfss	171,2,c	;volatile
  1746   000718  EF90  F003         	goto	u441
  1747   00071C  EF92  F003         	goto	u440
  1748   000720                     u441:
  1749   000720  EF94  F003         	goto	l1302
  1750   000724                     u440:
  1751   000724  EF7A  F003         	goto	l1288
  1752   000728                     l1302:
  1753                           
  1754                           ;TAD_SERIAL.c: 88:     return 1;
  1755   000728  0E01               	movlw	1
  1756   00072A                     l214:
  1757   00072A  0012               	return		;funcret
  1758   00072C                     __end_of_SERIAL_ReadByte:
  1759                           	callstack 0
  1760                           
  1761 ;; *************** function _DSP_Motor *****************
  1762 ;; Defined at:
  1763 ;;		line 38 in file "TAD_DISPLAY.c"
  1764 ;; Parameters:    Size  Location     Type
  1765 ;;		None
  1766 ;; Auto vars:     Size  Location     Type
  1767 ;;		None
  1768 ;; Return value:  Size  Location     Type
  1769 ;;                  1    wreg      void 
  1770 ;; Registers used:
  1771 ;;		wreg, fsr2l, fsr2h, status,2, status,0, tblptrl, tblptrh, tblptru, prodl, prodh, cstack
  1772 ;; Tracked objects:
  1773 ;;		On entry : 0/0
  1774 ;;		On exit  : 0/0
  1775 ;;		Unchanged: 0/0
  1776 ;; Data sizes:     COMRAM   BANK0   BANK1
  1777 ;;      Params:         0       0       0
  1778 ;;      Locals:         0       0       0
  1779 ;;      Temps:          2       0       0
  1780 ;;      Totals:         2       0       0
  1781 ;;Total ram usage:        2 bytes
  1782 ;; Hardware stack levels used: 1
  1783 ;; Hardware stack levels required when called: 3
  1784 ;; This function calls:
  1785 ;;		_ADC_ExistValue
  1786 ;;		_ADC_GetX
  1787 ;;		_ADC_GetY
  1788 ;;		_SERIAL_PutString
  1789 ;;		_TI_GetTics
  1790 ;;		_TI_ResetTics
  1791 ;; This function is called by:
  1792 ;;		_main
  1793 ;; This function uses a non-reentrant model
  1794 ;;
  1795                           
  1796                           	psect	text8
  1797   000240                     __ptext8:
  1798                           	callstack 0
  1799   000240                     _DSP_Motor:
  1800                           	callstack 27
  1801   000240                     
  1802                           ;TAD_DISPLAY.c: 39:     static unsigned char estado = 0;;TAD_DISPLAY.c: 40:     static u
      +                          nsigned char i;;TAD_DISPLAY.c: 42:     switch(estado){
  1803   000240  EF32  F002         	goto	l1414
  1804   000244                     l1328:
  1805                           
  1806                           ;TAD_DISPLAY.c: 44:             if(ADC_ExistValue()){
  1807   000244  EC3B  F004         	call	_ADC_ExistValue	;wreg free
  1808   000248  0900               	iorlw	0
  1809   00024A  B4D8               	btfsc	status,2,c
  1810   00024C  EF2A  F001         	goto	u471
  1811   000250  EF2C  F001         	goto	u470
  1812   000254                     u471:
  1813   000254  EF49  F002         	goto	l161
  1814   000258                     u470:
  1815   000258                     
  1816                           ;TAD_DISPLAY.c: 45:                 valorX = ADC_GetX();
  1817   000258  EC55  F004         	call	_ADC_GetX	;wreg free
  1818   00025C  C02C  F01B         	movff	?_ADC_GetX,_valorX
  1819   000260  C02D  F01C         	movff	?_ADC_GetX+1,_valorX+1
  1820                           
  1821                           ;TAD_DISPLAY.c: 46:                 valorY = ADC_GetY();
  1822   000264  EC50  F004         	call	_ADC_GetY	;wreg free
  1823   000268  C02C  F019         	movff	?_ADC_GetY,_valorY
  1824   00026C  C02D  F01A         	movff	?_ADC_GetY+1,_valorY+1
  1825   000270                     
  1826                           ;TAD_DISPLAY.c: 47:                 i = 0;
  1827   000270  6A26               	clrf	DSP_Motor@i^0,c
  1828   000272                     l1334:
  1829                           
  1830                           ;TAD_DISPLAY.c: 48:                 estado++;
  1831   000272  2A27               	incf	DSP_Motor@estado^0,f,c
  1832   000274  EF49  F002         	goto	l161
  1833   000278                     l129:
  1834                           
  1835                           ;TAD_DISPLAY.c: 50:             break;
  1836   000278  EF49  F002         	goto	l161
  1837   00027C                     l1336:
  1838                           
  1839                           ;TAD_DISPLAY.c: 52:             if(i == 7){
  1840   00027C  0E07               	movlw	7
  1841   00027E  1826               	xorwf	DSP_Motor@i^0,w,c
  1842   000280  A4D8               	btfss	status,2,c
  1843   000282  EF45  F001         	goto	u481
  1844   000286  EF47  F001         	goto	u480
  1845   00028A                     u481:
  1846   00028A  EF49  F001         	goto	l1340
  1847   00028E                     u480:
  1848   00028E  EF39  F001         	goto	l1334
  1849   000292                     l1340:
  1850                           
  1851                           ;TAD_DISPLAY.c: 55:                 i++;
  1852   000292  2A26               	incf	DSP_Motor@i^0,f,c
  1853   000294                     
  1854                           ;TAD_DISPLAY.c: 56:                 valorX = valorX >> 1;
  1855   000294  90D8               	bcf	status,0,c
  1856   000296  301C               	rrcf	(_valorX+1)^0,w,c
  1857   000298  6E39               	movwf	??_DSP_Motor^0,c
  1858   00029A  301B               	rrcf	_valorX^0,w,c
  1859   00029C  6E1B               	movwf	_valorX^0,c
  1860   00029E  C039  F01C         	movff	??_DSP_Motor,_valorX+1
  1861   0002A2                     
  1862                           ;TAD_DISPLAY.c: 57:                 valorY = valorY >> 1;
  1863   0002A2  90D8               	bcf	status,0,c
  1864   0002A4  301A               	rrcf	(_valorY+1)^0,w,c
  1865   0002A6  6E39               	movwf	??_DSP_Motor^0,c
  1866   0002A8  3019               	rrcf	_valorY^0,w,c
  1867   0002AA  6E19               	movwf	_valorY^0,c
  1868   0002AC  C039  F01A         	movff	??_DSP_Motor,_valorY+1
  1869   0002B0  EF49  F002         	goto	l161
  1870   0002B4                     l1346:
  1871                           
  1872                           ;TAD_DISPLAY.c: 61:             valorX = valorX & 0x07;
  1873   0002B4  0E07               	movlw	7
  1874   0002B6  141B               	andwf	_valorX^0,w,c
  1875   0002B8  6E1B               	movwf	_valorX^0,c
  1876   0002BA  6A1C               	clrf	(_valorX+1)^0,c
  1877                           
  1878                           ;TAD_DISPLAY.c: 62:             valorY = valorY & 0x07;
  1879   0002BC  0E07               	movlw	7
  1880   0002BE  1419               	andwf	_valorY^0,w,c
  1881   0002C0  6E19               	movwf	_valorY^0,c
  1882   0002C2  6A1A               	clrf	(_valorY+1)^0,c
  1883   0002C4                     
  1884                           ;TAD_DISPLAY.c: 64:             if(flagRebotes == 0){
  1885   0002C4  5028               	movf	_flagRebotes^0,w,c
  1886   0002C6  A4D8               	btfss	status,2,c
  1887   0002C8  EF68  F001         	goto	u491
  1888   0002CC  EF6A  F001         	goto	u490
  1889   0002D0                     u491:
  1890   0002D0  EFDF  F001         	goto	l1388
  1891   0002D4                     u490:
  1892   0002D4                     
  1893                           ;TAD_DISPLAY.c: 66:                 if(!PORTBbits.RB2){
  1894   0002D4  B481               	btfsc	129,2,c	;volatile
  1895   0002D6  EF6F  F001         	goto	u501
  1896   0002DA  EF71  F001         	goto	u500
  1897   0002DE                     u501:
  1898   0002DE  EF78  F001         	goto	l136
  1899   0002E2                     u500:
  1900   0002E2                     
  1901                           ;TAD_DISPLAY.c: 68:                     TI_ResetTics(timerRebotes);
  1902   0002E2  502B               	movf	_timerRebotes^0,w,c
  1903   0002E4  ECE3  F003         	call	_TI_ResetTics
  1904   0002E8                     
  1905                           ;TAD_DISPLAY.c: 69:                     flagRebotes = 2;
  1906   0002E8  0E02               	movlw	2
  1907   0002EA  6E28               	movwf	_flagRebotes^0,c
  1908                           
  1909                           ;TAD_DISPLAY.c: 71:                 } else {
  1910   0002EC  EF49  F002         	goto	l161
  1911   0002F0                     l136:
  1912                           
  1913                           ;TAD_DISPLAY.c: 72:                     estado = 0;
  1914   0002F0  6A27               	clrf	DSP_Motor@estado^0,c
  1915   0002F2                     
  1916                           ;TAD_DISPLAY.c: 75:                     if(valorX == 0){
  1917   0002F2  501B               	movf	_valorX^0,w,c
  1918   0002F4  101C               	iorwf	(_valorX+1)^0,w,c
  1919   0002F6  A4D8               	btfss	status,2,c
  1920   0002F8  EF80  F001         	goto	u511
  1921   0002FC  EF82  F001         	goto	u510
  1922   000300                     u511:
  1923   000300  EF90  F001         	goto	l1364
  1924   000304                     u510:
  1925   000304                     
  1926                           ;TAD_DISPLAY.c: 77:                         if(lastDirX != 0){
  1927   000304  503C               	movf	_lastDirX^0,w,c
  1928   000306  B4D8               	btfsc	status,2,c
  1929   000308  EF88  F001         	goto	u521
  1930   00030C  EF8A  F001         	goto	u520
  1931   000310                     u521:
  1932   000310  EFAB  F001         	goto	l1372
  1933   000314                     u520:
  1934   000314                     
  1935                           ;TAD_DISPLAY.c: 78:                             SERIAL_PutString(3);
  1936   000314  0E03               	movlw	3
  1937   000316  EC15  F004         	call	_SERIAL_PutString
  1938   00031A                     
  1939                           ;TAD_DISPLAY.c: 79:                             lastDirX = 0;
  1940   00031A  6A3C               	clrf	_lastDirX^0,c
  1941   00031C  EFAB  F001         	goto	l1372
  1942   000320                     l1364:
  1943   000320  0E07               	movlw	7
  1944   000322  181B               	xorwf	_valorX^0,w,c
  1945   000324  101C               	iorwf	(_valorX+1)^0,w,c
  1946   000326  A4D8               	btfss	status,2,c
  1947   000328  EF98  F001         	goto	u531
  1948   00032C  EF9A  F001         	goto	u530
  1949   000330                     u531:
  1950   000330  EFAA  F001         	goto	l141
  1951   000334                     u530:
  1952   000334                     
  1953                           ;TAD_DISPLAY.c: 83:                         if(lastDirX != 7){
  1954   000334  0E07               	movlw	7
  1955   000336  183C               	xorwf	_lastDirX^0,w,c
  1956   000338  B4D8               	btfsc	status,2,c
  1957   00033A  EFA1  F001         	goto	u541
  1958   00033E  EFA3  F001         	goto	u540
  1959   000342                     u541:
  1960   000342  EFAB  F001         	goto	l1372
  1961   000346                     u540:
  1962   000346                     
  1963                           ;TAD_DISPLAY.c: 84:                             SERIAL_PutString(2);
  1964   000346  0E02               	movlw	2
  1965   000348  EC15  F004         	call	_SERIAL_PutString
  1966   00034C                     
  1967                           ;TAD_DISPLAY.c: 85:                             lastDirX = 7;
  1968   00034C  0E07               	movlw	7
  1969   00034E  6E3C               	movwf	_lastDirX^0,c
  1970   000350  EFAB  F001         	goto	l1372
  1971   000354                     l141:
  1972                           
  1973                           ;TAD_DISPLAY.c: 88:                         lastDirX = 0xFF;
  1974   000354  683C               	setf	_lastDirX^0,c
  1975   000356                     l1372:
  1976                           
  1977                           ;TAD_DISPLAY.c: 92:                     if(valorY == 0){
  1978   000356  5019               	movf	_valorY^0,w,c
  1979   000358  101A               	iorwf	(_valorY+1)^0,w,c
  1980   00035A  A4D8               	btfss	status,2,c
  1981   00035C  EFB2  F001         	goto	u551
  1982   000360  EFB4  F001         	goto	u550
  1983   000364                     u551:
  1984   000364  EFC2  F001         	goto	l1380
  1985   000368                     u550:
  1986   000368                     
  1987                           ;TAD_DISPLAY.c: 94:                         if(lastDirY != 0){
  1988   000368  503B               	movf	_lastDirY^0,w,c
  1989   00036A  B4D8               	btfsc	status,2,c
  1990   00036C  EFBA  F001         	goto	u561
  1991   000370  EFBC  F001         	goto	u560
  1992   000374                     u561:
  1993   000374  EF49  F002         	goto	l161
  1994   000378                     u560:
  1995   000378                     
  1996                           ;TAD_DISPLAY.c: 95:                             SERIAL_PutString(1);
  1997   000378  0E01               	movlw	1
  1998   00037A  EC15  F004         	call	_SERIAL_PutString
  1999   00037E                     
  2000                           ;TAD_DISPLAY.c: 96:                             lastDirY = 0;
  2001   00037E  6A3B               	clrf	_lastDirY^0,c
  2002   000380  EF49  F002         	goto	l161
  2003   000384                     l1380:
  2004   000384  0E07               	movlw	7
  2005   000386  1819               	xorwf	_valorY^0,w,c
  2006   000388  101A               	iorwf	(_valorY+1)^0,w,c
  2007   00038A  A4D8               	btfss	status,2,c
  2008   00038C  EFCA  F001         	goto	u571
  2009   000390  EFCC  F001         	goto	u570
  2010   000394                     u571:
  2011   000394  EFDC  F001         	goto	l147
  2012   000398                     u570:
  2013   000398                     
  2014                           ;TAD_DISPLAY.c: 100:                         if(lastDirY != 7){
  2015   000398  0E07               	movlw	7
  2016   00039A  183B               	xorwf	_lastDirY^0,w,c
  2017   00039C  B4D8               	btfsc	status,2,c
  2018   00039E  EFD3  F001         	goto	u581
  2019   0003A2  EFD5  F001         	goto	u580
  2020   0003A6                     u581:
  2021   0003A6  EF3C  F001         	goto	l129
  2022   0003AA                     u580:
  2023   0003AA                     
  2024                           ;TAD_DISPLAY.c: 101:                             SERIAL_PutString(0);
  2025   0003AA  0E00               	movlw	0
  2026   0003AC  EC15  F004         	call	_SERIAL_PutString
  2027   0003B0                     
  2028                           ;TAD_DISPLAY.c: 102:                             lastDirY = 7;
  2029   0003B0  0E07               	movlw	7
  2030   0003B2  6E3B               	movwf	_lastDirY^0,c
  2031   0003B4  EF49  F002         	goto	l161
  2032   0003B8                     l147:
  2033                           
  2034                           ;TAD_DISPLAY.c: 105:                         lastDirY = 0xFF;
  2035   0003B8  683B               	setf	_lastDirY^0,c
  2036   0003BA  EF49  F002         	goto	l161
  2037   0003BE                     l1388:
  2038   0003BE  0E02               	movlw	2
  2039   0003C0  1828               	xorwf	_flagRebotes^0,w,c
  2040   0003C2  A4D8               	btfss	status,2,c
  2041   0003C4  EFE6  F001         	goto	u591
  2042   0003C8  EFE8  F001         	goto	u590
  2043   0003CC                     u591:
  2044   0003CC  EF49  F002         	goto	l161
  2045   0003D0                     u590:
  2046   0003D0                     
  2047                           ;TAD_DISPLAY.c: 111:                 if(TI_GetTics(timerRebotes) >= 8){
  2048   0003D0  502B               	movf	_timerRebotes^0,w,c
  2049   0003D2  EC4D  F003         	call	_TI_GetTics
  2050   0003D6  502F               	movf	(?_TI_GetTics+3)^0,w,c
  2051   0003D8  102E               	iorwf	(?_TI_GetTics+2)^0,w,c
  2052   0003DA  102D               	iorwf	(?_TI_GetTics+1)^0,w,c
  2053   0003DC  E109               	bnz	u600
  2054   0003DE  0E08               	movlw	8
  2055   0003E0  5C2C               	subwf	?_TI_GetTics^0,w,c
  2056   0003E2  A0D8               	btfss	status,0,c
  2057   0003E4  EFF6  F001         	goto	u601
  2058   0003E8  EFF8  F001         	goto	u600
  2059   0003EC                     u601:
  2060   0003EC  EF49  F002         	goto	l161
  2061   0003F0                     u600:
  2062   0003F0                     
  2063                           ;TAD_DISPLAY.c: 112:                     if(!PORTBbits.RB2){
  2064   0003F0  B481               	btfsc	129,2,c	;volatile
  2065   0003F2  EFFD  F001         	goto	u611
  2066   0003F6  EFFF  F001         	goto	u610
  2067   0003FA                     u611:
  2068   0003FA  EF06  F002         	goto	l153
  2069   0003FE                     u610:
  2070   0003FE                     
  2071                           ;TAD_DISPLAY.c: 114:                         SERIAL_PutString(4);
  2072   0003FE  0E04               	movlw	4
  2073   000400  EC15  F004         	call	_SERIAL_PutString
  2074   000404                     
  2075                           ;TAD_DISPLAY.c: 115:                         flagRebotes = 1;
  2076   000404  0E01               	movlw	1
  2077   000406  6E28               	movwf	_flagRebotes^0,c
  2078   000408  EF39  F001         	goto	l1334
  2079   00040C                     l153:
  2080                           
  2081                           ;TAD_DISPLAY.c: 120:                         flagRebotes = 0;
  2082   00040C  6A28               	clrf	_flagRebotes^0,c
  2083                           
  2084                           ;TAD_DISPLAY.c: 121:                         estado = 0;
  2085   00040E  6A27               	clrf	DSP_Motor@estado^0,c
  2086   000410  EF49  F002         	goto	l161
  2087   000414                     l155:
  2088                           
  2089                           ;TAD_DISPLAY.c: 128:             if(PORTBbits.RB2){
  2090   000414  A481               	btfss	129,2,c	;volatile
  2091   000416  EF0F  F002         	goto	u621
  2092   00041A  EF11  F002         	goto	u620
  2093   00041E                     u621:
  2094   00041E  EF49  F002         	goto	l161
  2095   000422                     u620:
  2096   000422                     
  2097                           ;TAD_DISPLAY.c: 129:                 TI_ResetTics(timerRebotes);
  2098   000422  502B               	movf	_timerRebotes^0,w,c
  2099   000424  ECE3  F003         	call	_TI_ResetTics
  2100   000428  EF39  F001         	goto	l1334
  2101   00042C                     l1404:
  2102                           
  2103                           ;TAD_DISPLAY.c: 134:             if(TI_GetTics(timerRebotes) >= 8){
  2104   00042C  502B               	movf	_timerRebotes^0,w,c
  2105   00042E  EC4D  F003         	call	_TI_GetTics
  2106   000432  502F               	movf	(?_TI_GetTics+3)^0,w,c
  2107   000434  102E               	iorwf	(?_TI_GetTics+2)^0,w,c
  2108   000436  102D               	iorwf	(?_TI_GetTics+1)^0,w,c
  2109   000438  E109               	bnz	u630
  2110   00043A  0E08               	movlw	8
  2111   00043C  5C2C               	subwf	?_TI_GetTics^0,w,c
  2112   00043E  A0D8               	btfss	status,0,c
  2113   000440  EF24  F002         	goto	u631
  2114   000444  EF26  F002         	goto	u630
  2115   000448                     u631:
  2116   000448  EF49  F002         	goto	l161
  2117   00044C                     u630:
  2118   00044C                     
  2119                           ;TAD_DISPLAY.c: 135:                 if(PORTBbits.RB2){
  2120   00044C  A481               	btfss	129,2,c	;volatile
  2121   00044E  EF2B  F002         	goto	u641
  2122   000452  EF2D  F002         	goto	u640
  2123   000456                     u641:
  2124   000456  EF2F  F002         	goto	l1410
  2125   00045A                     u640:
  2126   00045A  EF06  F002         	goto	l153
  2127   00045E                     l1410:
  2128                           
  2129                           ;TAD_DISPLAY.c: 141:                     estado--;
  2130   00045E  0627               	decf	DSP_Motor@estado^0,f,c
  2131   000460  EF49  F002         	goto	l161
  2132   000464                     l1414:
  2133   000464  5027               	movf	DSP_Motor@estado^0,w,c
  2134                           
  2135                           ; Switch size 1, requested type "simple"
  2136                           ; Number of cases is 5, Range of values is 0 to 4
  2137                           ; switch strategies available:
  2138                           ; Name         Instructions Cycles
  2139                           ; simple_byte           16     9 (average)
  2140                           ;	Chosen strategy is simple_byte
  2141   000466  0A00               	xorlw	0	; case 0
  2142   000468  B4D8               	btfsc	status,2,c
  2143   00046A  EF22  F001         	goto	l1328
  2144   00046E  0A01               	xorlw	1	; case 1
  2145   000470  B4D8               	btfsc	status,2,c
  2146   000472  EF3E  F001         	goto	l1336
  2147   000476  0A03               	xorlw	3	; case 2
  2148   000478  B4D8               	btfsc	status,2,c
  2149   00047A  EF5A  F001         	goto	l1346
  2150   00047E  0A01               	xorlw	1	; case 3
  2151   000480  B4D8               	btfsc	status,2,c
  2152   000482  EF0A  F002         	goto	l155
  2153   000486  0A07               	xorlw	7	; case 4
  2154   000488  B4D8               	btfsc	status,2,c
  2155   00048A  EF16  F002         	goto	l1404
  2156   00048E  EF49  F002         	goto	l161
  2157   000492                     l161:
  2158   000492  0012               	return		;funcret
  2159   000494                     __end_of_DSP_Motor:
  2160                           	callstack 0
  2161                           
  2162 ;; *************** function _TI_ResetTics *****************
  2163 ;; Defined at:
  2164 ;;		line 44 in file "TAD_TIMER.c"
  2165 ;; Parameters:    Size  Location     Type
  2166 ;;  TimerHandle     1    wreg     unsigned char 
  2167 ;; Auto vars:     Size  Location     Type
  2168 ;;  TimerHandle     1    0[COMRAM] unsigned char 
  2169 ;; Return value:  Size  Location     Type
  2170 ;;                  1    wreg      void 
  2171 ;; Registers used:
  2172 ;;		wreg, fsr2l, fsr2h, status,2, status,0, prodl, prodh
  2173 ;; Tracked objects:
  2174 ;;		On entry : 0/0
  2175 ;;		On exit  : 0/0
  2176 ;;		Unchanged: 0/0
  2177 ;; Data sizes:     COMRAM   BANK0   BANK1
  2178 ;;      Params:         0       0       0
  2179 ;;      Locals:         1       0       0
  2180 ;;      Temps:          0       0       0
  2181 ;;      Totals:         1       0       0
  2182 ;;Total ram usage:        1 bytes
  2183 ;; Hardware stack levels used: 1
  2184 ;; Hardware stack levels required when called: 2
  2185 ;; This function calls:
  2186 ;;		Nothing
  2187 ;; This function is called by:
  2188 ;;		_DSP_Motor
  2189 ;; This function uses a non-reentrant model
  2190 ;;
  2191                           
  2192                           	psect	text9
  2193   0007C6                     __ptext9:
  2194                           	callstack 0
  2195   0007C6                     _TI_ResetTics:
  2196                           	callstack 27
  2197                           
  2198                           ;incstack = 0
  2199                           ;TI_ResetTics@TimerHandle stored from wreg
  2200   0007C6  6E2C               	movwf	TI_ResetTics@TimerHandle^0,c
  2201   0007C8                     
  2202                           ;TAD_TIMER.c: 45:  (INTCONbits.GIE = 0); Timers[TimerHandle].TicsInicials=Tics; (INTCONb
      +                          its.GIE = 1);
  2203   0007C8  9EF2               	bcf	242,7,c	;volatile
  2204   0007CA  502C               	movf	TI_ResetTics@TimerHandle^0,w,c
  2205   0007CC  0D05               	mullw	5
  2206   0007CE  50F3               	movf	243,w,c
  2207   0007D0  0F01               	addlw	low _Timers
  2208   0007D2  6ED9               	movwf	fsr2l,c
  2209   0007D4  6ADA               	clrf	fsr2h,c
  2210   0007D6  C015  FFDE         	movff	_Tics,postinc2	;volatile
  2211   0007DA  C016  FFDE         	movff	_Tics+1,postinc2	;volatile
  2212   0007DE  C017  FFDE         	movff	_Tics+2,postinc2	;volatile
  2213   0007E2  C018  FFDE         	movff	_Tics+3,postinc2	;volatile
  2214   0007E6  8EF2               	bsf	242,7,c	;volatile
  2215   0007E8  0012               	return		;funcret
  2216   0007EA                     __end_of_TI_ResetTics:
  2217                           	callstack 0
  2218                           
  2219 ;; *************** function _TI_GetTics *****************
  2220 ;; Defined at:
  2221 ;;		line 49 in file "TAD_TIMER.c"
  2222 ;; Parameters:    Size  Location     Type
  2223 ;;  TimerHandle     1    wreg     unsigned char 
  2224 ;; Auto vars:     Size  Location     Type
  2225 ;;  TimerHandle     1   12[COMRAM] unsigned char 
  2226 ;;  CopiaTicsAct    4    8[COMRAM] unsigned long 
  2227 ;; Return value:  Size  Location     Type
  2228 ;;                  4    0[COMRAM] unsigned long 
  2229 ;; Registers used:
  2230 ;;		wreg, fsr2l, fsr2h, status,2, status,0, prodl, prodh
  2231 ;; Tracked objects:
  2232 ;;		On entry : 0/0
  2233 ;;		On exit  : 0/0
  2234 ;;		Unchanged: 0/0
  2235 ;; Data sizes:     COMRAM   BANK0   BANK1
  2236 ;;      Params:         4       0       0
  2237 ;;      Locals:         5       0       0
  2238 ;;      Temps:          4       0       0
  2239 ;;      Totals:        13       0       0
  2240 ;;Total ram usage:       13 bytes
  2241 ;; Hardware stack levels used: 1
  2242 ;; Hardware stack levels required when called: 2
  2243 ;; This function calls:
  2244 ;;		Nothing
  2245 ;; This function is called by:
  2246 ;;		_DSP_Motor
  2247 ;; This function uses a non-reentrant model
  2248 ;;
  2249                           
  2250                           	psect	text10
  2251   00069A                     __ptext10:
  2252                           	callstack 0
  2253   00069A                     _TI_GetTics:
  2254                           	callstack 27
  2255                           
  2256                           ;incstack = 0
  2257                           ;TI_GetTics@TimerHandle stored from wreg
  2258   00069A  6E38               	movwf	TI_GetTics@TimerHandle^0,c
  2259   00069C                     
  2260                           ;TAD_TIMER.c: 50:     (INTCONbits.GIE = 0); unsigned long CopiaTicsActual=Tics; (INTCONb
      +                          its.GIE = 1);
  2261   00069C  9EF2               	bcf	242,7,c	;volatile
  2262   00069E  C015  F034         	movff	_Tics,TI_GetTics@CopiaTicsActual	;volatile
  2263   0006A2  C016  F035         	movff	_Tics+1,TI_GetTics@CopiaTicsActual+1	;volatile
  2264   0006A6  C017  F036         	movff	_Tics+2,TI_GetTics@CopiaTicsActual+2	;volatile
  2265   0006AA  C018  F037         	movff	_Tics+3,TI_GetTics@CopiaTicsActual+3	;volatile
  2266   0006AE  8EF2               	bsf	242,7,c	;volatile
  2267   0006B0                     
  2268                           ;TAD_TIMER.c: 51:  return (CopiaTicsActual-(Timers[TimerHandle].TicsInicials));
  2269   0006B0  5038               	movf	TI_GetTics@TimerHandle^0,w,c
  2270   0006B2  0D05               	mullw	5
  2271   0006B4  50F3               	movf	243,w,c
  2272   0006B6  0F01               	addlw	low _Timers
  2273   0006B8  6ED9               	movwf	fsr2l,c
  2274   0006BA  6ADA               	clrf	fsr2h,c
  2275   0006BC  CFDE F030          	movff	postinc2,??_TI_GetTics
  2276   0006C0  CFDE F031          	movff	postinc2,??_TI_GetTics+1
  2277   0006C4  CFDE F032          	movff	postinc2,??_TI_GetTics+2
  2278   0006C8  CFDE F033          	movff	postinc2,??_TI_GetTics+3
  2279   0006CC  5030               	movf	??_TI_GetTics^0,w,c
  2280   0006CE  5C34               	subwf	TI_GetTics@CopiaTicsActual^0,w,c
  2281   0006D0  6E2C               	movwf	?_TI_GetTics^0,c
  2282   0006D2  5031               	movf	(??_TI_GetTics+1)^0,w,c
  2283   0006D4  5835               	subwfb	(TI_GetTics@CopiaTicsActual+1)^0,w,c
  2284   0006D6  6E2D               	movwf	(?_TI_GetTics+1)^0,c
  2285   0006D8  5032               	movf	(??_TI_GetTics+2)^0,w,c
  2286   0006DA  5836               	subwfb	(TI_GetTics@CopiaTicsActual+2)^0,w,c
  2287   0006DC  6E2E               	movwf	(?_TI_GetTics+2)^0,c
  2288   0006DE  5033               	movf	(??_TI_GetTics+3)^0,w,c
  2289   0006E0  5837               	subwfb	(TI_GetTics@CopiaTicsActual+3)^0,w,c
  2290   0006E2  6E2F               	movwf	(?_TI_GetTics+3)^0,c
  2291   0006E4  0012               	return		;funcret
  2292   0006E6                     __end_of_TI_GetTics:
  2293                           	callstack 0
  2294                           
  2295 ;; *************** function _SERIAL_PutString *****************
  2296 ;; Defined at:
  2297 ;;		line 65 in file "TAD_SERIAL.c"
  2298 ;; Parameters:    Size  Location     Type
  2299 ;;  s               1    wreg     unsigned char 
  2300 ;; Auto vars:     Size  Location     Type
  2301 ;;  s               1    1[COMRAM] unsigned char 
  2302 ;; Return value:  Size  Location     Type
  2303 ;;                  1    wreg      void 
  2304 ;; Registers used:
  2305 ;;		wreg, status,2, status,0, tblptrl, tblptrh, tblptru
  2306 ;; Tracked objects:
  2307 ;;		On entry : 0/0
  2308 ;;		On exit  : 0/0
  2309 ;;		Unchanged: 0/0
  2310 ;; Data sizes:     COMRAM   BANK0   BANK1
  2311 ;;      Params:         0       0       0
  2312 ;;      Locals:         1       0       0
  2313 ;;      Temps:          1       0       0
  2314 ;;      Totals:         2       0       0
  2315 ;;Total ram usage:        2 bytes
  2316 ;; Hardware stack levels used: 1
  2317 ;; Hardware stack levels required when called: 2
  2318 ;; This function calls:
  2319 ;;		Nothing
  2320 ;; This function is called by:
  2321 ;;		_DSP_Motor
  2322 ;;		_Motor_Serial
  2323 ;; This function uses a non-reentrant model
  2324 ;;
  2325                           
  2326                           	psect	text11
  2327   00082A                     __ptext11:
  2328                           	callstack 0
  2329   00082A                     _SERIAL_PutString:
  2330                           	callstack 27
  2331                           
  2332                           ;incstack = 0
  2333                           ;SERIAL_PutString@s stored from wreg
  2334   00082A  6E2D               	movwf	SERIAL_PutString@s^0,c
  2335   00082C                     
  2336                           ;TAD_SERIAL.c: 66:     pTxFrase = frases[s];
  2337   00082C  502D               	movf	SERIAL_PutString@s^0,w,c
  2338   00082E  0F01               	addlw	low _frases
  2339   000830  6E2C               	movwf	??_SERIAL_PutString^0,c
  2340   000832  C02C  FFF6         	movff	??_SERIAL_PutString,tblptrl
  2341   000836                     	if	1	;There is more than 1 active tblptr byte
  2342   000836  0E02               	movlw	high __smallconst
  2343   000838  6EF7               	movwf	tblptrh,c
  2344   00083A                     	endif
  2345   00083A                     	if	0	;tblptru may be non-zero
  2346   00083A                     	endif
  2347   00083A                     	if	0	;tblptru may be non-zero
  2348   00083A                     	endif
  2349   00083A  0008               	tblrd		*
  2350   00083C  CFF5 F021          	movff	tablat,_pTxFrase
  2351   000840                     
  2352                           ;TAD_SERIAL.c: 67:     estado = 0;
  2353   000840  6A25               	clrf	_estado^0,c
  2354   000842  0012               	return		;funcret
  2355   000844                     __end_of_SERIAL_PutString:
  2356                           	callstack 0
  2357                           
  2358 ;; *************** function _ADC_GetY *****************
  2359 ;; Defined at:
  2360 ;;		line 25 in file "TAD_ADC.c"
  2361 ;; Parameters:    Size  Location     Type
  2362 ;;		None
  2363 ;; Auto vars:     Size  Location     Type
  2364 ;;		None
  2365 ;; Return value:  Size  Location     Type
  2366 ;;                  2    0[COMRAM] unsigned int 
  2367 ;; Registers used:
  2368 ;;		None
  2369 ;; Tracked objects:
  2370 ;;		On entry : 0/0
  2371 ;;		On exit  : 0/0
  2372 ;;		Unchanged: 0/0
  2373 ;; Data sizes:     COMRAM   BANK0   BANK1
  2374 ;;      Params:         2       0       0
  2375 ;;      Locals:         0       0       0
  2376 ;;      Temps:          0       0       0
  2377 ;;      Totals:         2       0       0
  2378 ;;Total ram usage:        2 bytes
  2379 ;; Hardware stack levels used: 1
  2380 ;; Hardware stack levels required when called: 2
  2381 ;; This function calls:
  2382 ;;		Nothing
  2383 ;; This function is called by:
  2384 ;;		_DSP_Motor
  2385 ;; This function uses a non-reentrant model
  2386 ;;
  2387                           
  2388                           	psect	text12
  2389   0008A0                     __ptext12:
  2390                           	callstack 0
  2391   0008A0                     _ADC_GetY:
  2392                           	callstack 27
  2393   0008A0                     
  2394                           ;TAD_ADC.c: 26:     return valueY;
  2395   0008A0  C01D  F02C         	movff	_valueY,?_ADC_GetY
  2396   0008A4  C01E  F02D         	movff	_valueY+1,?_ADC_GetY+1
  2397   0008A8  0012               	return		;funcret
  2398   0008AA                     __end_of_ADC_GetY:
  2399                           	callstack 0
  2400                           
  2401 ;; *************** function _ADC_GetX *****************
  2402 ;; Defined at:
  2403 ;;		line 21 in file "TAD_ADC.c"
  2404 ;; Parameters:    Size  Location     Type
  2405 ;;		None
  2406 ;; Auto vars:     Size  Location     Type
  2407 ;;		None
  2408 ;; Return value:  Size  Location     Type
  2409 ;;                  2    0[COMRAM] unsigned int 
  2410 ;; Registers used:
  2411 ;;		None
  2412 ;; Tracked objects:
  2413 ;;		On entry : 0/0
  2414 ;;		On exit  : 0/0
  2415 ;;		Unchanged: 0/0
  2416 ;; Data sizes:     COMRAM   BANK0   BANK1
  2417 ;;      Params:         2       0       0
  2418 ;;      Locals:         0       0       0
  2419 ;;      Temps:          0       0       0
  2420 ;;      Totals:         2       0       0
  2421 ;;Total ram usage:        2 bytes
  2422 ;; Hardware stack levels used: 1
  2423 ;; Hardware stack levels required when called: 2
  2424 ;; This function calls:
  2425 ;;		Nothing
  2426 ;; This function is called by:
  2427 ;;		_DSP_Motor
  2428 ;; This function uses a non-reentrant model
  2429 ;;
  2430                           
  2431                           	psect	text13
  2432   0008AA                     __ptext13:
  2433                           	callstack 0
  2434   0008AA                     _ADC_GetX:
  2435                           	callstack 27
  2436   0008AA                     
  2437                           ;TAD_ADC.c: 22:     return valueX;
  2438   0008AA  C01F  F02C         	movff	_valueX,?_ADC_GetX
  2439   0008AE  C020  F02D         	movff	_valueX+1,?_ADC_GetX+1
  2440   0008B2  0012               	return		;funcret
  2441   0008B4                     __end_of_ADC_GetX:
  2442                           	callstack 0
  2443                           
  2444 ;; *************** function _ADC_ExistValue *****************
  2445 ;; Defined at:
  2446 ;;		line 17 in file "TAD_ADC.c"
  2447 ;; Parameters:    Size  Location     Type
  2448 ;;		None
  2449 ;; Auto vars:     Size  Location     Type
  2450 ;;		None
  2451 ;; Return value:  Size  Location     Type
  2452 ;;                  1    wreg      unsigned char 
  2453 ;; Registers used:
  2454 ;;		wreg, status,2, status,0
  2455 ;; Tracked objects:
  2456 ;;		On entry : 0/0
  2457 ;;		On exit  : 0/0
  2458 ;;		Unchanged: 0/0
  2459 ;; Data sizes:     COMRAM   BANK0   BANK1
  2460 ;;      Params:         0       0       0
  2461 ;;      Locals:         0       0       0
  2462 ;;      Temps:          0       0       0
  2463 ;;      Totals:         0       0       0
  2464 ;;Total ram usage:        0 bytes
  2465 ;; Hardware stack levels used: 1
  2466 ;; Hardware stack levels required when called: 2
  2467 ;; This function calls:
  2468 ;;		Nothing
  2469 ;; This function is called by:
  2470 ;;		_DSP_Motor
  2471 ;; This function uses a non-reentrant model
  2472 ;;
  2473                           
  2474                           	psect	text14
  2475   000876                     __ptext14:
  2476                           	callstack 0
  2477   000876                     _ADC_ExistValue:
  2478                           	callstack 27
  2479   000876                     
  2480                           ;TAD_ADC.c: 18:     return dataReady == 1;
  2481   000876  0429               	decf	_dataReady^0,w,c
  2482   000878  B4D8               	btfsc	status,2,c
  2483   00087A  EF41  F004         	goto	u11
  2484   00087E  EF44  F004         	goto	u10
  2485   000882                     u11:
  2486   000882  0E01               	movlw	1
  2487   000884  EF45  F004         	goto	u20
  2488   000888                     u10:
  2489   000888  0E00               	movlw	0
  2490   00088A                     u20:
  2491   00088A  0012               	return		;funcret
  2492   00088C                     __end_of_ADC_ExistValue:
  2493                           	callstack 0
  2494                           
  2495 ;; *************** function _DSP_Init *****************
  2496 ;; Defined at:
  2497 ;;		line 26 in file "TAD_DISPLAY.c"
  2498 ;; Parameters:    Size  Location     Type
  2499 ;;		None
  2500 ;; Auto vars:     Size  Location     Type
  2501 ;;		None
  2502 ;; Return value:  Size  Location     Type
  2503 ;;                  1    wreg      void 
  2504 ;; Registers used:
  2505 ;;		wreg, fsr2l, fsr2h, status,2, status,0, prodl, prodh, cstack
  2506 ;; Tracked objects:
  2507 ;;		On entry : 0/0
  2508 ;;		On exit  : 0/0
  2509 ;;		Unchanged: 0/0
  2510 ;; Data sizes:     COMRAM   BANK0   BANK1
  2511 ;;      Params:         0       0       0
  2512 ;;      Locals:         0       0       0
  2513 ;;      Temps:          0       0       0
  2514 ;;      Totals:         0       0       0
  2515 ;;Total ram usage:        0 bytes
  2516 ;; Hardware stack levels used: 1
  2517 ;; Hardware stack levels required when called: 3
  2518 ;; This function calls:
  2519 ;;		_TI_NewTimer
  2520 ;; This function is called by:
  2521 ;;		_main
  2522 ;; This function uses a non-reentrant model
  2523 ;;
  2524                           
  2525                           	psect	text15
  2526   000844                     __ptext15:
  2527                           	callstack 0
  2528   000844                     _DSP_Init:
  2529                           	callstack 27
  2530   000844                     
  2531                           ;TAD_DISPLAY.c: 27:     valorX = 0;
  2532   000844  0E00               	movlw	0
  2533   000846  6E1C               	movwf	(_valorX+1)^0,c
  2534   000848  0E00               	movlw	0
  2535   00084A  6E1B               	movwf	_valorX^0,c
  2536                           
  2537                           ;TAD_DISPLAY.c: 28:     valorY = 0;
  2538   00084C  0E00               	movlw	0
  2539   00084E  6E1A               	movwf	(_valorY+1)^0,c
  2540   000850  0E00               	movlw	0
  2541   000852  6E19               	movwf	_valorY^0,c
  2542   000854                     
  2543                           ;TAD_DISPLAY.c: 29:     TI_NewTimer(&timerRebotes);
  2544   000854  0E2B               	movlw	low _timerRebotes
  2545   000856  6E2C               	movwf	TI_NewTimer@TimerHandle^0,c
  2546   000858  ECFC  F002         	call	_TI_NewTimer	;wreg free
  2547   00085C  0012               	return		;funcret
  2548   00085E                     __end_of_DSP_Init:
  2549                           	callstack 0
  2550                           
  2551 ;; *************** function _TI_NewTimer *****************
  2552 ;; Defined at:
  2553 ;;		line 34 in file "TAD_TIMER.c"
  2554 ;; Parameters:    Size  Location     Type
  2555 ;;  TimerHandle     1    0[COMRAM] PTR unsigned char 
  2556 ;;		 -> timerRebotes(1), 
  2557 ;; Auto vars:     Size  Location     Type
  2558 ;;  Comptador       1    2[COMRAM] unsigned char 
  2559 ;; Return value:  Size  Location     Type
  2560 ;;                  1    wreg      unsigned char 
  2561 ;; Registers used:
  2562 ;;		wreg, fsr2l, fsr2h, status,2, status,0, prodl, prodh
  2563 ;; Tracked objects:
  2564 ;;		On entry : 0/0
  2565 ;;		On exit  : 0/0
  2566 ;;		Unchanged: 0/0
  2567 ;; Data sizes:     COMRAM   BANK0   BANK1
  2568 ;;      Params:         1       0       0
  2569 ;;      Locals:         1       0       0
  2570 ;;      Temps:          1       0       0
  2571 ;;      Totals:         3       0       0
  2572 ;;Total ram usage:        3 bytes
  2573 ;; Hardware stack levels used: 1
  2574 ;; Hardware stack levels required when called: 2
  2575 ;; This function calls:
  2576 ;;		Nothing
  2577 ;; This function is called by:
  2578 ;;		_DSP_Init
  2579 ;; This function uses a non-reentrant model
  2580 ;;
  2581                           
  2582                           	psect	text16
  2583   0005F8                     __ptext16:
  2584                           	callstack 0
  2585   0005F8                     _TI_NewTimer:
  2586                           	callstack 27
  2587   0005F8                     
  2588                           ;TAD_TIMER.c: 35:  unsigned char Comptador=0;
  2589   0005F8  6A2E               	clrf	TI_NewTimer@Comptador^0,c
  2590                           
  2591                           ;TAD_TIMER.c: 36:  while (Timers[Comptador].Busy==1) {
  2592   0005FA  EF0B  F003         	goto	l1272
  2593   0005FE                     l1268:
  2594                           
  2595                           ;TAD_TIMER.c: 37:   if (++Comptador == 4) return (0);
  2596   0005FE  2A2E               	incf	TI_NewTimer@Comptador^0,f,c
  2597   000600  0E04               	movlw	4
  2598   000602  182E               	xorwf	TI_NewTimer@Comptador^0,w,c
  2599   000604  A4D8               	btfss	status,2,c
  2600   000606  EF07  F003         	goto	u401
  2601   00060A  EF09  F003         	goto	u400
  2602   00060E                     u401:
  2603   00060E  EF0B  F003         	goto	l1272
  2604   000612                     u400:
  2605   000612  EF26  F003         	goto	l267
  2606   000616                     l1272:
  2607                           
  2608                           ;TAD_TIMER.c: 36:  while (Timers[Comptador].Busy==1) {
  2609   000616  502E               	movf	TI_NewTimer@Comptador^0,w,c
  2610   000618  0D05               	mullw	5
  2611   00061A  50F3               	movf	243,w,c
  2612   00061C  0F05               	addlw	low (_Timers+4)
  2613   00061E  6ED9               	movwf	fsr2l,c
  2614   000620  6ADA               	clrf	fsr2h,c
  2615   000622  04DE               	decf	postinc2,w,c
  2616   000624  B4D8               	btfsc	status,2,c
  2617   000626  EF17  F003         	goto	u411
  2618   00062A  EF19  F003         	goto	u410
  2619   00062E                     u411:
  2620   00062E  EFFF  F002         	goto	l1268
  2621   000632                     u410:
  2622   000632                     
  2623                           ;TAD_TIMER.c: 39:  Timers[Comptador].Busy=1;
  2624   000632  502E               	movf	TI_NewTimer@Comptador^0,w,c
  2625   000634  0D05               	mullw	5
  2626   000636  50F3               	movf	243,w,c
  2627   000638  0F05               	addlw	low (_Timers+4)
  2628   00063A  6ED9               	movwf	fsr2l,c
  2629   00063C  6ADA               	clrf	fsr2h,c
  2630   00063E  0E01               	movlw	1
  2631   000640  6EDF               	movwf	indf2,c
  2632   000642                     
  2633                           ;TAD_TIMER.c: 40:  *TimerHandle=Comptador;
  2634   000642  502C               	movf	TI_NewTimer@TimerHandle^0,w,c
  2635   000644  6ED9               	movwf	fsr2l,c
  2636   000646  6ADA               	clrf	fsr2h,c
  2637   000648  C02E  FFDF         	movff	TI_NewTimer@Comptador,indf2
  2638   00064C                     l267:
  2639   00064C  0012               	return		;funcret
  2640   00064E                     __end_of_TI_NewTimer:
  2641                           	callstack 0
  2642                           
  2643 ;; *************** function _ADC_Motor *****************
  2644 ;; Defined at:
  2645 ;;		line 44 in file "TAD_ADC.c"
  2646 ;; Parameters:    Size  Location     Type
  2647 ;;		None
  2648 ;; Auto vars:     Size  Location     Type
  2649 ;;		None
  2650 ;; Return value:  Size  Location     Type
  2651 ;;                  1    wreg      void 
  2652 ;; Registers used:
  2653 ;;		wreg, status,2, status,0, cstack
  2654 ;; Tracked objects:
  2655 ;;		On entry : 0/0
  2656 ;;		On exit  : 0/0
  2657 ;;		Unchanged: 0/0
  2658 ;; Data sizes:     COMRAM   BANK0   BANK1
  2659 ;;      Params:         0       0       0
  2660 ;;      Locals:         0       0       0
  2661 ;;      Temps:          2       0       0
  2662 ;;      Totals:         2       0       0
  2663 ;;Total ram usage:        2 bytes
  2664 ;; Hardware stack levels used: 1
  2665 ;; Hardware stack levels required when called: 3
  2666 ;; This function calls:
  2667 ;;		_ADC_Finished
  2668 ;;		_ADC_Start
  2669 ;; This function is called by:
  2670 ;;		_main
  2671 ;; This function uses a non-reentrant model
  2672 ;;
  2673                           
  2674                           	psect	text17
  2675   00055C                     __ptext17:
  2676                           	callstack 0
  2677   00055C                     _ADC_Motor:
  2678                           	callstack 27
  2679   00055C                     
  2680                           ;TAD_ADC.c: 45:     switch(estat){
  2681   00055C  EFE8  F002         	goto	l1110
  2682   000560                     l79:
  2683                           
  2684                           ;TAD_ADC.c: 47:             ADCON0bits.CHS3 = 0;
  2685   000560  9AC2               	bcf	194,5,c	;volatile
  2686                           
  2687                           ;TAD_ADC.c: 48:             ADCON0bits.CHS2 = 0;
  2688   000562  98C2               	bcf	194,4,c	;volatile
  2689                           
  2690                           ;TAD_ADC.c: 49:             ADCON0bits.CHS1 = 0;
  2691   000564  96C2               	bcf	194,3,c	;volatile
  2692                           
  2693                           ;TAD_ADC.c: 50:             ADCON0bits.CHS0 = 0;
  2694   000566  94C2               	bcf	194,2,c	;volatile
  2695   000568                     l1084:
  2696                           
  2697                           ;TAD_ADC.c: 51:             estat++;
  2698   000568  2A2A               	incf	_estat^0,f,c
  2699   00056A                     
  2700                           ;TAD_ADC.c: 52:             dataReady = 0;
  2701   00056A  6A29               	clrf	_dataReady^0,c
  2702   00056C                     
  2703                           ;TAD_ADC.c: 53:             ADC_Start();
  2704   00056C  EC5F  F004         	call	_ADC_Start	;wreg free
  2705                           
  2706                           ;TAD_ADC.c: 54:             break;
  2707   000570  EFFB  F002         	goto	l86
  2708   000574                     l1090:
  2709                           
  2710                           ;TAD_ADC.c: 56:             if(ADC_Finished()){
  2711   000574  EC46  F004         	call	_ADC_Finished	;wreg free
  2712   000578  0900               	iorlw	0
  2713   00057A  B4D8               	btfsc	status,2,c
  2714   00057C  EFC2  F002         	goto	u131
  2715   000580  EFC4  F002         	goto	u130
  2716   000584                     u131:
  2717   000584  EFFB  F002         	goto	l86
  2718   000588                     u130:
  2719   000588                     
  2720                           ;TAD_ADC.c: 57:                 valueX = ((unsigned int)ADRESH * 256) | ADRESL;
  2721   000588  50C4               	movf	196,w,c	;volatile
  2722   00058A  6E2C               	movwf	??_ADC_Motor^0,c
  2723   00058C  50C3               	movf	195,w,c	;volatile
  2724   00058E  6E1F               	movwf	_valueX^0,c
  2725   000590  C02C  F020         	movff	??_ADC_Motor,_valueX+1
  2726   000594                     
  2727                           ;TAD_ADC.c: 59:                 estat++;
  2728   000594  2A2A               	incf	_estat^0,f,c
  2729   000596  EFFB  F002         	goto	l86
  2730   00059A                     l83:
  2731                           
  2732                           ;TAD_ADC.c: 63:             ADCON0bits.CHS3 = 0;
  2733   00059A  9AC2               	bcf	194,5,c	;volatile
  2734                           
  2735                           ;TAD_ADC.c: 64:             ADCON0bits.CHS2 = 0;
  2736   00059C  98C2               	bcf	194,4,c	;volatile
  2737                           
  2738                           ;TAD_ADC.c: 65:             ADCON0bits.CHS1 = 0;
  2739   00059E  96C2               	bcf	194,3,c	;volatile
  2740                           
  2741                           ;TAD_ADC.c: 66:             ADCON0bits.CHS0 = 1;
  2742   0005A0  84C2               	bsf	194,2,c	;volatile
  2743   0005A2  EFB4  F002         	goto	l1084
  2744   0005A6                     l1102:
  2745                           
  2746                           ;TAD_ADC.c: 72:             if(ADC_Finished()){
  2747   0005A6  EC46  F004         	call	_ADC_Finished	;wreg free
  2748   0005AA  0900               	iorlw	0
  2749   0005AC  B4D8               	btfsc	status,2,c
  2750   0005AE  EFDB  F002         	goto	u141
  2751   0005B2  EFDD  F002         	goto	u140
  2752   0005B6                     u141:
  2753   0005B6  EFFB  F002         	goto	l86
  2754   0005BA                     u140:
  2755   0005BA                     
  2756                           ;TAD_ADC.c: 73:                 valueY = ((unsigned int)ADRESH * 256) | ADRESL;
  2757   0005BA  50C4               	movf	196,w,c	;volatile
  2758   0005BC  6E2C               	movwf	??_ADC_Motor^0,c
  2759   0005BE  50C3               	movf	195,w,c	;volatile
  2760   0005C0  6E1D               	movwf	_valueY^0,c
  2761   0005C2  C02C  F01E         	movff	??_ADC_Motor,_valueY+1
  2762                           
  2763                           ;TAD_ADC.c: 75:                 dataReady = 1;
  2764   0005C6  0E01               	movlw	1
  2765   0005C8  6E29               	movwf	_dataReady^0,c
  2766   0005CA                     
  2767                           ;TAD_ADC.c: 76:                 estat = 0;
  2768   0005CA  6A2A               	clrf	_estat^0,c
  2769   0005CC  EFFB  F002         	goto	l86
  2770   0005D0                     l1110:
  2771   0005D0  502A               	movf	_estat^0,w,c
  2772                           
  2773                           ; Switch size 1, requested type "simple"
  2774                           ; Number of cases is 4, Range of values is 0 to 3
  2775                           ; switch strategies available:
  2776                           ; Name         Instructions Cycles
  2777                           ; simple_byte           13     7 (average)
  2778                           ;	Chosen strategy is simple_byte
  2779   0005D2  0A00               	xorlw	0	; case 0
  2780   0005D4  B4D8               	btfsc	status,2,c
  2781   0005D6  EFB0  F002         	goto	l79
  2782   0005DA  0A01               	xorlw	1	; case 1
  2783   0005DC  B4D8               	btfsc	status,2,c
  2784   0005DE  EFBA  F002         	goto	l1090
  2785   0005E2  0A03               	xorlw	3	; case 2
  2786   0005E4  B4D8               	btfsc	status,2,c
  2787   0005E6  EFCD  F002         	goto	l83
  2788   0005EA  0A01               	xorlw	1	; case 3
  2789   0005EC  B4D8               	btfsc	status,2,c
  2790   0005EE  EFD3  F002         	goto	l1102
  2791   0005F2  EFFB  F002         	goto	l86
  2792   0005F6                     l86:
  2793   0005F6  0012               	return		;funcret
  2794   0005F8                     __end_of_ADC_Motor:
  2795                           	callstack 0
  2796                           
  2797 ;; *************** function _ADC_Start *****************
  2798 ;; Defined at:
  2799 ;;		line 29 in file "TAD_ADC.c"
  2800 ;; Parameters:    Size  Location     Type
  2801 ;;		None
  2802 ;; Auto vars:     Size  Location     Type
  2803 ;;		None
  2804 ;; Return value:  Size  Location     Type
  2805 ;;                  1    wreg      void 
  2806 ;; Registers used:
  2807 ;;		None
  2808 ;; Tracked objects:
  2809 ;;		On entry : 0/0
  2810 ;;		On exit  : 0/0
  2811 ;;		Unchanged: 0/0
  2812 ;; Data sizes:     COMRAM   BANK0   BANK1
  2813 ;;      Params:         0       0       0
  2814 ;;      Locals:         0       0       0
  2815 ;;      Temps:          0       0       0
  2816 ;;      Totals:         0       0       0
  2817 ;;Total ram usage:        0 bytes
  2818 ;; Hardware stack levels used: 1
  2819 ;; Hardware stack levels required when called: 2
  2820 ;; This function calls:
  2821 ;;		Nothing
  2822 ;; This function is called by:
  2823 ;;		_ADC_Motor
  2824 ;; This function uses a non-reentrant model
  2825 ;;
  2826                           
  2827                           	psect	text18
  2828   0008BE                     __ptext18:
  2829                           	callstack 0
  2830   0008BE                     _ADC_Start:
  2831                           	callstack 27
  2832   0008BE                     
  2833                           ;TAD_ADC.c: 30:     ADCON0bits.GO_DONE = 1;
  2834   0008BE  82C2               	bsf	194,1,c	;volatile
  2835   0008C0  0012               	return		;funcret
  2836   0008C2                     __end_of_ADC_Start:
  2837                           	callstack 0
  2838                           
  2839 ;; *************** function _ADC_Finished *****************
  2840 ;; Defined at:
  2841 ;;		line 33 in file "TAD_ADC.c"
  2842 ;; Parameters:    Size  Location     Type
  2843 ;;		None
  2844 ;; Auto vars:     Size  Location     Type
  2845 ;;		None
  2846 ;; Return value:  Size  Location     Type
  2847 ;;                  1    wreg      unsigned char 
  2848 ;; Registers used:
  2849 ;;		wreg
  2850 ;; Tracked objects:
  2851 ;;		On entry : 0/0
  2852 ;;		On exit  : 0/0
  2853 ;;		Unchanged: 0/0
  2854 ;; Data sizes:     COMRAM   BANK0   BANK1
  2855 ;;      Params:         0       0       0
  2856 ;;      Locals:         0       0       0
  2857 ;;      Temps:          0       0       0
  2858 ;;      Totals:         0       0       0
  2859 ;;Total ram usage:        0 bytes
  2860 ;; Hardware stack levels used: 1
  2861 ;; Hardware stack levels required when called: 2
  2862 ;; This function calls:
  2863 ;;		Nothing
  2864 ;; This function is called by:
  2865 ;;		_ADC_Motor
  2866 ;; This function uses a non-reentrant model
  2867 ;;
  2868                           
  2869                           	psect	text19
  2870   00088C                     __ptext19:
  2871                           	callstack 0
  2872   00088C                     _ADC_Finished:
  2873                           	callstack 27
  2874   00088C                     
  2875                           ;TAD_ADC.c: 34:     return !ADCON0bits.GO_DONE;
  2876   00088C  A2C2               	btfss	194,1,c	;volatile
  2877   00088E  EF4B  F004         	goto	u31
  2878   000892  EF4E  F004         	goto	u30
  2879   000896                     u31:
  2880   000896  0E01               	movlw	1
  2881   000898  EF4F  F004         	goto	u40
  2882   00089C                     u30:
  2883   00089C  0E00               	movlw	0
  2884   00089E                     u40:
  2885   00089E  0012               	return		;funcret
  2886   0008A0                     __end_of_ADC_Finished:
  2887                           	callstack 0
  2888                           
  2889 ;; *************** function _ADC_Init *****************
  2890 ;; Defined at:
  2891 ;;		line 8 in file "TAD_ADC.c"
  2892 ;; Parameters:    Size  Location     Type
  2893 ;;		None
  2894 ;; Auto vars:     Size  Location     Type
  2895 ;;		None
  2896 ;; Return value:  Size  Location     Type
  2897 ;;                  1    wreg      void 
  2898 ;; Registers used:
  2899 ;;		wreg, status,2
  2900 ;; Tracked objects:
  2901 ;;		On entry : 0/0
  2902 ;;		On exit  : 0/0
  2903 ;;		Unchanged: 0/0
  2904 ;; Data sizes:     COMRAM   BANK0   BANK1
  2905 ;;      Params:         0       0       0
  2906 ;;      Locals:         0       0       0
  2907 ;;      Temps:          0       0       0
  2908 ;;      Totals:         0       0       0
  2909 ;;Total ram usage:        0 bytes
  2910 ;; Hardware stack levels used: 1
  2911 ;; Hardware stack levels required when called: 2
  2912 ;; This function calls:
  2913 ;;		Nothing
  2914 ;; This function is called by:
  2915 ;;		_main
  2916 ;; This function uses a non-reentrant model
  2917 ;;
  2918                           
  2919                           	psect	text20
  2920   00080A                     __ptext20:
  2921                           	callstack 0
  2922   00080A                     _ADC_Init:
  2923                           	callstack 28
  2924   00080A                     
  2925                           ;TAD_ADC.c: 9:     estat = 0;
  2926   00080A  6A2A               	clrf	_estat^0,c
  2927   00080C                     
  2928                           ;TAD_ADC.c: 10:     valueX = 0;
  2929   00080C  0E00               	movlw	0
  2930   00080E  6E20               	movwf	(_valueX+1)^0,c
  2931   000810  0E00               	movlw	0
  2932   000812  6E1F               	movwf	_valueX^0,c
  2933                           
  2934                           ;TAD_ADC.c: 11:     valueY = 0;
  2935   000814  0E00               	movlw	0
  2936   000816  6E1E               	movwf	(_valueY+1)^0,c
  2937   000818  0E00               	movlw	0
  2938   00081A  6E1D               	movwf	_valueY^0,c
  2939                           
  2940                           ;TAD_ADC.c: 12:     ADCON0 = 0x01;
  2941   00081C  0E01               	movlw	1
  2942   00081E  6EC2               	movwf	194,c	;volatile
  2943                           
  2944                           ;TAD_ADC.c: 13:     ADCON1 = 0x0D;
  2945   000820  0E0D               	movlw	13
  2946   000822  6EC1               	movwf	193,c	;volatile
  2947                           
  2948                           ;TAD_ADC.c: 14:     ADCON2 = 0x80;
  2949   000824  0E80               	movlw	128
  2950   000826  6EC0               	movwf	192,c	;volatile
  2951   000828  0012               	return		;funcret
  2952   00082A                     __end_of_ADC_Init:
  2953                           	callstack 0
  2954                           
  2955 ;; *************** function _MyRSI *****************
  2956 ;; Defined at:
  2957 ;;		line 19 in file "main.c"
  2958 ;; Parameters:    Size  Location     Type
  2959 ;;		None
  2960 ;; Auto vars:     Size  Location     Type
  2961 ;;		None
  2962 ;; Return value:  Size  Location     Type
  2963 ;;                  1    wreg      void 
  2964 ;; Registers used:
  2965 ;;		wreg, status,2, status,0, cstack
  2966 ;; Tracked objects:
  2967 ;;		On entry : 0/0
  2968 ;;		On exit  : 0/0
  2969 ;;		Unchanged: 0/0
  2970 ;; Data sizes:     COMRAM   BANK0   BANK1
  2971 ;;      Params:         0       0       0
  2972 ;;      Locals:         0       0       0
  2973 ;;      Temps:          0       0       0
  2974 ;;      Totals:         0       0       0
  2975 ;;Total ram usage:        0 bytes
  2976 ;; Hardware stack levels used: 1
  2977 ;; Hardware stack levels required when called: 1
  2978 ;; This function calls:
  2979 ;;		_RSI_Timer0
  2980 ;; This function is called by:
  2981 ;;		Interrupt level 2
  2982 ;; This function uses a non-reentrant model
  2983 ;;
  2984                           
  2985                           	psect	intcode
  2986   000008                     __pintcode:
  2987                           	callstack 0
  2988   000008                     _MyRSI:
  2989                           	callstack 27
  2990                           
  2991                           ;incstack = 0
  2992   000008  823D               	bsf	int$flags,1,c	;set compiler interrupt flag (level 2)
  2993   00000A                     
  2994                           ;main.c: 20: 
  2995   00000A  A4F2               	btfss	4082,2,c	;volatile
  2996   00000C  EF0A  F000         	goto	i2u39_41
  2997   000010  EF0C  F000         	goto	i2u39_40
  2998   000014                     i2u39_41:
  2999   000014  EF0E  F000         	goto	i2l26
  3000   000018                     i2u39_40:
  3001   000018                     
  3002                           ;main.c: 21: 
  3003   000018  EC2F  F004         	call	_RSI_Timer0	;wreg free
  3004   00001C                     i2l26:
  3005   00001C  923D               	bcf	int$flags,1,c	;clear compiler interrupt flag (level 2)
  3006   00001E  0011               	retfie		f
  3007   000020                     __end_of_MyRSI:
  3008                           	callstack 0
  3009                           
  3010 ;; *************** function _RSI_Timer0 *****************
  3011 ;; Defined at:
  3012 ;;		line 18 in file "TAD_TIMER.c"
  3013 ;; Parameters:    Size  Location     Type
  3014 ;;		None
  3015 ;; Auto vars:     Size  Location     Type
  3016 ;;		None
  3017 ;; Return value:  Size  Location     Type
  3018 ;;                  1    wreg      void 
  3019 ;; Registers used:
  3020 ;;		wreg, status,2, status,0
  3021 ;; Tracked objects:
  3022 ;;		On entry : 0/0
  3023 ;;		On exit  : 0/0
  3024 ;;		Unchanged: 0/0
  3025 ;; Data sizes:     COMRAM   BANK0   BANK1
  3026 ;;      Params:         0       0       0
  3027 ;;      Locals:         0       0       0
  3028 ;;      Temps:          0       0       0
  3029 ;;      Totals:         0       0       0
  3030 ;;Total ram usage:        0 bytes
  3031 ;; Hardware stack levels used: 1
  3032 ;; This function calls:
  3033 ;;		Nothing
  3034 ;; This function is called by:
  3035 ;;		_MyRSI
  3036 ;; This function uses a non-reentrant model
  3037 ;;
  3038                           
  3039                           	psect	text22
  3040   00085E                     __ptext22:
  3041                           	callstack 0
  3042   00085E                     _RSI_Timer0:
  3043                           	callstack 27
  3044   00085E                     
  3045                           ;TAD_TIMER.c: 19:     TMR0=64911;
  3046   00085E  0EFD               	movlw	253
  3047   000860  6ED7               	movwf	215,c	;volatile
  3048   000862  0E8F               	movlw	143
  3049   000864  6ED6               	movwf	214,c	;volatile
  3050   000866                     
  3051                           ;TAD_TIMER.c: 20:     TMR0IF=0;
  3052   000866  94F2               	bcf	4082,2,c	;volatile
  3053   000868                     
  3054                           ;TAD_TIMER.c: 21:     Tics++;
  3055   000868  0E01               	movlw	1
  3056   00086A  2615               	addwf	_Tics^0,f,c	;volatile
  3057   00086C  0E00               	movlw	0
  3058   00086E  2216               	addwfc	(_Tics+1)^0,f,c	;volatile
  3059   000870  2217               	addwfc	(_Tics+2)^0,f,c	;volatile
  3060   000872  2218               	addwfc	(_Tics+3)^0,f,c	;volatile
  3061   000874  0012               	return		;funcret
  3062   000876                     __end_of_RSI_Timer0:
  3063                           	callstack 0
  3064                           
  3065                           	psect	rparam
  3066   000001                     ___rparam_used  equ	1
  3067   000000                     ___param_bank   equ	0
  3068   000000                     __Lparam        equ	__Lrparam
  3069   000000                     __Hparam        equ	__Hrparam
  3070                           
  3071                           	psect	temp
  3072   00003D                     btemp:
  3073                           	callstack 0
  3074   00003D                     	ds	1
  3075   00003D                     int$flags       set	btemp
  3076   00003E                     wtemp8          set	btemp+1
  3077   00003E                     ttemp5          set	btemp+1
  3078   000041                     ttemp6          set	btemp+4
  3079   000045                     ttemp7          set	btemp+8
  3080                           
  3081                           	psect	idloc
  3082                           
  3083                           ;Config register IDLOC0 @ 0x200000
  3084                           ;	unspecified, using default values
  3085   200000                     	org	2097152
  3086   200000  FF                 	db	255
  3087                           
  3088                           ;Config register IDLOC1 @ 0x200001
  3089                           ;	unspecified, using default values
  3090   200001                     	org	2097153
  3091   200001  FF                 	db	255
  3092                           
  3093                           ;Config register IDLOC2 @ 0x200002
  3094                           ;	unspecified, using default values
  3095   200002                     	org	2097154
  3096   200002  FF                 	db	255
  3097                           
  3098                           ;Config register IDLOC3 @ 0x200003
  3099                           ;	unspecified, using default values
  3100   200003                     	org	2097155
  3101   200003  FF                 	db	255
  3102                           
  3103                           ;Config register IDLOC4 @ 0x200004
  3104                           ;	unspecified, using default values
  3105   200004                     	org	2097156
  3106   200004  FF                 	db	255
  3107                           
  3108                           ;Config register IDLOC5 @ 0x200005
  3109                           ;	unspecified, using default values
  3110   200005                     	org	2097157
  3111   200005  FF                 	db	255
  3112                           
  3113                           ;Config register IDLOC6 @ 0x200006
  3114                           ;	unspecified, using default values
  3115   200006                     	org	2097158
  3116   200006  FF                 	db	255
  3117                           
  3118                           ;Config register IDLOC7 @ 0x200007
  3119                           ;	unspecified, using default values
  3120   200007                     	org	2097159
  3121   200007  FF                 	db	255
  3122                           
  3123                           	psect	config
  3124                           
  3125                           ; Padding undefined space
  3126   300000                     	org	3145728
  3127   300000  FF                 	db	255
  3128                           
  3129                           ;Config register CONFIG1H @ 0x300001
  3130                           ;	Oscillator
  3131                           ;	OSC = HS, HS Oscillator
  3132                           ;	Fail-Safe Clock Monitor Enable bit
  3133                           ;	FCMEN = 0x0, unprogrammed default
  3134                           ;	Internal/External Oscillator Switchover bit
  3135                           ;	IESO = 0x0, unprogrammed default
  3136   300001                     	org	3145729
  3137   300001  02                 	db	2
  3138                           
  3139                           ;Config register CONFIG2L @ 0x300002
  3140                           ;	Power-up Timer Enable bit
  3141                           ;	PWRT = OFF, PWRT disabled
  3142                           ;	Brown-out Reset Enable bits
  3143                           ;	BOR = OFF, Brown-out Reset disabled in hardware and software
  3144                           ;	Brown-out Reset Voltage bits
  3145                           ;	BORV = 0x3, unprogrammed default
  3146   300002                     	org	3145730
  3147   300002  19                 	db	25
  3148                           
  3149                           ;Config register CONFIG2H @ 0x300003
  3150                           ;	Watchdog Timer Enable bit
  3151                           ;	WDT = OFF, WDT disabled (control is placed on the SWDTEN bit)
  3152                           ;	Watchdog Timer Postscale Select bits
  3153                           ;	WDTPS = 0xF, unprogrammed default
  3154   300003                     	org	3145731
  3155   300003  1E                 	db	30
  3156                           
  3157                           ; Padding undefined space
  3158   300004                     	org	3145732
  3159   300004  FF                 	db	255
  3160                           
  3161                           ;Config register CONFIG3H @ 0x300005
  3162                           ;	CCP2 MUX bit
  3163                           ;	CCP2MX = 0x1, unprogrammed default
  3164                           ;	PORTB A/D Enable bit
  3165                           ;	PBADEN = DIG, PORTB<4:0> pins are configured as digital I/O on Reset
  3166                           ;	Low-Power Timer1 Oscillator Enable bit
  3167                           ;	LPT1OSC = 0x0, unprogrammed default
  3168                           ;	MCLR Pin Enable bit
  3169                           ;	MCLRE = ON, MCLR pin enabled; RE3 input pin disabled
  3170   300005                     	org	3145733
  3171   300005  81                 	db	129
  3172                           
  3173                           ;Config register CONFIG4L @ 0x300006
  3174                           ;	Stack Full/Underflow Reset Enable bit
  3175                           ;	STVREN = 0x1, unprogrammed default
  3176                           ;	Single-Supply ICSP Enable bit
  3177                           ;	LVP = OFF, Single-Supply ICSP disabled
  3178                           ;	Boot Block Size Select bits
  3179                           ;	BBSIZ = 0x0, unprogrammed default
  3180                           ;	Extended Instruction Set Enable bit
  3181                           ;	XINST = 0x0, unprogrammed default
  3182                           ;	Background Debugger Enable bit
  3183                           ;	DEBUG = OFF, Background debugger disabled, RB6 and RB7 configured as general purpose I
      +                          /O pins
  3184   300006                     	org	3145734
  3185   300006  81                 	db	129
  3186                           
  3187                           ; Padding undefined space
  3188   300007                     	org	3145735
  3189   300007  FF                 	db	255
  3190                           
  3191                           ;Config register CONFIG5L @ 0x300008
  3192                           ;	unspecified, using default values
  3193                           ;	Code Protection bit
  3194                           ;	CP0 = 0x1, unprogrammed default
  3195                           ;	Code Protection bit
  3196                           ;	CP1 = 0x1, unprogrammed default
  3197   300008                     	org	3145736
  3198   300008  03                 	db	3
  3199                           
  3200                           ;Config register CONFIG5H @ 0x300009
  3201                           ;	unspecified, using default values
  3202                           ;	Boot Block Code Protection bitProtect Boot
  3203                           ;	CPB = 0x1, unprogrammed default
  3204                           ;	Data EEPROM Code Protection bit
  3205                           ;	CPD = 0x1, unprogrammed default
  3206   300009                     	org	3145737
  3207   300009  C0                 	db	192
  3208                           
  3209                           ;Config register CONFIG6L @ 0x30000A
  3210                           ;	unspecified, using default values
  3211                           ;	Write Protection bit
  3212                           ;	WRT0 = 0x1, unprogrammed default
  3213                           ;	Write Protection bit
  3214                           ;	WRT1 = 0x1, unprogrammed default
  3215   30000A                     	org	3145738
  3216   30000A  03                 	db	3
  3217                           
  3218                           ;Config register CONFIG6H @ 0x30000B
  3219                           ;	unspecified, using default values
  3220                           ;	Configuration Register Write Protection bit
  3221                           ;	WRTC = 0x1, unprogrammed default
  3222                           ;	Boot Block Write Protection bit
  3223                           ;	WRTB = 0x1, unprogrammed default
  3224                           ;	Data EEPROM Write Protection bit
  3225                           ;	WRTD = 0x1, unprogrammed default
  3226   30000B                     	org	3145739
  3227   30000B  E0                 	db	224
  3228                           
  3229                           ;Config register CONFIG7L @ 0x30000C
  3230                           ;	unspecified, using default values
  3231                           ;	Table Read Protection bit
  3232                           ;	EBTR0 = 0x1, unprogrammed default
  3233                           ;	Table Read Protection bit
  3234                           ;	EBTR1 = 0x1, unprogrammed default
  3235   30000C                     	org	3145740
  3236   30000C  03                 	db	3
  3237                           
  3238                           ;Config register CONFIG7H @ 0x30000D
  3239                           ;	unspecified, using default values
  3240                           ;	Boot Block Table Read Protection bit
  3241                           ;	EBTRB = 0x1, unprogrammed default
  3242   30000D                     	org	3145741
  3243   30000D  40                 	db	64
  3244                           tosu	equ	0xFFF
  3245                           tosh	equ	0xFFE
  3246                           tosl	equ	0xFFD
  3247                           stkptr	equ	0xFFC
  3248                           pclatu	equ	0xFFB
  3249                           pclath	equ	0xFFA
  3250                           pcl	equ	0xFF9
  3251                           tblptru	equ	0xFF8
  3252                           tblptrh	equ	0xFF7
  3253                           tblptrl	equ	0xFF6
  3254                           tablat	equ	0xFF5
  3255                           prodh	equ	0xFF4
  3256                           prodl	equ	0xFF3
  3257                           indf0	equ	0xFEF
  3258                           postinc0	equ	0xFEE
  3259                           postdec0	equ	0xFED
  3260                           preinc0	equ	0xFEC
  3261                           plusw0	equ	0xFEB
  3262                           fsr0h	equ	0xFEA
  3263                           fsr0l	equ	0xFE9
  3264                           wreg	equ	0xFE8
  3265                           indf1	equ	0xFE7
  3266                           postinc1	equ	0xFE6
  3267                           postdec1	equ	0xFE5
  3268                           preinc1	equ	0xFE4
  3269                           plusw1	equ	0xFE3
  3270                           fsr1h	equ	0xFE2
  3271                           fsr1l	equ	0xFE1
  3272                           bsr	equ	0xFE0
  3273                           indf2	equ	0xFDF
  3274                           postinc2	equ	0xFDE
  3275                           postdec2	equ	0xFDD
  3276                           preinc2	equ	0xFDC
  3277                           plusw2	equ	0xFDB
  3278                           fsr2h	equ	0xFDA
  3279                           fsr2l	equ	0xFD9
  3280                           status	equ	0xFD8

Data Sizes:
    Strings     0
    Constant    61
    Data        2
    BSS         143
    Persistent  0
    Stack       0

Auto Spaces:
    Space          Size  Autos    Used
    COMRAM          126     15      60
    BANK0           128      0     100
    BANK1           256      0       0

Pointer List with Targets:

    frases	const PTR const unsigned char [5] size(1) Largest target is 13
		 -> frase0(CODE[10]), frase1(CODE[12]), frase2(CODE[12]), frase3(CODE[13]), 
		 -> frase4(CODE[9]), 

    pTxFrase	PTR const unsigned char  size(1) Largest target is 13
		 -> frase0(CODE[10]), frase1(CODE[12]), frase2(CODE[12]), frase3(CODE[13]), 
		 -> frase4(CODE[9]), NULL(NULL[0]), 

    SERIAL_ReadByte@b	PTR unsigned char  size(1) Largest target is 1
		 -> Motor_Serial@aux(COMRAM[1]), 

    TI_NewTimer@TimerHandle	PTR unsigned char  size(1) Largest target is 1
		 -> timerRebotes(COMRAM[1]), 


Critical Paths under _main in COMRAM

    _main->_DSP_Motor
    _Motor_Serial->_SERIAL_PutString
    _DSP_Motor->_TI_GetTics
    _DSP_Init->_TI_NewTimer

Critical Paths under _MyRSI in COMRAM

    None.

Critical Paths under _main in BANK0

    None.

Critical Paths under _MyRSI in BANK0

    None.

Critical Paths under _main in BANK1

    None.

Critical Paths under _MyRSI in BANK1

    None.

Call Graph Tables:

 ---------------------------------------------------------------------------------
 (Depth) Function   	        Calls       Base Space   Used Autos Params    Refs
 ---------------------------------------------------------------------------------
 (0) _main                                                 0     0      0     455
                           _ADC_Init
                          _ADC_Motor
                           _DSP_Init
                          _DSP_Motor
                       _Motor_Serial
                        _SERIAL_Init
                            _TI_Init
                          _initPorts
 ---------------------------------------------------------------------------------
 (1) _initPorts                                            0     0      0       0
 ---------------------------------------------------------------------------------
 (1) _TI_Init                                              1     1      0      45
                                              0 COMRAM     1     1      0
 ---------------------------------------------------------------------------------
 (1) _SERIAL_Init                                          0     0      0       0
            _SERIAL_denegarEscritura
 ---------------------------------------------------------------------------------
 (2) _SERIAL_denegarEscritura                              0     0      0       0
 ---------------------------------------------------------------------------------
 (1) _Motor_Serial                                         2     2      0     216
                                              2 COMRAM     2     2      0
                   _SERIAL_PutString
                    _SERIAL_ReadByte
                     _guardarCharArr
 ---------------------------------------------------------------------------------
 (2) _guardarCharArr                                       1     1      0      87
                                              0 COMRAM     1     1      0
 ---------------------------------------------------------------------------------
 (2) _SERIAL_ReadByte                                      1     0      1      23
                                              0 COMRAM     1     0      1
 ---------------------------------------------------------------------------------
 (1) _DSP_Motor                                            2     2      0      82
                                             13 COMRAM     2     2      0
                     _ADC_ExistValue
                           _ADC_GetX
                           _ADC_GetY
                   _SERIAL_PutString
                         _TI_GetTics
                       _TI_ResetTics
 ---------------------------------------------------------------------------------
 (2) _TI_ResetTics                                         1     1      0      15
                                              0 COMRAM     1     1      0
 ---------------------------------------------------------------------------------
 (2) _TI_GetTics                                          13     9      4      52
                                              0 COMRAM    13     9      4
 ---------------------------------------------------------------------------------
 (2) _SERIAL_PutString                                     2     2      0      15
                                              0 COMRAM     2     2      0
 ---------------------------------------------------------------------------------
 (2) _ADC_GetY                                             2     0      2       0
                                              0 COMRAM     2     0      2
 ---------------------------------------------------------------------------------
 (2) _ADC_GetX                                             2     0      2       0
                                              0 COMRAM     2     0      2
 ---------------------------------------------------------------------------------
 (2) _ADC_ExistValue                                       0     0      0       0
 ---------------------------------------------------------------------------------
 (1) _DSP_Init                                             0     0      0     112
                        _TI_NewTimer
 ---------------------------------------------------------------------------------
 (2) _TI_NewTimer                                          3     2      1     112
                                              0 COMRAM     3     2      1
 ---------------------------------------------------------------------------------
 (1) _ADC_Motor                                            2     2      0       0
                                              0 COMRAM     2     2      0
                       _ADC_Finished
                          _ADC_Start
 ---------------------------------------------------------------------------------
 (2) _ADC_Start                                            0     0      0       0
 ---------------------------------------------------------------------------------
 (2) _ADC_Finished                                         0     0      0       0
 ---------------------------------------------------------------------------------
 (1) _ADC_Init                                             0     0      0       0
 ---------------------------------------------------------------------------------
 Estimated maximum stack depth 2
 ---------------------------------------------------------------------------------
 (Depth) Function   	        Calls       Base Space   Used Autos Params    Refs
 ---------------------------------------------------------------------------------
 (3) _MyRSI                                                0     0      0       0
                         _RSI_Timer0
 ---------------------------------------------------------------------------------
 (4) _RSI_Timer0                                           0     0      0       0
 ---------------------------------------------------------------------------------
 Estimated maximum stack depth 4
 ---------------------------------------------------------------------------------

 Call Graph Graphs:

 _main (ROOT)
   _ADC_Init
   _ADC_Motor
     _ADC_Finished
     _ADC_Start
   _DSP_Init
     _TI_NewTimer
   _DSP_Motor
     _ADC_ExistValue
     _ADC_GetX
     _ADC_GetY
     _SERIAL_PutString
     _TI_GetTics
     _TI_ResetTics
   _Motor_Serial
     _SERIAL_PutString
     _SERIAL_ReadByte
     _guardarCharArr
   _SERIAL_Init
     _SERIAL_denegarEscritura
   _TI_Init
   _initPorts

 _MyRSI (ROOT)
   _RSI_Timer0

Address spaces:
Name               Size   Autos  Total    Usage
BIGRAM             511      0       0      0.0%
BITBANK1           256      0       0      0.0%
BANK1              256      0       0      0.0%
BITBANK0           128      0       0      0.0%
BANK0              128      0     100     78.1%
BITCOMRAM          126      0       0      0.0%
COMRAM             126     15      60     47.6%
BITBIGSFRlh         43      0       0      0.0%
BITBIGSFRhll        39      0       0      0.0%
BITBIGSFRhlh        26      0       0      0.0%
BITBIGSFRhh         13      0       0      0.0%
BITBIGSFRll          1      0       0      0.0%
STACK                0      0       0      0.0%
DATA                 0      0     160      0.0%


Microchip Technology PIC18 Macro Assembler V3.00 build 20241204225717 
Symbol Table                                                                                   Thu Mar 19 12:12:07 2026

                     _RSI_Timer0 085E                               l60 0828                               l29 08B8  
                             l63 088A                               l72 08C0                               l66 08B2  
                             l75 089E                               l83 059A                               l69 08A8  
                             l86 05F6                               l79 0560                               u10 0888  
                             u11 0882                               u20 088A                               u30 089C  
                             u31 0896                               u40 089E                       _TI_GetTics 069A  
                            l210 0842                              l204 0808                              l117 085C  
                            l141 0354                              l213 06FA                              l214 072A  
                            l222 0698                              l136 02F0                              l232 0498  
                            l153 040C                              l129 0278                              l161 0492  
                            l241 055A                              l234 04EA                              l155 0414  
                            l147 03B8                              l228 08BC                              l261 079C  
                            l271 07E8                              l274 06E4                              l267 064C  
                            l964 08BE                              l956 0876                              l966 088C  
                            l990 082C                              l992 0840                              l984 07C8  
                            l986 07CA                              l988 07E6                              u120 078C  
                            u121 0788                              u130 0588                              u131 0584  
                            u140 05BA                              u141 05B6                              u400 0612  
                            u401 060E                              u410 0632                              u411 062E  
                            u500 02E2                              u420 06F4                              u501 02DE  
                            u421 06F0                              u510 0304                              u430 0708  
                            u511 0300                              u431 0704                              u600 03F0  
                            u520 0314                              u440 0724                              u601 03EC  
                            u521 0310                              u441 0720                              u610 03FE  
                            u530 0334                              u450 0662                              u611 03FA  
                            u531 0330                              u451 065E                              u620 0422  
                            u540 0346                              u460 0672                              u700 052E  
                            u621 041E                              u541 0342                              u461 066E  
                            u701 052A                              u630 044C                              u550 0368  
                            u470 0258                              u631 0448                              u551 0364  
                            u471 0254                              u640 045A                              u560 0378  
                            u480 028E                              u641 0456                              u561 0374  
                            u481 028A                              u570 0398                              u490 02D4  
                            u650 04A6                              u571 0394                              u491 02D0  
                            u651 04A2                              u580 03AA                              u660 04B6  
                            u581 03A6                              u661 04B2                              u590 03D0  
                            u670 04D2                              u591 03CC                              u671 04CE  
                            u680 050C                              u681 0508                              u690 051C  
                            u691 0518                              wreg 0FE8                             l1000 08BA  
                           l1102 05A6                             l1110 05D0                             l1104 05BA  
                           l1106 05CA                             l1060 0798                             l1052 076C  
                           l1044 08B4                             l1302 0728                             l1310 0672  
                           l1062 079A                             l1054 077A                             l1046 076A  
                           l1064 080A                             l1400 0422                             l1312 0674  
                           l1320 0694                             l1080 0804                             l1072 07EA  
                           l1056 077C                             l1066 080C                             l1090 0574  
                           l1082 055C                             l1322 0844                             l1410 045E  
                           l1330 0258                             l1314 0682                             l1306 0650  
                           l1074 07F8                             l1058 078C                             l1092 0588  
                           l1084 0568                             l1324 0854                             l1404 042C  
                           l1340 0292                             l1332 0270                             l1316 068E  
                           l1308 0662                             l1420 04B6                             l1076 07FC  
                           l1094 0594                             l1086 056A                             l1262 08AA  
                           l1406 044C                             l1350 02D4                             l1342 0294  
                           l1334 0272                             l1414 0464                             l1326 0240  
                           l1430 04F4                             l1422 04D2                             l1078 07FE  
                           l1088 056C                             l1272 0616                             l1264 08A0  
                           l1280 069C                             l1360 0314                             l1352 02E2  
                           l1344 02A2                             l1336 027C                             l1328 0244  
                           l1440 053A                             l1432 050C                             l1424 04E0  
                           l1416 0494                             l1274 0632                             l1266 05F8  
                           l1282 06B0                             l1370 034C                             l1362 031A  
                           l1354 02E8                             l1346 02B4                             l1434 051C  
                           l1426 04E2                             l1418 04A6                             l1450 07A6  
                           l1276 0642                             l1268 05FE                             l1380 0384  
                           l1372 0356                             l1364 0320                             l1356 02F2  
                           l1348 02C4                             l1292 0708                             l1436 052E  
                           l1428 04EC                             l1444 0544                             l1460 07BA  
                           l1452 07AA                             l1390 03D0                             l1382 0398  
                           l1374 0368                             l1366 0334                             l1358 0304  
                           l1294 070C                             l1286 06E6                             l1438 0530  
                           l1454 07AE                             l1446 079E                             l1392 03F0  
                           l1384 03AA                             l1376 0378                             l1368 0346  
                           l1296 0716                             l1288 06F4                             l1456 07B2  
                           l1448 07A2                             l1394 03FE                             l1386 03B0  
                           l1378 037E                             l1458 07B6                             l1396 0404  
                           l1388 03BE                      _TI_NewTimer 05F8                             i2l26 001C  
                           _TMR0 0FD6                  Motor_Serial@aux 002F                             _Tics 0015  
                           _main 079E                             fsr2h 0FDA                             indf2 0FDF  
                           fsr2l 0FD9                             btemp 003D                 __end_of_ADC_GetX 08B4  
               __end_of_ADC_GetY 08AA                 __end_of_ADC_Init 082A                  __end_of_TI_Init 079E  
                           prodl 0FF3                             start 0020          _SERIAL_denegarEscritura 08BA  
                   ___param_bank 0000                 __end_of_DSP_Init 085E                            ?_main 002C  
               ?_SERIAL_ReadByte 002C                            _T0CON 0FD5                            i2l256 0874  
                          _RCREG 0FAE                            _SPBRG 0FAF                            _TXREG 0FAD  
                          _MyRSI 0008                            _estat 002A                     _TI_ResetTics 07C6  
                          tablat 0FF5                __end_of_ADC_Motor 05F8                __end_of_ADC_Start 08C2  
                          ttemp5 003E                            ttemp6 0041                            ttemp7 0045  
                          status 0FD8                            wtemp8 003E                     _ADC_Finished 088C  
                   ?_SERIAL_Init 002C                  __initialization 072C                _permisosEscritura 0022  
                   __end_of_main 07C6                      ?_RSI_Timer0 002C                   TI_Init@counter 002C  
                    ?_TI_GetTics 002C                           ??_main 003B                    __activetblptr 0002  
              guardarCharArr@aux 002C                           ?_MyRSI 002C                           _ADCON0 0FC2  
                         _ADCON1 0FC1                           _ADCON2 0FC0                __end_of_DSP_Motor 0494  
                         _ADRESH 0FC4                           _ADRESL 0FC3                        ??_TI_Init 002C  
                         i2l1040 0866                           i2l1042 0868                           i2l1038 085E  
                         i2l1232 000A                           i2l1234 0018        ??_SERIAL_denegarEscritura 002C  
                         _TMR0IF 7F92                           _SPBRGH 0FB0                SERIAL_PutString@s 002D  
                         _Timers 0001                           _frase0 022B                           _frase1 021F  
                         _frase2 0213                           _frase3 0206                           _frase4 0235  
                         _indice 0024                           _frases 0201                           _estado 0025  
                         clear_0 074A                           clear_1 0756                           _valueX 001F  
                         _valueY 001D                           isa$std 0001                           _valorX 001B  
                         _valorY 0019                ?_SERIAL_PutString 002C                     __pdataCOMRAM 003B  
                      ?_ADC_GetX 002C                        ?_ADC_GetY 002C                        ?_ADC_Init 002C  
             ??_SERIAL_PutString 002C                     __mediumconst 0200                           tblptrh 0FF7  
                         tblptrl 0FF6                           tblptru 0FF8                       __accesstop 0080  
        __end_of__initialization 075C                    ___rparam_used 0001                        ?_DSP_Init 002C  
                  __end_of_MyRSI 0020                   __pcstackCOMRAM 002C             TI_NewTimer@Comptador 002E  
                     ??_ADC_GetX 002E                       ??_ADC_GetY 002E                       ??_ADC_Init 002C  
                        ??_MyRSI 002C                     ?_TI_NewTimer 002C                       __pbssBANK0 0080  
                     ??_DSP_Init 002F           TI_NewTimer@TimerHandle 002C          TI_ResetTics@TimerHandle 002C  
                  ?_Motor_Serial 002C                          i2u39_40 0018                          i2u39_41 0014  
                        _TI_Init 076A                        _ADC_Motor 055C                        _ADC_Start 08BE  
                        __Hparam 0000                          __Lparam 0000                   ??_Motor_Serial 002E  
                   ??_RSI_Timer0 002C                     __psmallconst 0200                     ??_TI_GetTics 0030  
                        __pcinit 072C                          __ramtop 0200                          __ptext0 079E  
                        __ptext1 08B4                          __ptext2 076A                          __ptext3 07EA  
                        __ptext4 08BA                          __ptext5 0494                          __ptext6 064E  
                        __ptext7 06E6                          __ptext8 0240                          __ptext9 07C6  
              __end_of_initPorts 08BA                          _readArr 0080             end_of_initialization 075C  
             __end_of_RSI_Timer0 0876                        _DSP_Motor 0240                    __Lmediumconst 0000  
             __end_of_TI_GetTics 06E6                       ?_ADC_Motor 002C                       ?_ADC_Start 002C  
                      _RCSTAbits 0FAB                          postinc0 0FEE                          postinc2 0FDE  
                      _PORTBbits 0F81                   _guardarCharArr 064E            TI_GetTics@TimerHandle 0038  
                      _TRISBbits 0F93                 SERIAL_ReadByte@b 002C                    Motor_Serial@c 002E  
                     ?_DSP_Motor 002C                        _TXSTAbits 0FAC                    __pidataCOMRAM 08C2  
         __end_of_guardarCharArr 069A                   __end_of_frase0 0235                   __end_of_frase1 022B  
                 __end_of_frase2 021F                   __end_of_frase3 0213                   __end_of_frase4 023E  
                 __end_of_frases 0206                   _ADC_ExistValue 0876              start_initialization 072C  
       ?_SERIAL_denegarEscritura 002C             __end_of_Motor_Serial 055C                ??_SERIAL_ReadByte 002D  
                     DSP_Motor@i 0026                      ??_ADC_Motor 002C                      ??_ADC_Start 002C  
                ?_guardarCharArr 002C           __end_of_ADC_ExistValue 088C                      __pbssCOMRAM 0001  
                  ?_TI_ResetTics 002C                         ?_TI_Init 002C                      ??_DSP_Motor 0039  
                      _dataReady 0029                    ?_ADC_Finished 002C                    ??_SERIAL_Init 002C  
                      __pintcode 0008                      _flagRebotes 0028                  ?_ADC_ExistValue 002C  
                    __smallconst 0200  __end_of_SERIAL_denegarEscritura 08BE                         _ADC_GetX 08AA  
                       _ADC_GetY 08A0                         _ADC_Init 080A                   ??_TI_ResetTics 002C  
                      _initPorts 08B4                 _SERIAL_PutString 082A                   ??_ADC_Finished 002C  
                       _DSP_Init 0844                         _PIR1bits 0F9E              __end_of_SERIAL_Init 080A  
                     _ADCON0bits 0FC2                       ?_initPorts 002C                      _INTCON2bits 0FF1  
                       __Hrparam 0000                         __Lrparam 0000                     _Motor_Serial 0494  
                _SERIAL_ReadByte 06E6                         __ptext10 069A                         __ptext11 082A  
                       __ptext20 080A                         __ptext12 08A0                         __ptext13 08AA  
                       __ptext22 085E                         __ptext14 0876                         __ptext15 0844  
                       __ptext16 05F8                         __ptext17 055C                         __ptext18 08BE  
                       __ptext19 088C                         _pTxFrase 0021                    ??_TI_NewTimer 002D  
                       _lastDirX 003C                         _lastDirY 003B                         _enviarCR 0023  
                    _SERIAL_Init 07EA                 ??_guardarCharArr 002C                         isa$xinst 0000  
           __end_of_TI_ResetTics 07EA                         int$flags 003D             __end_of_ADC_Finished 08A0  
                     _INTCONbits 0FF2        TI_GetTics@CopiaTicsActual 0034                      ??_initPorts 002C  
                       intlevel2 0000                     _timerRebotes 002B              __end_of_TI_NewTimer 064E  
               ??_ADC_ExistValue 002C                  DSP_Motor@estado 0027          __end_of_SERIAL_ReadByte 072C  
       __end_of_SERIAL_PutString 0844  
