

Microchip MPLAB XC8 Assembler V3.00 build 20241204225717 
                                                                                               Mon Apr 13 15:47:03 2026

Microchip MPLAB XC8 C Compiler v3.00 (Free license) build 20241204225717 Og9 
     1                           	processor	18F4321
     2                           	fnconf	rparam,??,?,0
     3                           	pagewidth 120
     4                           	opt	flic
     5                           	psect	idataCOMRAM,global,class=CODE,space=0,delta=1,noexec
     6                           	psect	smallconst,global,reloc=2,class=SMALLCONST,space=0,delta=1,noexec
     7                           	psect	cinit,global,reloc=2,class=CODE,space=0,delta=1
     8                           	psect	bssCOMRAM,global,class=COMRAM,space=1,delta=1,lowdata,noexec
     9                           	psect	dataCOMRAM,global,class=COMRAM,space=1,delta=1,lowdata,noexec
    10                           	psect	cstackCOMRAM,global,class=COMRAM,space=1,delta=1,lowdata,noexec
    11                           	psect	text0,global,reloc=2,class=CODE,space=0,delta=1
    12                           	psect	text1,global,reloc=2,class=CODE,space=0,delta=1
    13                           	psect	text2,global,reloc=2,class=CODE,space=0,delta=1
    14                           	psect	text3,global,reloc=2,class=CODE,space=0,delta=1
    15                           	psect	text4,global,reloc=2,class=CODE,space=0,delta=1
    16                           	psect	text5,global,reloc=2,class=CODE,space=0,delta=1
    17                           	psect	text6,global,reloc=2,class=CODE,space=0,delta=1
    18                           	psect	text7,global,reloc=2,class=CODE,space=0,delta=1
    19                           	psect	text8,global,reloc=2,class=CODE,space=0,delta=1
    20                           	psect	text9,global,reloc=2,class=CODE,space=0,delta=1
    21                           	psect	text10,global,reloc=2,class=CODE,space=0,delta=1
    22                           	psect	text11,global,reloc=2,class=CODE,space=0,delta=1
    23                           	psect	text12,global,reloc=2,class=CODE,space=0,delta=1
    24                           	psect	text13,global,reloc=2,class=CODE,space=0,delta=1
    25                           	psect	text14,global,reloc=2,class=CODE,space=0,delta=1
    26                           	psect	text15,global,reloc=2,class=CODE,space=0,delta=1
    27                           	psect	text16,global,reloc=2,class=CODE,space=0,delta=1
    28                           	psect	text17,global,reloc=2,class=CODE,space=0,delta=1
    29                           	psect	text18,global,reloc=2,class=CODE,space=0,delta=1
    30                           	psect	text19,global,reloc=2,class=CODE,space=0,delta=1
    31                           	psect	text20,global,reloc=2,class=CODE,space=0,delta=1
    32                           	psect	text21,global,reloc=2,class=CODE,space=0,delta=1
    33                           	psect	text22,global,reloc=2,class=CODE,space=0,delta=1
    34                           	psect	intcode,global,reloc=2,class=CODE,space=0,delta=1
    35                           	psect	text24,global,reloc=2,class=CODE,space=0,delta=1
    36                           	psect	intsave_regs,global,class=BIGRAM,space=1,delta=1,noexec
    37                           	psect	rparam,global,class=COMRAM,space=1,delta=1,noexec
    38                           	psect	temp,global,ovrld,common,class=COMRAM,space=1,delta=1,lowdata
    39                           	psect	idloc,global,abs,ovrld,class=IDLOC,space=5,delta=1,noexec
    40                           	psect	config,global,abs,ovrld,class=CONFIG,space=4,delta=1,noexec
    41   000000                     
    42                           ; Generated 05/12/2024 GMT
    43                           ; 
    44                           ; Copyright © 2024, Microchip Technology Inc. and its subsidiaries ("Microchip")
    45                           ; All rights reserved.
    46                           ; 
    47                           ; This software is developed by Microchip Technology Inc. and its subsidiaries ("Microch
      +                          ip").
    48                           ; 
    49                           ; Redistribution and use in source and binary forms, with or without modification, are
    50                           ; permitted provided that the following conditions are met:
    51                           ; 
    52                           ;     1. Redistributions of source code must retain the above copyright notice, this lis
      +                          t of
    53                           ;        conditions and the following disclaimer.
    54                           ; 
    55                           ;     2. Redistributions in binary form must reproduce the above copyright notice, this 
      +                          list
    56                           ;        of conditions and the following disclaimer in the documentation and/or other
    57                           ;        materials provided with the distribution. Publication is not required when
    58                           ;        this file is used in an embedded application.
    59                           ; 
    60                           ;     3. Microchip's name may not be used to endorse or promote products derived from th
      +                          is
    61                           ;        software without specific prior written permission.
    62                           ; 
    63                           ; THIS SOFTWARE IS PROVIDED BY MICROCHIP "AS IS" AND ANY EXPRESS OR IMPLIED WARRANTIES,
    64                           ; INCLUDING, BUT NOT LIMITED TO, THE IMPLIED WARRANTIES OF MERCHANTABILITY AND FITNESS F
      +                          OR
    65                           ; PURPOSE ARE DISCLAIMED.  IN NO EVENT SHALL MICROCHIP BE LIABLE FOR ANY DIRECT, INDIREC
      +                          T,
    66                           ; INCIDENTAL, SPECIAL, EXEMPLARY, OR CONSEQUENTIAL DAMAGES (INCLUDING BUT NOT LIMITED TO
    67                           ; PROCUREMENT OF SUBSTITUTE GOODS OR SERVICES; LOSS OF USE, DATA OR PROFITS; OR BUSINESS
    68                           ; INTERRUPTION) HOWSOEVER CAUSED AND ON ANY THEORY OF LIABILITY, WHETHER IN CONTRACT, ST
      +                          RICT
    69                           ; LIABILITY, OR TORT (INCLUDING NEGLIGENCE OR OTHERWISE) ARISING IN ANY WAY OUT OF THE U
      +                          SE OF
    70                           ; THIS SOFTWARE, EVEN IF ADVISED OF THE POSSIBILITY OF SUCH DAMAGE.
    71                           ; 
    72                           ; 
    73                           ; Code-generator required, PIC18F4321 Definitions
    74                           ; 
    75                           ; SFR Addresses
    76   000FE0                     bsr             equ	4064
    77   000FE9                     fsr0            equ	4073
    78   000FEA                     fsr0h           equ	4074
    79   000FE9                     fsr0l           equ	4073
    80   000FE1                     fsr1            equ	4065
    81   000FE2                     fsr1h           equ	4066
    82   000FE1                     fsr1l           equ	4065
    83   000FD9                     fsr2            equ	4057
    84   000FDA                     fsr2h           equ	4058
    85   000FD9                     fsr2l           equ	4057
    86   000FEF                     indf0           equ	4079
    87   000FE7                     indf1           equ	4071
    88   000FDF                     indf2           equ	4063
    89   000FF2                     intcon          equ	4082
    90   000000                     nvmcon          equ	0
    91   000FF9                     pcl             equ	4089
    92   000FFA                     pclath          equ	4090
    93   000FFB                     pclatu          equ	4091
    94   000FEB                     plusw0          equ	4075
    95   000FE3                     plusw1          equ	4067
    96   000FDB                     plusw2          equ	4059
    97   000FED                     postdec0        equ	4077
    98   000FE5                     postdec1        equ	4069
    99   000FDD                     postdec2        equ	4061
   100   000FEE                     postinc0        equ	4078
   101   000FE6                     postinc1        equ	4070
   102   000FDE                     postinc2        equ	4062
   103   000FEC                     preinc0         equ	4076
   104   000FE4                     preinc1         equ	4068
   105   000FDC                     preinc2         equ	4060
   106   000FF3                     prod            equ	4083
   107   000FF4                     prodh           equ	4084
   108   000FF3                     prodl           equ	4083
   109   000FD8                     status          equ	4056
   110   000FF5                     tablat          equ	4085
   111   000FF6                     tblptr          equ	4086
   112   000FF7                     tblptrh         equ	4087
   113   000FF6                     tblptrl         equ	4086
   114   000FF8                     tblptru         equ	4088
   115   000FFD                     tosl            equ	4093
   116   000FE8                     wreg            equ	4072
   117   000F80                     PORTA           equ	3968	;# 
   118   000F81                     PORTB           equ	3969	;# 
   119   000F82                     PORTC           equ	3970	;# 
   120   000F83                     PORTD           equ	3971	;# 
   121   000F84                     PORTE           equ	3972	;# 
   122   000F89                     LATA            equ	3977	;# 
   123   000F8A                     LATB            equ	3978	;# 
   124   000F8B                     LATC            equ	3979	;# 
   125   000F8C                     LATD            equ	3980	;# 
   126   000F8D                     LATE            equ	3981	;# 
   127   000F92                     TRISA           equ	3986	;# 
   128   000F92                     DDRA            equ	3986	;# 
   129   000F93                     TRISB           equ	3987	;# 
   130   000F93                     DDRB            equ	3987	;# 
   131   000F94                     TRISC           equ	3988	;# 
   132   000F94                     DDRC            equ	3988	;# 
   133   000F95                     TRISD           equ	3989	;# 
   134   000F95                     DDRD            equ	3989	;# 
   135   000F96                     TRISE           equ	3990	;# 
   136   000F96                     DDRE            equ	3990	;# 
   137   000F9B                     OSCTUNE         equ	3995	;# 
   138   000F9D                     PIE1            equ	3997	;# 
   139   000F9E                     PIR1            equ	3998	;# 
   140   000F9F                     IPR1            equ	3999	;# 
   141   000FA0                     PIE2            equ	4000	;# 
   142   000FA1                     PIR2            equ	4001	;# 
   143   000FA2                     IPR2            equ	4002	;# 
   144   000FA6                     EECON1          equ	4006	;# 
   145   000FA7                     EECON2          equ	4007	;# 
   146   000FA8                     EEDATA          equ	4008	;# 
   147   000FA9                     EEADR           equ	4009	;# 
   148   000FAB                     RCSTA           equ	4011	;# 
   149   000FAB                     RCSTA1          equ	4011	;# 
   150   000FAC                     TXSTA           equ	4012	;# 
   151   000FAC                     TXSTA1          equ	4012	;# 
   152   000FAD                     TXREG           equ	4013	;# 
   153   000FAD                     TXREG1          equ	4013	;# 
   154   000FAE                     RCREG           equ	4014	;# 
   155   000FAE                     RCREG1          equ	4014	;# 
   156   000FAF                     SPBRG           equ	4015	;# 
   157   000FAF                     SPBRG1          equ	4015	;# 
   158   000FB0                     SPBRGH          equ	4016	;# 
   159   000FB1                     T3CON           equ	4017	;# 
   160   000FB2                     TMR3            equ	4018	;# 
   161   000FB2                     TMR3L           equ	4018	;# 
   162   000FB3                     TMR3H           equ	4019	;# 
   163   000FB4                     CMCON           equ	4020	;# 
   164   000FB5                     CVRCON          equ	4021	;# 
   165   000FB6                     ECCP1AS         equ	4022	;# 
   166   000FB7                     ECCP1DEL        equ	4023	;# 
   167   000FB7                     PWM1CON         equ	4023	;# 
   168   000FB8                     BAUDCON         equ	4024	;# 
   169   000FB8                     BAUDCTL         equ	4024	;# 
   170   000FBA                     CCP2CON         equ	4026	;# 
   171   000FBB                     CCPR2           equ	4027	;# 
   172   000FBB                     CCPR2L          equ	4027	;# 
   173   000FBC                     CCPR2H          equ	4028	;# 
   174   000FBD                     CCP1CON         equ	4029	;# 
   175   000FBD                     ECCP1CON        equ	4029	;# 
   176   000FBE                     CCPR1           equ	4030	;# 
   177   000FBE                     CCPR1L          equ	4030	;# 
   178   000FBF                     CCPR1H          equ	4031	;# 
   179   000FC0                     ADCON2          equ	4032	;# 
   180   000FC1                     ADCON1          equ	4033	;# 
   181   000FC2                     ADCON0          equ	4034	;# 
   182   000FC3                     ADRES           equ	4035	;# 
   183   000FC3                     ADRESL          equ	4035	;# 
   184   000FC4                     ADRESH          equ	4036	;# 
   185   000FC5                     SSPCON2         equ	4037	;# 
   186   000FC6                     SSPCON1         equ	4038	;# 
   187   000FC7                     SSPSTAT         equ	4039	;# 
   188   000FC8                     SSPADD          equ	4040	;# 
   189   000FC9                     SSPBUF          equ	4041	;# 
   190   000FCA                     T2CON           equ	4042	;# 
   191   000FCB                     PR2             equ	4043	;# 
   192   000FCB                     MEMCON          equ	4043	;# 
   193   000FCC                     TMR2            equ	4044	;# 
   194   000FCD                     T1CON           equ	4045	;# 
   195   000FCE                     TMR1            equ	4046	;# 
   196   000FCE                     TMR1L           equ	4046	;# 
   197   000FCF                     TMR1H           equ	4047	;# 
   198   000FD0                     RCON            equ	4048	;# 
   199   000FD1                     WDTCON          equ	4049	;# 
   200   000FD2                     HLVDCON         equ	4050	;# 
   201   000FD2                     LVDCON          equ	4050	;# 
   202   000FD3                     OSCCON          equ	4051	;# 
   203   000FD5                     T0CON           equ	4053	;# 
   204   000FD6                     TMR0            equ	4054	;# 
   205   000FD6                     TMR0L           equ	4054	;# 
   206   000FD7                     TMR0H           equ	4055	;# 
   207   000FD8                     STATUS          equ	4056	;# 
   208   000FD9                     FSR2            equ	4057	;# 
   209   000FD9                     FSR2L           equ	4057	;# 
   210   000FDA                     FSR2H           equ	4058	;# 
   211   000FDB                     PLUSW2          equ	4059	;# 
   212   000FDC                     PREINC2         equ	4060	;# 
   213   000FDD                     POSTDEC2        equ	4061	;# 
   214   000FDE                     POSTINC2        equ	4062	;# 
   215   000FDF                     INDF2           equ	4063	;# 
   216   000FE0                     BSR             equ	4064	;# 
   217   000FE1                     FSR1            equ	4065	;# 
   218   000FE1                     FSR1L           equ	4065	;# 
   219   000FE2                     FSR1H           equ	4066	;# 
   220   000FE3                     PLUSW1          equ	4067	;# 
   221   000FE4                     PREINC1         equ	4068	;# 
   222   000FE5                     POSTDEC1        equ	4069	;# 
   223   000FE6                     POSTINC1        equ	4070	;# 
   224   000FE7                     INDF1           equ	4071	;# 
   225   000FE8                     WREG            equ	4072	;# 
   226   000FE9                     FSR0            equ	4073	;# 
   227   000FE9                     FSR0L           equ	4073	;# 
   228   000FEA                     FSR0H           equ	4074	;# 
   229   000FEB                     PLUSW0          equ	4075	;# 
   230   000FEC                     PREINC0         equ	4076	;# 
   231   000FED                     POSTDEC0        equ	4077	;# 
   232   000FEE                     POSTINC0        equ	4078	;# 
   233   000FEF                     INDF0           equ	4079	;# 
   234   000FF0                     INTCON3         equ	4080	;# 
   235   000FF1                     INTCON2         equ	4081	;# 
   236   000FF2                     INTCON          equ	4082	;# 
   237   000FF3                     PROD            equ	4083	;# 
   238   000FF3                     PRODL           equ	4083	;# 
   239   000FF4                     PRODH           equ	4084	;# 
   240   000FF5                     TABLAT          equ	4085	;# 
   241   000FF6                     TBLPTR          equ	4086	;# 
   242   000FF6                     TBLPTRL         equ	4086	;# 
   243   000FF7                     TBLPTRH         equ	4087	;# 
   244   000FF8                     TBLPTRU         equ	4088	;# 
   245   000FF9                     PCLAT           equ	4089	;# 
   246   000FF9                     PC              equ	4089	;# 
   247   000FF9                     PCL             equ	4089	;# 
   248   000FFA                     PCLATH          equ	4090	;# 
   249   000FFB                     PCLATU          equ	4091	;# 
   250   000FFC                     STKPTR          equ	4092	;# 
   251   000FFD                     TOS             equ	4093	;# 
   252   000FFD                     TOSL            equ	4093	;# 
   253   000FFE                     TOSH            equ	4094	;# 
   254   000FFF                     TOSU            equ	4095	;# 
   255   000F80                     PORTA           equ	3968	;# 
   256   000F81                     PORTB           equ	3969	;# 
   257   000F82                     PORTC           equ	3970	;# 
   258   000F83                     PORTD           equ	3971	;# 
   259   000F84                     PORTE           equ	3972	;# 
   260   000F89                     LATA            equ	3977	;# 
   261   000F8A                     LATB            equ	3978	;# 
   262   000F8B                     LATC            equ	3979	;# 
   263   000F8C                     LATD            equ	3980	;# 
   264   000F8D                     LATE            equ	3981	;# 
   265   000F92                     TRISA           equ	3986	;# 
   266   000F92                     DDRA            equ	3986	;# 
   267   000F93                     TRISB           equ	3987	;# 
   268   000F93                     DDRB            equ	3987	;# 
   269   000F94                     TRISC           equ	3988	;# 
   270   000F94                     DDRC            equ	3988	;# 
   271   000F95                     TRISD           equ	3989	;# 
   272   000F95                     DDRD            equ	3989	;# 
   273   000F96                     TRISE           equ	3990	;# 
   274   000F96                     DDRE            equ	3990	;# 
   275   000F9B                     OSCTUNE         equ	3995	;# 
   276   000F9D                     PIE1            equ	3997	;# 
   277   000F9E                     PIR1            equ	3998	;# 
   278   000F9F                     IPR1            equ	3999	;# 
   279   000FA0                     PIE2            equ	4000	;# 
   280   000FA1                     PIR2            equ	4001	;# 
   281   000FA2                     IPR2            equ	4002	;# 
   282   000FA6                     EECON1          equ	4006	;# 
   283   000FA7                     EECON2          equ	4007	;# 
   284   000FA8                     EEDATA          equ	4008	;# 
   285   000FA9                     EEADR           equ	4009	;# 
   286   000FAB                     RCSTA           equ	4011	;# 
   287   000FAB                     RCSTA1          equ	4011	;# 
   288   000FAC                     TXSTA           equ	4012	;# 
   289   000FAC                     TXSTA1          equ	4012	;# 
   290   000FAD                     TXREG           equ	4013	;# 
   291   000FAD                     TXREG1          equ	4013	;# 
   292   000FAE                     RCREG           equ	4014	;# 
   293   000FAE                     RCREG1          equ	4014	;# 
   294   000FAF                     SPBRG           equ	4015	;# 
   295   000FAF                     SPBRG1          equ	4015	;# 
   296   000FB0                     SPBRGH          equ	4016	;# 
   297   000FB1                     T3CON           equ	4017	;# 
   298   000FB2                     TMR3            equ	4018	;# 
   299   000FB2                     TMR3L           equ	4018	;# 
   300   000FB3                     TMR3H           equ	4019	;# 
   301   000FB4                     CMCON           equ	4020	;# 
   302   000FB5                     CVRCON          equ	4021	;# 
   303   000FB6                     ECCP1AS         equ	4022	;# 
   304   000FB7                     ECCP1DEL        equ	4023	;# 
   305   000FB7                     PWM1CON         equ	4023	;# 
   306   000FB8                     BAUDCON         equ	4024	;# 
   307   000FB8                     BAUDCTL         equ	4024	;# 
   308   000FBA                     CCP2CON         equ	4026	;# 
   309   000FBB                     CCPR2           equ	4027	;# 
   310   000FBB                     CCPR2L          equ	4027	;# 
   311   000FBC                     CCPR2H          equ	4028	;# 
   312   000FBD                     CCP1CON         equ	4029	;# 
   313   000FBD                     ECCP1CON        equ	4029	;# 
   314   000FBE                     CCPR1           equ	4030	;# 
   315   000FBE                     CCPR1L          equ	4030	;# 
   316   000FBF                     CCPR1H          equ	4031	;# 
   317   000FC0                     ADCON2          equ	4032	;# 
   318   000FC1                     ADCON1          equ	4033	;# 
   319   000FC2                     ADCON0          equ	4034	;# 
   320   000FC3                     ADRES           equ	4035	;# 
   321   000FC3                     ADRESL          equ	4035	;# 
   322   000FC4                     ADRESH          equ	4036	;# 
   323   000FC5                     SSPCON2         equ	4037	;# 
   324   000FC6                     SSPCON1         equ	4038	;# 
   325   000FC7                     SSPSTAT         equ	4039	;# 
   326   000FC8                     SSPADD          equ	4040	;# 
   327   000FC9                     SSPBUF          equ	4041	;# 
   328   000FCA                     T2CON           equ	4042	;# 
   329   000FCB                     PR2             equ	4043	;# 
   330   000FCB                     MEMCON          equ	4043	;# 
   331   000FCC                     TMR2            equ	4044	;# 
   332   000FCD                     T1CON           equ	4045	;# 
   333   000FCE                     TMR1            equ	4046	;# 
   334   000FCE                     TMR1L           equ	4046	;# 
   335   000FCF                     TMR1H           equ	4047	;# 
   336   000FD0                     RCON            equ	4048	;# 
   337   000FD1                     WDTCON          equ	4049	;# 
   338   000FD2                     HLVDCON         equ	4050	;# 
   339   000FD2                     LVDCON          equ	4050	;# 
   340   000FD3                     OSCCON          equ	4051	;# 
   341   000FD5                     T0CON           equ	4053	;# 
   342   000FD6                     TMR0            equ	4054	;# 
   343   000FD6                     TMR0L           equ	4054	;# 
   344   000FD7                     TMR0H           equ	4055	;# 
   345   000FD8                     STATUS          equ	4056	;# 
   346   000FD9                     FSR2            equ	4057	;# 
   347   000FD9                     FSR2L           equ	4057	;# 
   348   000FDA                     FSR2H           equ	4058	;# 
   349   000FDB                     PLUSW2          equ	4059	;# 
   350   000FDC                     PREINC2         equ	4060	;# 
   351   000FDD                     POSTDEC2        equ	4061	;# 
   352   000FDE                     POSTINC2        equ	4062	;# 
   353   000FDF                     INDF2           equ	4063	;# 
   354   000FE0                     BSR             equ	4064	;# 
   355   000FE1                     FSR1            equ	4065	;# 
   356   000FE1                     FSR1L           equ	4065	;# 
   357   000FE2                     FSR1H           equ	4066	;# 
   358   000FE3                     PLUSW1          equ	4067	;# 
   359   000FE4                     PREINC1         equ	4068	;# 
   360   000FE5                     POSTDEC1        equ	4069	;# 
   361   000FE6                     POSTINC1        equ	4070	;# 
   362   000FE7                     INDF1           equ	4071	;# 
   363   000FE8                     WREG            equ	4072	;# 
   364   000FE9                     FSR0            equ	4073	;# 
   365   000FE9                     FSR0L           equ	4073	;# 
   366   000FEA                     FSR0H           equ	4074	;# 
   367   000FEB                     PLUSW0          equ	4075	;# 
   368   000FEC                     PREINC0         equ	4076	;# 
   369   000FED                     POSTDEC0        equ	4077	;# 
   370   000FEE                     POSTINC0        equ	4078	;# 
   371   000FEF                     INDF0           equ	4079	;# 
   372   000FF0                     INTCON3         equ	4080	;# 
   373   000FF1                     INTCON2         equ	4081	;# 
   374   000FF2                     INTCON          equ	4082	;# 
   375   000FF3                     PROD            equ	4083	;# 
   376   000FF3                     PRODL           equ	4083	;# 
   377   000FF4                     PRODH           equ	4084	;# 
   378   000FF5                     TABLAT          equ	4085	;# 
   379   000FF6                     TBLPTR          equ	4086	;# 
   380   000FF6                     TBLPTRL         equ	4086	;# 
   381   000FF7                     TBLPTRH         equ	4087	;# 
   382   000FF8                     TBLPTRU         equ	4088	;# 
   383   000FF9                     PCLAT           equ	4089	;# 
   384   000FF9                     PC              equ	4089	;# 
   385   000FF9                     PCL             equ	4089	;# 
   386   000FFA                     PCLATH          equ	4090	;# 
   387   000FFB                     PCLATU          equ	4091	;# 
   388   000FFC                     STKPTR          equ	4092	;# 
   389   000FFD                     TOS             equ	4093	;# 
   390   000FFD                     TOSL            equ	4093	;# 
   391   000FFE                     TOSH            equ	4094	;# 
   392   000FFF                     TOSU            equ	4095	;# 
   393   000F80                     PORTA           equ	3968	;# 
   394   000F81                     PORTB           equ	3969	;# 
   395   000F82                     PORTC           equ	3970	;# 
   396   000F83                     PORTD           equ	3971	;# 
   397   000F84                     PORTE           equ	3972	;# 
   398   000F89                     LATA            equ	3977	;# 
   399   000F8A                     LATB            equ	3978	;# 
   400   000F8B                     LATC            equ	3979	;# 
   401   000F8C                     LATD            equ	3980	;# 
   402   000F8D                     LATE            equ	3981	;# 
   403   000F92                     TRISA           equ	3986	;# 
   404   000F92                     DDRA            equ	3986	;# 
   405   000F93                     TRISB           equ	3987	;# 
   406   000F93                     DDRB            equ	3987	;# 
   407   000F94                     TRISC           equ	3988	;# 
   408   000F94                     DDRC            equ	3988	;# 
   409   000F95                     TRISD           equ	3989	;# 
   410   000F95                     DDRD            equ	3989	;# 
   411   000F96                     TRISE           equ	3990	;# 
   412   000F96                     DDRE            equ	3990	;# 
   413   000F9B                     OSCTUNE         equ	3995	;# 
   414   000F9D                     PIE1            equ	3997	;# 
   415   000F9E                     PIR1            equ	3998	;# 
   416   000F9F                     IPR1            equ	3999	;# 
   417   000FA0                     PIE2            equ	4000	;# 
   418   000FA1                     PIR2            equ	4001	;# 
   419   000FA2                     IPR2            equ	4002	;# 
   420   000FA6                     EECON1          equ	4006	;# 
   421   000FA7                     EECON2          equ	4007	;# 
   422   000FA8                     EEDATA          equ	4008	;# 
   423   000FA9                     EEADR           equ	4009	;# 
   424   000FAB                     RCSTA           equ	4011	;# 
   425   000FAB                     RCSTA1          equ	4011	;# 
   426   000FAC                     TXSTA           equ	4012	;# 
   427   000FAC                     TXSTA1          equ	4012	;# 
   428   000FAD                     TXREG           equ	4013	;# 
   429   000FAD                     TXREG1          equ	4013	;# 
   430   000FAE                     RCREG           equ	4014	;# 
   431   000FAE                     RCREG1          equ	4014	;# 
   432   000FAF                     SPBRG           equ	4015	;# 
   433   000FAF                     SPBRG1          equ	4015	;# 
   434   000FB0                     SPBRGH          equ	4016	;# 
   435   000FB1                     T3CON           equ	4017	;# 
   436   000FB2                     TMR3            equ	4018	;# 
   437   000FB2                     TMR3L           equ	4018	;# 
   438   000FB3                     TMR3H           equ	4019	;# 
   439   000FB4                     CMCON           equ	4020	;# 
   440   000FB5                     CVRCON          equ	4021	;# 
   441   000FB6                     ECCP1AS         equ	4022	;# 
   442   000FB7                     ECCP1DEL        equ	4023	;# 
   443   000FB7                     PWM1CON         equ	4023	;# 
   444   000FB8                     BAUDCON         equ	4024	;# 
   445   000FB8                     BAUDCTL         equ	4024	;# 
   446   000FBA                     CCP2CON         equ	4026	;# 
   447   000FBB                     CCPR2           equ	4027	;# 
   448   000FBB                     CCPR2L          equ	4027	;# 
   449   000FBC                     CCPR2H          equ	4028	;# 
   450   000FBD                     CCP1CON         equ	4029	;# 
   451   000FBD                     ECCP1CON        equ	4029	;# 
   452   000FBE                     CCPR1           equ	4030	;# 
   453   000FBE                     CCPR1L          equ	4030	;# 
   454   000FBF                     CCPR1H          equ	4031	;# 
   455   000FC0                     ADCON2          equ	4032	;# 
   456   000FC1                     ADCON1          equ	4033	;# 
   457   000FC2                     ADCON0          equ	4034	;# 
   458   000FC3                     ADRES           equ	4035	;# 
   459   000FC3                     ADRESL          equ	4035	;# 
   460   000FC4                     ADRESH          equ	4036	;# 
   461   000FC5                     SSPCON2         equ	4037	;# 
   462   000FC6                     SSPCON1         equ	4038	;# 
   463   000FC7                     SSPSTAT         equ	4039	;# 
   464   000FC8                     SSPADD          equ	4040	;# 
   465   000FC9                     SSPBUF          equ	4041	;# 
   466   000FCA                     T2CON           equ	4042	;# 
   467   000FCB                     PR2             equ	4043	;# 
   468   000FCB                     MEMCON          equ	4043	;# 
   469   000FCC                     TMR2            equ	4044	;# 
   470   000FCD                     T1CON           equ	4045	;# 
   471   000FCE                     TMR1            equ	4046	;# 
   472   000FCE                     TMR1L           equ	4046	;# 
   473   000FCF                     TMR1H           equ	4047	;# 
   474   000FD0                     RCON            equ	4048	;# 
   475   000FD1                     WDTCON          equ	4049	;# 
   476   000FD2                     HLVDCON         equ	4050	;# 
   477   000FD2                     LVDCON          equ	4050	;# 
   478   000FD3                     OSCCON          equ	4051	;# 
   479   000FD5                     T0CON           equ	4053	;# 
   480   000FD6                     TMR0            equ	4054	;# 
   481   000FD6                     TMR0L           equ	4054	;# 
   482   000FD7                     TMR0H           equ	4055	;# 
   483   000FD8                     STATUS          equ	4056	;# 
   484   000FD9                     FSR2            equ	4057	;# 
   485   000FD9                     FSR2L           equ	4057	;# 
   486   000FDA                     FSR2H           equ	4058	;# 
   487   000FDB                     PLUSW2          equ	4059	;# 
   488   000FDC                     PREINC2         equ	4060	;# 
   489   000FDD                     POSTDEC2        equ	4061	;# 
   490   000FDE                     POSTINC2        equ	4062	;# 
   491   000FDF                     INDF2           equ	4063	;# 
   492   000FE0                     BSR             equ	4064	;# 
   493   000FE1                     FSR1            equ	4065	;# 
   494   000FE1                     FSR1L           equ	4065	;# 
   495   000FE2                     FSR1H           equ	4066	;# 
   496   000FE3                     PLUSW1          equ	4067	;# 
   497   000FE4                     PREINC1         equ	4068	;# 
   498   000FE5                     POSTDEC1        equ	4069	;# 
   499   000FE6                     POSTINC1        equ	4070	;# 
   500   000FE7                     INDF1           equ	4071	;# 
   501   000FE8                     WREG            equ	4072	;# 
   502   000FE9                     FSR0            equ	4073	;# 
   503   000FE9                     FSR0L           equ	4073	;# 
   504   000FEA                     FSR0H           equ	4074	;# 
   505   000FEB                     PLUSW0          equ	4075	;# 
   506   000FEC                     PREINC0         equ	4076	;# 
   507   000FED                     POSTDEC0        equ	4077	;# 
   508   000FEE                     POSTINC0        equ	4078	;# 
   509   000FEF                     INDF0           equ	4079	;# 
   510   000FF0                     INTCON3         equ	4080	;# 
   511   000FF1                     INTCON2         equ	4081	;# 
   512   000FF2                     INTCON          equ	4082	;# 
   513   000FF3                     PROD            equ	4083	;# 
   514   000FF3                     PRODL           equ	4083	;# 
   515   000FF4                     PRODH           equ	4084	;# 
   516   000FF5                     TABLAT          equ	4085	;# 
   517   000FF6                     TBLPTR          equ	4086	;# 
   518   000FF6                     TBLPTRL         equ	4086	;# 
   519   000FF7                     TBLPTRH         equ	4087	;# 
   520   000FF8                     TBLPTRU         equ	4088	;# 
   521   000FF9                     PCLAT           equ	4089	;# 
   522   000FF9                     PC              equ	4089	;# 
   523   000FF9                     PCL             equ	4089	;# 
   524   000FFA                     PCLATH          equ	4090	;# 
   525   000FFB                     PCLATU          equ	4091	;# 
   526   000FFC                     STKPTR          equ	4092	;# 
   527   000FFD                     TOS             equ	4093	;# 
   528   000FFD                     TOSL            equ	4093	;# 
   529   000FFE                     TOSH            equ	4094	;# 
   530   000FFF                     TOSU            equ	4095	;# 
   531   000F80                     PORTA           equ	3968	;# 
   532   000F81                     PORTB           equ	3969	;# 
   533   000F82                     PORTC           equ	3970	;# 
   534   000F83                     PORTD           equ	3971	;# 
   535   000F84                     PORTE           equ	3972	;# 
   536   000F89                     LATA            equ	3977	;# 
   537   000F8A                     LATB            equ	3978	;# 
   538   000F8B                     LATC            equ	3979	;# 
   539   000F8C                     LATD            equ	3980	;# 
   540   000F8D                     LATE            equ	3981	;# 
   541   000F92                     TRISA           equ	3986	;# 
   542   000F92                     DDRA            equ	3986	;# 
   543   000F93                     TRISB           equ	3987	;# 
   544   000F93                     DDRB            equ	3987	;# 
   545   000F94                     TRISC           equ	3988	;# 
   546   000F94                     DDRC            equ	3988	;# 
   547   000F95                     TRISD           equ	3989	;# 
   548   000F95                     DDRD            equ	3989	;# 
   549   000F96                     TRISE           equ	3990	;# 
   550   000F96                     DDRE            equ	3990	;# 
   551   000F9B                     OSCTUNE         equ	3995	;# 
   552   000F9D                     PIE1            equ	3997	;# 
   553   000F9E                     PIR1            equ	3998	;# 
   554   000F9F                     IPR1            equ	3999	;# 
   555   000FA0                     PIE2            equ	4000	;# 
   556   000FA1                     PIR2            equ	4001	;# 
   557   000FA2                     IPR2            equ	4002	;# 
   558   000FA6                     EECON1          equ	4006	;# 
   559   000FA7                     EECON2          equ	4007	;# 
   560   000FA8                     EEDATA          equ	4008	;# 
   561   000FA9                     EEADR           equ	4009	;# 
   562   000FAB                     RCSTA           equ	4011	;# 
   563   000FAB                     RCSTA1          equ	4011	;# 
   564   000FAC                     TXSTA           equ	4012	;# 
   565   000FAC                     TXSTA1          equ	4012	;# 
   566   000FAD                     TXREG           equ	4013	;# 
   567   000FAD                     TXREG1          equ	4013	;# 
   568   000FAE                     RCREG           equ	4014	;# 
   569   000FAE                     RCREG1          equ	4014	;# 
   570   000FAF                     SPBRG           equ	4015	;# 
   571   000FAF                     SPBRG1          equ	4015	;# 
   572   000FB0                     SPBRGH          equ	4016	;# 
   573   000FB1                     T3CON           equ	4017	;# 
   574   000FB2                     TMR3            equ	4018	;# 
   575   000FB2                     TMR3L           equ	4018	;# 
   576   000FB3                     TMR3H           equ	4019	;# 
   577   000FB4                     CMCON           equ	4020	;# 
   578   000FB5                     CVRCON          equ	4021	;# 
   579   000FB6                     ECCP1AS         equ	4022	;# 
   580   000FB7                     ECCP1DEL        equ	4023	;# 
   581   000FB7                     PWM1CON         equ	4023	;# 
   582   000FB8                     BAUDCON         equ	4024	;# 
   583   000FB8                     BAUDCTL         equ	4024	;# 
   584   000FBA                     CCP2CON         equ	4026	;# 
   585   000FBB                     CCPR2           equ	4027	;# 
   586   000FBB                     CCPR2L          equ	4027	;# 
   587   000FBC                     CCPR2H          equ	4028	;# 
   588   000FBD                     CCP1CON         equ	4029	;# 
   589   000FBD                     ECCP1CON        equ	4029	;# 
   590   000FBE                     CCPR1           equ	4030	;# 
   591   000FBE                     CCPR1L          equ	4030	;# 
   592   000FBF                     CCPR1H          equ	4031	;# 
   593   000FC0                     ADCON2          equ	4032	;# 
   594   000FC1                     ADCON1          equ	4033	;# 
   595   000FC2                     ADCON0          equ	4034	;# 
   596   000FC3                     ADRES           equ	4035	;# 
   597   000FC3                     ADRESL          equ	4035	;# 
   598   000FC4                     ADRESH          equ	4036	;# 
   599   000FC5                     SSPCON2         equ	4037	;# 
   600   000FC6                     SSPCON1         equ	4038	;# 
   601   000FC7                     SSPSTAT         equ	4039	;# 
   602   000FC8                     SSPADD          equ	4040	;# 
   603   000FC9                     SSPBUF          equ	4041	;# 
   604   000FCA                     T2CON           equ	4042	;# 
   605   000FCB                     PR2             equ	4043	;# 
   606   000FCB                     MEMCON          equ	4043	;# 
   607   000FCC                     TMR2            equ	4044	;# 
   608   000FCD                     T1CON           equ	4045	;# 
   609   000FCE                     TMR1            equ	4046	;# 
   610   000FCE                     TMR1L           equ	4046	;# 
   611   000FCF                     TMR1H           equ	4047	;# 
   612   000FD0                     RCON            equ	4048	;# 
   613   000FD1                     WDTCON          equ	4049	;# 
   614   000FD2                     HLVDCON         equ	4050	;# 
   615   000FD2                     LVDCON          equ	4050	;# 
   616   000FD3                     OSCCON          equ	4051	;# 
   617   000FD5                     T0CON           equ	4053	;# 
   618   000FD6                     TMR0            equ	4054	;# 
   619   000FD6                     TMR0L           equ	4054	;# 
   620   000FD7                     TMR0H           equ	4055	;# 
   621   000FD8                     STATUS          equ	4056	;# 
   622   000FD9                     FSR2            equ	4057	;# 
   623   000FD9                     FSR2L           equ	4057	;# 
   624   000FDA                     FSR2H           equ	4058	;# 
   625   000FDB                     PLUSW2          equ	4059	;# 
   626   000FDC                     PREINC2         equ	4060	;# 
   627   000FDD                     POSTDEC2        equ	4061	;# 
   628   000FDE                     POSTINC2        equ	4062	;# 
   629   000FDF                     INDF2           equ	4063	;# 
   630   000FE0                     BSR             equ	4064	;# 
   631   000FE1                     FSR1            equ	4065	;# 
   632   000FE1                     FSR1L           equ	4065	;# 
   633   000FE2                     FSR1H           equ	4066	;# 
   634   000FE3                     PLUSW1          equ	4067	;# 
   635   000FE4                     PREINC1         equ	4068	;# 
   636   000FE5                     POSTDEC1        equ	4069	;# 
   637   000FE6                     POSTINC1        equ	4070	;# 
   638   000FE7                     INDF1           equ	4071	;# 
   639   000FE8                     WREG            equ	4072	;# 
   640   000FE9                     FSR0            equ	4073	;# 
   641   000FE9                     FSR0L           equ	4073	;# 
   642   000FEA                     FSR0H           equ	4074	;# 
   643   000FEB                     PLUSW0          equ	4075	;# 
   644   000FEC                     PREINC0         equ	4076	;# 
   645   000FED                     POSTDEC0        equ	4077	;# 
   646   000FEE                     POSTINC0        equ	4078	;# 
   647   000FEF                     INDF0           equ	4079	;# 
   648   000FF0                     INTCON3         equ	4080	;# 
   649   000FF1                     INTCON2         equ	4081	;# 
   650   000FF2                     INTCON          equ	4082	;# 
   651   000FF3                     PROD            equ	4083	;# 
   652   000FF3                     PRODL           equ	4083	;# 
   653   000FF4                     PRODH           equ	4084	;# 
   654   000FF5                     TABLAT          equ	4085	;# 
   655   000FF6                     TBLPTR          equ	4086	;# 
   656   000FF6                     TBLPTRL         equ	4086	;# 
   657   000FF7                     TBLPTRH         equ	4087	;# 
   658   000FF8                     TBLPTRU         equ	4088	;# 
   659   000FF9                     PCLAT           equ	4089	;# 
   660   000FF9                     PC              equ	4089	;# 
   661   000FF9                     PCL             equ	4089	;# 
   662   000FFA                     PCLATH          equ	4090	;# 
   663   000FFB                     PCLATU          equ	4091	;# 
   664   000FFC                     STKPTR          equ	4092	;# 
   665   000FFD                     TOS             equ	4093	;# 
   666   000FFD                     TOSL            equ	4093	;# 
   667   000FFE                     TOSH            equ	4094	;# 
   668   000FFF                     TOSU            equ	4095	;# 
   669   000F80                     PORTA           equ	3968	;# 
   670   000F81                     PORTB           equ	3969	;# 
   671   000F82                     PORTC           equ	3970	;# 
   672   000F83                     PORTD           equ	3971	;# 
   673   000F84                     PORTE           equ	3972	;# 
   674   000F89                     LATA            equ	3977	;# 
   675   000F8A                     LATB            equ	3978	;# 
   676   000F8B                     LATC            equ	3979	;# 
   677   000F8C                     LATD            equ	3980	;# 
   678   000F8D                     LATE            equ	3981	;# 
   679   000F92                     TRISA           equ	3986	;# 
   680   000F92                     DDRA            equ	3986	;# 
   681   000F93                     TRISB           equ	3987	;# 
   682   000F93                     DDRB            equ	3987	;# 
   683   000F94                     TRISC           equ	3988	;# 
   684   000F94                     DDRC            equ	3988	;# 
   685   000F95                     TRISD           equ	3989	;# 
   686   000F95                     DDRD            equ	3989	;# 
   687   000F96                     TRISE           equ	3990	;# 
   688   000F96                     DDRE            equ	3990	;# 
   689   000F9B                     OSCTUNE         equ	3995	;# 
   690   000F9D                     PIE1            equ	3997	;# 
   691   000F9E                     PIR1            equ	3998	;# 
   692   000F9F                     IPR1            equ	3999	;# 
   693   000FA0                     PIE2            equ	4000	;# 
   694   000FA1                     PIR2            equ	4001	;# 
   695   000FA2                     IPR2            equ	4002	;# 
   696   000FA6                     EECON1          equ	4006	;# 
   697   000FA7                     EECON2          equ	4007	;# 
   698   000FA8                     EEDATA          equ	4008	;# 
   699   000FA9                     EEADR           equ	4009	;# 
   700   000FAB                     RCSTA           equ	4011	;# 
   701   000FAB                     RCSTA1          equ	4011	;# 
   702   000FAC                     TXSTA           equ	4012	;# 
   703   000FAC                     TXSTA1          equ	4012	;# 
   704   000FAD                     TXREG           equ	4013	;# 
   705   000FAD                     TXREG1          equ	4013	;# 
   706   000FAE                     RCREG           equ	4014	;# 
   707   000FAE                     RCREG1          equ	4014	;# 
   708   000FAF                     SPBRG           equ	4015	;# 
   709   000FAF                     SPBRG1          equ	4015	;# 
   710   000FB0                     SPBRGH          equ	4016	;# 
   711   000FB1                     T3CON           equ	4017	;# 
   712   000FB2                     TMR3            equ	4018	;# 
   713   000FB2                     TMR3L           equ	4018	;# 
   714   000FB3                     TMR3H           equ	4019	;# 
   715   000FB4                     CMCON           equ	4020	;# 
   716   000FB5                     CVRCON          equ	4021	;# 
   717   000FB6                     ECCP1AS         equ	4022	;# 
   718   000FB7                     ECCP1DEL        equ	4023	;# 
   719   000FB7                     PWM1CON         equ	4023	;# 
   720   000FB8                     BAUDCON         equ	4024	;# 
   721   000FB8                     BAUDCTL         equ	4024	;# 
   722   000FBA                     CCP2CON         equ	4026	;# 
   723   000FBB                     CCPR2           equ	4027	;# 
   724   000FBB                     CCPR2L          equ	4027	;# 
   725   000FBC                     CCPR2H          equ	4028	;# 
   726   000FBD                     CCP1CON         equ	4029	;# 
   727   000FBD                     ECCP1CON        equ	4029	;# 
   728   000FBE                     CCPR1           equ	4030	;# 
   729   000FBE                     CCPR1L          equ	4030	;# 
   730   000FBF                     CCPR1H          equ	4031	;# 
   731   000FC0                     ADCON2          equ	4032	;# 
   732   000FC1                     ADCON1          equ	4033	;# 
   733   000FC2                     ADCON0          equ	4034	;# 
   734   000FC3                     ADRES           equ	4035	;# 
   735   000FC3                     ADRESL          equ	4035	;# 
   736   000FC4                     ADRESH          equ	4036	;# 
   737   000FC5                     SSPCON2         equ	4037	;# 
   738   000FC6                     SSPCON1         equ	4038	;# 
   739   000FC7                     SSPSTAT         equ	4039	;# 
   740   000FC8                     SSPADD          equ	4040	;# 
   741   000FC9                     SSPBUF          equ	4041	;# 
   742   000FCA                     T2CON           equ	4042	;# 
   743   000FCB                     PR2             equ	4043	;# 
   744   000FCB                     MEMCON          equ	4043	;# 
   745   000FCC                     TMR2            equ	4044	;# 
   746   000FCD                     T1CON           equ	4045	;# 
   747   000FCE                     TMR1            equ	4046	;# 
   748   000FCE                     TMR1L           equ	4046	;# 
   749   000FCF                     TMR1H           equ	4047	;# 
   750   000FD0                     RCON            equ	4048	;# 
   751   000FD1                     WDTCON          equ	4049	;# 
   752   000FD2                     HLVDCON         equ	4050	;# 
   753   000FD2                     LVDCON          equ	4050	;# 
   754   000FD3                     OSCCON          equ	4051	;# 
   755   000FD5                     T0CON           equ	4053	;# 
   756   000FD6                     TMR0            equ	4054	;# 
   757   000FD6                     TMR0L           equ	4054	;# 
   758   000FD7                     TMR0H           equ	4055	;# 
   759   000FD8                     STATUS          equ	4056	;# 
   760   000FD9                     FSR2            equ	4057	;# 
   761   000FD9                     FSR2L           equ	4057	;# 
   762   000FDA                     FSR2H           equ	4058	;# 
   763   000FDB                     PLUSW2          equ	4059	;# 
   764   000FDC                     PREINC2         equ	4060	;# 
   765   000FDD                     POSTDEC2        equ	4061	;# 
   766   000FDE                     POSTINC2        equ	4062	;# 
   767   000FDF                     INDF2           equ	4063	;# 
   768   000FE0                     BSR             equ	4064	;# 
   769   000FE1                     FSR1            equ	4065	;# 
   770   000FE1                     FSR1L           equ	4065	;# 
   771   000FE2                     FSR1H           equ	4066	;# 
   772   000FE3                     PLUSW1          equ	4067	;# 
   773   000FE4                     PREINC1         equ	4068	;# 
   774   000FE5                     POSTDEC1        equ	4069	;# 
   775   000FE6                     POSTINC1        equ	4070	;# 
   776   000FE7                     INDF1           equ	4071	;# 
   777   000FE8                     WREG            equ	4072	;# 
   778   000FE9                     FSR0            equ	4073	;# 
   779   000FE9                     FSR0L           equ	4073	;# 
   780   000FEA                     FSR0H           equ	4074	;# 
   781   000FEB                     PLUSW0          equ	4075	;# 
   782   000FEC                     PREINC0         equ	4076	;# 
   783   000FED                     POSTDEC0        equ	4077	;# 
   784   000FEE                     POSTINC0        equ	4078	;# 
   785   000FEF                     INDF0           equ	4079	;# 
   786   000FF0                     INTCON3         equ	4080	;# 
   787   000FF1                     INTCON2         equ	4081	;# 
   788   000FF2                     INTCON          equ	4082	;# 
   789   000FF3                     PROD            equ	4083	;# 
   790   000FF3                     PRODL           equ	4083	;# 
   791   000FF4                     PRODH           equ	4084	;# 
   792   000FF5                     TABLAT          equ	4085	;# 
   793   000FF6                     TBLPTR          equ	4086	;# 
   794   000FF6                     TBLPTRL         equ	4086	;# 
   795   000FF7                     TBLPTRH         equ	4087	;# 
   796   000FF8                     TBLPTRU         equ	4088	;# 
   797   000FF9                     PCLAT           equ	4089	;# 
   798   000FF9                     PC              equ	4089	;# 
   799   000FF9                     PCL             equ	4089	;# 
   800   000FFA                     PCLATH          equ	4090	;# 
   801   000FFB                     PCLATU          equ	4091	;# 
   802   000FFC                     STKPTR          equ	4092	;# 
   803   000FFD                     TOS             equ	4093	;# 
   804   000FFD                     TOSL            equ	4093	;# 
   805   000FFE                     TOSH            equ	4094	;# 
   806   000FFF                     TOSU            equ	4095	;# 
   807   000F80                     PORTA           equ	3968	;# 
   808   000F81                     PORTB           equ	3969	;# 
   809   000F82                     PORTC           equ	3970	;# 
   810   000F83                     PORTD           equ	3971	;# 
   811   000F84                     PORTE           equ	3972	;# 
   812   000F89                     LATA            equ	3977	;# 
   813   000F8A                     LATB            equ	3978	;# 
   814   000F8B                     LATC            equ	3979	;# 
   815   000F8C                     LATD            equ	3980	;# 
   816   000F8D                     LATE            equ	3981	;# 
   817   000F92                     TRISA           equ	3986	;# 
   818   000F92                     DDRA            equ	3986	;# 
   819   000F93                     TRISB           equ	3987	;# 
   820   000F93                     DDRB            equ	3987	;# 
   821   000F94                     TRISC           equ	3988	;# 
   822   000F94                     DDRC            equ	3988	;# 
   823   000F95                     TRISD           equ	3989	;# 
   824   000F95                     DDRD            equ	3989	;# 
   825   000F96                     TRISE           equ	3990	;# 
   826   000F96                     DDRE            equ	3990	;# 
   827   000F9B                     OSCTUNE         equ	3995	;# 
   828   000F9D                     PIE1            equ	3997	;# 
   829   000F9E                     PIR1            equ	3998	;# 
   830   000F9F                     IPR1            equ	3999	;# 
   831   000FA0                     PIE2            equ	4000	;# 
   832   000FA1                     PIR2            equ	4001	;# 
   833   000FA2                     IPR2            equ	4002	;# 
   834   000FA6                     EECON1          equ	4006	;# 
   835   000FA7                     EECON2          equ	4007	;# 
   836   000FA8                     EEDATA          equ	4008	;# 
   837   000FA9                     EEADR           equ	4009	;# 
   838   000FAB                     RCSTA           equ	4011	;# 
   839   000FAB                     RCSTA1          equ	4011	;# 
   840   000FAC                     TXSTA           equ	4012	;# 
   841   000FAC                     TXSTA1          equ	4012	;# 
   842   000FAD                     TXREG           equ	4013	;# 
   843   000FAD                     TXREG1          equ	4013	;# 
   844   000FAE                     RCREG           equ	4014	;# 
   845   000FAE                     RCREG1          equ	4014	;# 
   846   000FAF                     SPBRG           equ	4015	;# 
   847   000FAF                     SPBRG1          equ	4015	;# 
   848   000FB0                     SPBRGH          equ	4016	;# 
   849   000FB1                     T3CON           equ	4017	;# 
   850   000FB2                     TMR3            equ	4018	;# 
   851   000FB2                     TMR3L           equ	4018	;# 
   852   000FB3                     TMR3H           equ	4019	;# 
   853   000FB4                     CMCON           equ	4020	;# 
   854   000FB5                     CVRCON          equ	4021	;# 
   855   000FB6                     ECCP1AS         equ	4022	;# 
   856   000FB7                     ECCP1DEL        equ	4023	;# 
   857   000FB7                     PWM1CON         equ	4023	;# 
   858   000FB8                     BAUDCON         equ	4024	;# 
   859   000FB8                     BAUDCTL         equ	4024	;# 
   860   000FBA                     CCP2CON         equ	4026	;# 
   861   000FBB                     CCPR2           equ	4027	;# 
   862   000FBB                     CCPR2L          equ	4027	;# 
   863   000FBC                     CCPR2H          equ	4028	;# 
   864   000FBD                     CCP1CON         equ	4029	;# 
   865   000FBD                     ECCP1CON        equ	4029	;# 
   866   000FBE                     CCPR1           equ	4030	;# 
   867   000FBE                     CCPR1L          equ	4030	;# 
   868   000FBF                     CCPR1H          equ	4031	;# 
   869   000FC0                     ADCON2          equ	4032	;# 
   870   000FC1                     ADCON1          equ	4033	;# 
   871   000FC2                     ADCON0          equ	4034	;# 
   872   000FC3                     ADRES           equ	4035	;# 
   873   000FC3                     ADRESL          equ	4035	;# 
   874   000FC4                     ADRESH          equ	4036	;# 
   875   000FC5                     SSPCON2         equ	4037	;# 
   876   000FC6                     SSPCON1         equ	4038	;# 
   877   000FC7                     SSPSTAT         equ	4039	;# 
   878   000FC8                     SSPADD          equ	4040	;# 
   879   000FC9                     SSPBUF          equ	4041	;# 
   880   000FCA                     T2CON           equ	4042	;# 
   881   000FCB                     PR2             equ	4043	;# 
   882   000FCB                     MEMCON          equ	4043	;# 
   883   000FCC                     TMR2            equ	4044	;# 
   884   000FCD                     T1CON           equ	4045	;# 
   885   000FCE                     TMR1            equ	4046	;# 
   886   000FCE                     TMR1L           equ	4046	;# 
   887   000FCF                     TMR1H           equ	4047	;# 
   888   000FD0                     RCON            equ	4048	;# 
   889   000FD1                     WDTCON          equ	4049	;# 
   890   000FD2                     HLVDCON         equ	4050	;# 
   891   000FD2                     LVDCON          equ	4050	;# 
   892   000FD3                     OSCCON          equ	4051	;# 
   893   000FD5                     T0CON           equ	4053	;# 
   894   000FD6                     TMR0            equ	4054	;# 
   895   000FD6                     TMR0L           equ	4054	;# 
   896   000FD7                     TMR0H           equ	4055	;# 
   897   000FD8                     STATUS          equ	4056	;# 
   898   000FD9                     FSR2            equ	4057	;# 
   899   000FD9                     FSR2L           equ	4057	;# 
   900   000FDA                     FSR2H           equ	4058	;# 
   901   000FDB                     PLUSW2          equ	4059	;# 
   902   000FDC                     PREINC2         equ	4060	;# 
   903   000FDD                     POSTDEC2        equ	4061	;# 
   904   000FDE                     POSTINC2        equ	4062	;# 
   905   000FDF                     INDF2           equ	4063	;# 
   906   000FE0                     BSR             equ	4064	;# 
   907   000FE1                     FSR1            equ	4065	;# 
   908   000FE1                     FSR1L           equ	4065	;# 
   909   000FE2                     FSR1H           equ	4066	;# 
   910   000FE3                     PLUSW1          equ	4067	;# 
   911   000FE4                     PREINC1         equ	4068	;# 
   912   000FE5                     POSTDEC1        equ	4069	;# 
   913   000FE6                     POSTINC1        equ	4070	;# 
   914   000FE7                     INDF1           equ	4071	;# 
   915   000FE8                     WREG            equ	4072	;# 
   916   000FE9                     FSR0            equ	4073	;# 
   917   000FE9                     FSR0L           equ	4073	;# 
   918   000FEA                     FSR0H           equ	4074	;# 
   919   000FEB                     PLUSW0          equ	4075	;# 
   920   000FEC                     PREINC0         equ	4076	;# 
   921   000FED                     POSTDEC0        equ	4077	;# 
   922   000FEE                     POSTINC0        equ	4078	;# 
   923   000FEF                     INDF0           equ	4079	;# 
   924   000FF0                     INTCON3         equ	4080	;# 
   925   000FF1                     INTCON2         equ	4081	;# 
   926   000FF2                     INTCON          equ	4082	;# 
   927   000FF3                     PROD            equ	4083	;# 
   928   000FF3                     PRODL           equ	4083	;# 
   929   000FF4                     PRODH           equ	4084	;# 
   930   000FF5                     TABLAT          equ	4085	;# 
   931   000FF6                     TBLPTR          equ	4086	;# 
   932   000FF6                     TBLPTRL         equ	4086	;# 
   933   000FF7                     TBLPTRH         equ	4087	;# 
   934   000FF8                     TBLPTRU         equ	4088	;# 
   935   000FF9                     PCLAT           equ	4089	;# 
   936   000FF9                     PC              equ	4089	;# 
   937   000FF9                     PCL             equ	4089	;# 
   938   000FFA                     PCLATH          equ	4090	;# 
   939   000FFB                     PCLATU          equ	4091	;# 
   940   000FFC                     STKPTR          equ	4092	;# 
   941   000FFD                     TOS             equ	4093	;# 
   942   000FFD                     TOSL            equ	4093	;# 
   943   000FFE                     TOSH            equ	4094	;# 
   944   000FFF                     TOSU            equ	4095	;# 
   945   000F80                     PORTA           equ	3968	;# 
   946   000F81                     PORTB           equ	3969	;# 
   947   000F82                     PORTC           equ	3970	;# 
   948   000F83                     PORTD           equ	3971	;# 
   949   000F84                     PORTE           equ	3972	;# 
   950   000F89                     LATA            equ	3977	;# 
   951   000F8A                     LATB            equ	3978	;# 
   952   000F8B                     LATC            equ	3979	;# 
   953   000F8C                     LATD            equ	3980	;# 
   954   000F8D                     LATE            equ	3981	;# 
   955   000F92                     TRISA           equ	3986	;# 
   956   000F92                     DDRA            equ	3986	;# 
   957   000F93                     TRISB           equ	3987	;# 
   958   000F93                     DDRB            equ	3987	;# 
   959   000F94                     TRISC           equ	3988	;# 
   960   000F94                     DDRC            equ	3988	;# 
   961   000F95                     TRISD           equ	3989	;# 
   962   000F95                     DDRD            equ	3989	;# 
   963   000F96                     TRISE           equ	3990	;# 
   964   000F96                     DDRE            equ	3990	;# 
   965   000F9B                     OSCTUNE         equ	3995	;# 
   966   000F9D                     PIE1            equ	3997	;# 
   967   000F9E                     PIR1            equ	3998	;# 
   968   000F9F                     IPR1            equ	3999	;# 
   969   000FA0                     PIE2            equ	4000	;# 
   970   000FA1                     PIR2            equ	4001	;# 
   971   000FA2                     IPR2            equ	4002	;# 
   972   000FA6                     EECON1          equ	4006	;# 
   973   000FA7                     EECON2          equ	4007	;# 
   974   000FA8                     EEDATA          equ	4008	;# 
   975   000FA9                     EEADR           equ	4009	;# 
   976   000FAB                     RCSTA           equ	4011	;# 
   977   000FAB                     RCSTA1          equ	4011	;# 
   978   000FAC                     TXSTA           equ	4012	;# 
   979   000FAC                     TXSTA1          equ	4012	;# 
   980   000FAD                     TXREG           equ	4013	;# 
   981   000FAD                     TXREG1          equ	4013	;# 
   982   000FAE                     RCREG           equ	4014	;# 
   983   000FAE                     RCREG1          equ	4014	;# 
   984   000FAF                     SPBRG           equ	4015	;# 
   985   000FAF                     SPBRG1          equ	4015	;# 
   986   000FB0                     SPBRGH          equ	4016	;# 
   987   000FB1                     T3CON           equ	4017	;# 
   988   000FB2                     TMR3            equ	4018	;# 
   989   000FB2                     TMR3L           equ	4018	;# 
   990   000FB3                     TMR3H           equ	4019	;# 
   991   000FB4                     CMCON           equ	4020	;# 
   992   000FB5                     CVRCON          equ	4021	;# 
   993   000FB6                     ECCP1AS         equ	4022	;# 
   994   000FB7                     ECCP1DEL        equ	4023	;# 
   995   000FB7                     PWM1CON         equ	4023	;# 
   996   000FB8                     BAUDCON         equ	4024	;# 
   997   000FB8                     BAUDCTL         equ	4024	;# 
   998   000FBA                     CCP2CON         equ	4026	;# 
   999   000FBB                     CCPR2           equ	4027	;# 
  1000   000FBB                     CCPR2L          equ	4027	;# 
  1001   000FBC                     CCPR2H          equ	4028	;# 
  1002   000FBD                     CCP1CON         equ	4029	;# 
  1003   000FBD                     ECCP1CON        equ	4029	;# 
  1004   000FBE                     CCPR1           equ	4030	;# 
  1005   000FBE                     CCPR1L          equ	4030	;# 
  1006   000FBF                     CCPR1H          equ	4031	;# 
  1007   000FC0                     ADCON2          equ	4032	;# 
  1008   000FC1                     ADCON1          equ	4033	;# 
  1009   000FC2                     ADCON0          equ	4034	;# 
  1010   000FC3                     ADRES           equ	4035	;# 
  1011   000FC3                     ADRESL          equ	4035	;# 
  1012   000FC4                     ADRESH          equ	4036	;# 
  1013   000FC5                     SSPCON2         equ	4037	;# 
  1014   000FC6                     SSPCON1         equ	4038	;# 
  1015   000FC7                     SSPSTAT         equ	4039	;# 
  1016   000FC8                     SSPADD          equ	4040	;# 
  1017   000FC9                     SSPBUF          equ	4041	;# 
  1018   000FCA                     T2CON           equ	4042	;# 
  1019   000FCB                     PR2             equ	4043	;# 
  1020   000FCB                     MEMCON          equ	4043	;# 
  1021   000FCC                     TMR2            equ	4044	;# 
  1022   000FCD                     T1CON           equ	4045	;# 
  1023   000FCE                     TMR1            equ	4046	;# 
  1024   000FCE                     TMR1L           equ	4046	;# 
  1025   000FCF                     TMR1H           equ	4047	;# 
  1026   000FD0                     RCON            equ	4048	;# 
  1027   000FD1                     WDTCON          equ	4049	;# 
  1028   000FD2                     HLVDCON         equ	4050	;# 
  1029   000FD2                     LVDCON          equ	4050	;# 
  1030   000FD3                     OSCCON          equ	4051	;# 
  1031   000FD5                     T0CON           equ	4053	;# 
  1032   000FD6                     TMR0            equ	4054	;# 
  1033   000FD6                     TMR0L           equ	4054	;# 
  1034   000FD7                     TMR0H           equ	4055	;# 
  1035   000FD8                     STATUS          equ	4056	;# 
  1036   000FD9                     FSR2            equ	4057	;# 
  1037   000FD9                     FSR2L           equ	4057	;# 
  1038   000FDA                     FSR2H           equ	4058	;# 
  1039   000FDB                     PLUSW2          equ	4059	;# 
  1040   000FDC                     PREINC2         equ	4060	;# 
  1041   000FDD                     POSTDEC2        equ	4061	;# 
  1042   000FDE                     POSTINC2        equ	4062	;# 
  1043   000FDF                     INDF2           equ	4063	;# 
  1044   000FE0                     BSR             equ	4064	;# 
  1045   000FE1                     FSR1            equ	4065	;# 
  1046   000FE1                     FSR1L           equ	4065	;# 
  1047   000FE2                     FSR1H           equ	4066	;# 
  1048   000FE3                     PLUSW1          equ	4067	;# 
  1049   000FE4                     PREINC1         equ	4068	;# 
  1050   000FE5                     POSTDEC1        equ	4069	;# 
  1051   000FE6                     POSTINC1        equ	4070	;# 
  1052   000FE7                     INDF1           equ	4071	;# 
  1053   000FE8                     WREG            equ	4072	;# 
  1054   000FE9                     FSR0            equ	4073	;# 
  1055   000FE9                     FSR0L           equ	4073	;# 
  1056   000FEA                     FSR0H           equ	4074	;# 
  1057   000FEB                     PLUSW0          equ	4075	;# 
  1058   000FEC                     PREINC0         equ	4076	;# 
  1059   000FED                     POSTDEC0        equ	4077	;# 
  1060   000FEE                     POSTINC0        equ	4078	;# 
  1061   000FEF                     INDF0           equ	4079	;# 
  1062   000FF0                     INTCON3         equ	4080	;# 
  1063   000FF1                     INTCON2         equ	4081	;# 
  1064   000FF2                     INTCON          equ	4082	;# 
  1065   000FF3                     PROD            equ	4083	;# 
  1066   000FF3                     PRODL           equ	4083	;# 
  1067   000FF4                     PRODH           equ	4084	;# 
  1068   000FF5                     TABLAT          equ	4085	;# 
  1069   000FF6                     TBLPTR          equ	4086	;# 
  1070   000FF6                     TBLPTRL         equ	4086	;# 
  1071   000FF7                     TBLPTRH         equ	4087	;# 
  1072   000FF8                     TBLPTRU         equ	4088	;# 
  1073   000FF9                     PCLAT           equ	4089	;# 
  1074   000FF9                     PC              equ	4089	;# 
  1075   000FF9                     PCL             equ	4089	;# 
  1076   000FFA                     PCLATH          equ	4090	;# 
  1077   000FFB                     PCLATU          equ	4091	;# 
  1078   000FFC                     STKPTR          equ	4092	;# 
  1079   000FFD                     TOS             equ	4093	;# 
  1080   000FFD                     TOSL            equ	4093	;# 
  1081   000FFE                     TOSH            equ	4094	;# 
  1082   000FFF                     TOSU            equ	4095	;# 
  1083   000F80                     PORTA           equ	3968	;# 
  1084   000F81                     PORTB           equ	3969	;# 
  1085   000F82                     PORTC           equ	3970	;# 
  1086   000F83                     PORTD           equ	3971	;# 
  1087   000F84                     PORTE           equ	3972	;# 
  1088   000F89                     LATA            equ	3977	;# 
  1089   000F8A                     LATB            equ	3978	;# 
  1090   000F8B                     LATC            equ	3979	;# 
  1091   000F8C                     LATD            equ	3980	;# 
  1092   000F8D                     LATE            equ	3981	;# 
  1093   000F92                     TRISA           equ	3986	;# 
  1094   000F92                     DDRA            equ	3986	;# 
  1095   000F93                     TRISB           equ	3987	;# 
  1096   000F93                     DDRB            equ	3987	;# 
  1097   000F94                     TRISC           equ	3988	;# 
  1098   000F94                     DDRC            equ	3988	;# 
  1099   000F95                     TRISD           equ	3989	;# 
  1100   000F95                     DDRD            equ	3989	;# 
  1101   000F96                     TRISE           equ	3990	;# 
  1102   000F96                     DDRE            equ	3990	;# 
  1103   000F9B                     OSCTUNE         equ	3995	;# 
  1104   000F9D                     PIE1            equ	3997	;# 
  1105   000F9E                     PIR1            equ	3998	;# 
  1106   000F9F                     IPR1            equ	3999	;# 
  1107   000FA0                     PIE2            equ	4000	;# 
  1108   000FA1                     PIR2            equ	4001	;# 
  1109   000FA2                     IPR2            equ	4002	;# 
  1110   000FA6                     EECON1          equ	4006	;# 
  1111   000FA7                     EECON2          equ	4007	;# 
  1112   000FA8                     EEDATA          equ	4008	;# 
  1113   000FA9                     EEADR           equ	4009	;# 
  1114   000FAB                     RCSTA           equ	4011	;# 
  1115   000FAB                     RCSTA1          equ	4011	;# 
  1116   000FAC                     TXSTA           equ	4012	;# 
  1117   000FAC                     TXSTA1          equ	4012	;# 
  1118   000FAD                     TXREG           equ	4013	;# 
  1119   000FAD                     TXREG1          equ	4013	;# 
  1120   000FAE                     RCREG           equ	4014	;# 
  1121   000FAE                     RCREG1          equ	4014	;# 
  1122   000FAF                     SPBRG           equ	4015	;# 
  1123   000FAF                     SPBRG1          equ	4015	;# 
  1124   000FB0                     SPBRGH          equ	4016	;# 
  1125   000FB1                     T3CON           equ	4017	;# 
  1126   000FB2                     TMR3            equ	4018	;# 
  1127   000FB2                     TMR3L           equ	4018	;# 
  1128   000FB3                     TMR3H           equ	4019	;# 
  1129   000FB4                     CMCON           equ	4020	;# 
  1130   000FB5                     CVRCON          equ	4021	;# 
  1131   000FB6                     ECCP1AS         equ	4022	;# 
  1132   000FB7                     ECCP1DEL        equ	4023	;# 
  1133   000FB7                     PWM1CON         equ	4023	;# 
  1134   000FB8                     BAUDCON         equ	4024	;# 
  1135   000FB8                     BAUDCTL         equ	4024	;# 
  1136   000FBA                     CCP2CON         equ	4026	;# 
  1137   000FBB                     CCPR2           equ	4027	;# 
  1138   000FBB                     CCPR2L          equ	4027	;# 
  1139   000FBC                     CCPR2H          equ	4028	;# 
  1140   000FBD                     CCP1CON         equ	4029	;# 
  1141   000FBD                     ECCP1CON        equ	4029	;# 
  1142   000FBE                     CCPR1           equ	4030	;# 
  1143   000FBE                     CCPR1L          equ	4030	;# 
  1144   000FBF                     CCPR1H          equ	4031	;# 
  1145   000FC0                     ADCON2          equ	4032	;# 
  1146   000FC1                     ADCON1          equ	4033	;# 
  1147   000FC2                     ADCON0          equ	4034	;# 
  1148   000FC3                     ADRES           equ	4035	;# 
  1149   000FC3                     ADRESL          equ	4035	;# 
  1150   000FC4                     ADRESH          equ	4036	;# 
  1151   000FC5                     SSPCON2         equ	4037	;# 
  1152   000FC6                     SSPCON1         equ	4038	;# 
  1153   000FC7                     SSPSTAT         equ	4039	;# 
  1154   000FC8                     SSPADD          equ	4040	;# 
  1155   000FC9                     SSPBUF          equ	4041	;# 
  1156   000FCA                     T2CON           equ	4042	;# 
  1157   000FCB                     PR2             equ	4043	;# 
  1158   000FCB                     MEMCON          equ	4043	;# 
  1159   000FCC                     TMR2            equ	4044	;# 
  1160   000FCD                     T1CON           equ	4045	;# 
  1161   000FCE                     TMR1            equ	4046	;# 
  1162   000FCE                     TMR1L           equ	4046	;# 
  1163   000FCF                     TMR1H           equ	4047	;# 
  1164   000FD0                     RCON            equ	4048	;# 
  1165   000FD1                     WDTCON          equ	4049	;# 
  1166   000FD2                     HLVDCON         equ	4050	;# 
  1167   000FD2                     LVDCON          equ	4050	;# 
  1168   000FD3                     OSCCON          equ	4051	;# 
  1169   000FD5                     T0CON           equ	4053	;# 
  1170   000FD6                     TMR0            equ	4054	;# 
  1171   000FD6                     TMR0L           equ	4054	;# 
  1172   000FD7                     TMR0H           equ	4055	;# 
  1173   000FD8                     STATUS          equ	4056	;# 
  1174   000FD9                     FSR2            equ	4057	;# 
  1175   000FD9                     FSR2L           equ	4057	;# 
  1176   000FDA                     FSR2H           equ	4058	;# 
  1177   000FDB                     PLUSW2          equ	4059	;# 
  1178   000FDC                     PREINC2         equ	4060	;# 
  1179   000FDD                     POSTDEC2        equ	4061	;# 
  1180   000FDE                     POSTINC2        equ	4062	;# 
  1181   000FDF                     INDF2           equ	4063	;# 
  1182   000FE0                     BSR             equ	4064	;# 
  1183   000FE1                     FSR1            equ	4065	;# 
  1184   000FE1                     FSR1L           equ	4065	;# 
  1185   000FE2                     FSR1H           equ	4066	;# 
  1186   000FE3                     PLUSW1          equ	4067	;# 
  1187   000FE4                     PREINC1         equ	4068	;# 
  1188   000FE5                     POSTDEC1        equ	4069	;# 
  1189   000FE6                     POSTINC1        equ	4070	;# 
  1190   000FE7                     INDF1           equ	4071	;# 
  1191   000FE8                     WREG            equ	4072	;# 
  1192   000FE9                     FSR0            equ	4073	;# 
  1193   000FE9                     FSR0L           equ	4073	;# 
  1194   000FEA                     FSR0H           equ	4074	;# 
  1195   000FEB                     PLUSW0          equ	4075	;# 
  1196   000FEC                     PREINC0         equ	4076	;# 
  1197   000FED                     POSTDEC0        equ	4077	;# 
  1198   000FEE                     POSTINC0        equ	4078	;# 
  1199   000FEF                     INDF0           equ	4079	;# 
  1200   000FF0                     INTCON3         equ	4080	;# 
  1201   000FF1                     INTCON2         equ	4081	;# 
  1202   000FF2                     INTCON          equ	4082	;# 
  1203   000FF3                     PROD            equ	4083	;# 
  1204   000FF3                     PRODL           equ	4083	;# 
  1205   000FF4                     PRODH           equ	4084	;# 
  1206   000FF5                     TABLAT          equ	4085	;# 
  1207   000FF6                     TBLPTR          equ	4086	;# 
  1208   000FF6                     TBLPTRL         equ	4086	;# 
  1209   000FF7                     TBLPTRH         equ	4087	;# 
  1210   000FF8                     TBLPTRU         equ	4088	;# 
  1211   000FF9                     PCLAT           equ	4089	;# 
  1212   000FF9                     PC              equ	4089	;# 
  1213   000FF9                     PCL             equ	4089	;# 
  1214   000FFA                     PCLATH          equ	4090	;# 
  1215   000FFB                     PCLATU          equ	4091	;# 
  1216   000FFC                     STKPTR          equ	4092	;# 
  1217   000FFD                     TOS             equ	4093	;# 
  1218   000FFD                     TOSL            equ	4093	;# 
  1219   000FFE                     TOSH            equ	4094	;# 
  1220   000FFF                     TOSU            equ	4095	;# 
  1221                           
  1222                           	psect	idataCOMRAM
  1223   0008A0                     __pidataCOMRAM:
  1224                           	callstack 0
  1225                           
  1226                           ;initializer for _dutyCycle
  1227   0008A0  32                 	db	50
  1228   0008A1  90                 	db	144
  1229   0008A2  32                 	db	50
  1230   0008A3  FA                 	db	250
  1231                           
  1232                           ;initializer for _estado@TAD_HEARTBEAT$F793
  1233   0008A4  01                 	db	1
  1234                           
  1235                           ;initializer for _lastDirY
  1236   0008A5  FF                 	db	255
  1237                           
  1238                           ;initializer for _lastDirX
  1239   0008A6  FF                 	db	255
  1240                           
  1241                           	psect	smallconst
  1242   000200                     __psmallconst:
  1243                           	callstack 0
  1244   000200  00                 	db	0
  1245   000201  71                 	db	low _comando0
  1246   000202  57                 	db	low _comando1
  1247   000203  B3                 	db	low _comando2
  1248   000204  C1                 	db	low _comando3
  1249   000205  38                 	db	low _comando4
  1250   000206  48                 	db	low _comando5
  1251   000207  BB                 	db	low _comando6
  1252   000208  95                 	db	low _comando7
  1253   000209                     __end_of_comandos:
  1254                           	callstack 0
  1255   000209                     _frases:
  1256                           	callstack 0
  1257   000209  A0                 	db	low _frase0
  1258   00020A  89                 	db	low _frase1
  1259   00020B  7D                 	db	low _frase2
  1260   00020C  64                 	db	low _frase3
  1261   00020D  AA                 	db	low _frase4
  1262   00020E  25                 	db	low _frase5
  1263   00020F  10                 	db	low _frase6
  1264   000210                     __end_of_frases:
  1265                           	callstack 0
  1266   000210                     _frase6:
  1267                           	callstack 0
  1268   000210  53                 	db	83
  1269   000211  4C                 	db	76
  1270   000212  45                 	db	69
  1271   000213  45                 	db	69
  1272   000214  50                 	db	80
  1273   000215  5F                 	db	95
  1274   000216  55                 	db	85
  1275   000217  4E                 	db	78
  1276   000218  53                 	db	83
  1277   000219  55                 	db	85
  1278   00021A  43                 	db	67
  1279   00021B  43                 	db	67
  1280   00021C  45                 	db	69
  1281   00021D  53                 	db	83
  1282   00021E  53                 	db	83
  1283   00021F  46                 	db	70
  1284   000220  55                 	db	85
  1285   000221  4C                 	db	76
  1286   000222  0D                 	db	13
  1287   000223  0A                 	db	10
  1288   000224  00                 	db	0
  1289   000225                     __end_of_frase6:
  1290                           	callstack 0
  1291   000225                     _frase5:
  1292                           	callstack 0
  1293   000225  53                 	db	83
  1294   000226  4C                 	db	76
  1295   000227  45                 	db	69
  1296   000228  45                 	db	69
  1297   000229  50                 	db	80
  1298   00022A  5F                 	db	95
  1299   00022B  53                 	db	83
  1300   00022C  55                 	db	85
  1301   00022D  43                 	db	67
  1302   00022E  43                 	db	67
  1303   00022F  45                 	db	69
  1304   000230  53                 	db	83
  1305   000231  53                 	db	83
  1306   000232  46                 	db	70
  1307   000233  55                 	db	85
  1308   000234  4C                 	db	76
  1309   000235  0D                 	db	13
  1310   000236  0A                 	db	10
  1311   000237  00                 	db	0
  1312   000238                     __end_of_frase5:
  1313                           	callstack 0
  1314   000238                     _comando4:
  1315   000238  53                 	db	83
  1316   000239  54                 	db	84
  1317   00023A  41                 	db	65
  1318   00023B  52                 	db	82
  1319   00023C  54                 	db	84
  1320   00023D  5F                 	db	95
  1321   00023E  52                 	db	82
  1322   00023F  45                 	db	69
  1323   000240  42                 	db	66
  1324   000241  45                 	db	69
  1325   000242  4C                 	db	76
  1326   000243  4C                 	db	76
  1327   000244  49                 	db	73
  1328   000245  4F                 	db	79
  1329   000246  4E                 	db	78
  1330   000247  00                 	db	0
  1331   000248                     __end_of_comando4:
  1332                           	callstack 0
  1333   000248                     _comando5:
  1334   000248  53                 	db	83
  1335   000249  54                 	db	84
  1336   00024A  4F                 	db	79
  1337   00024B  50                 	db	80
  1338   00024C  5F                 	db	95
  1339   00024D  52                 	db	82
  1340   00024E  45                 	db	69
  1341   00024F  42                 	db	66
  1342   000250  45                 	db	69
  1343   000251  4C                 	db	76
  1344   000252  4C                 	db	76
  1345   000253  49                 	db	73
  1346   000254  4F                 	db	79
  1347   000255  4E                 	db	78
  1348   000256  00                 	db	0
  1349   000257                     __end_of_comando5:
  1350                           	callstack 0
  1351   000257                     _comando1:
  1352   000257  47                 	db	71
  1353   000258  45                 	db	69
  1354   000259  54                 	db	84
  1355   00025A  5F                 	db	95
  1356   00025B  50                 	db	80
  1357   00025C  52                 	db	82
  1358   00025D  4F                 	db	79
  1359   00025E  44                 	db	68
  1360   00025F  55                 	db	85
  1361   000260  43                 	db	67
  1362   000261  54                 	db	84
  1363   000262  53                 	db	83
  1364   000263  00                 	db	0
  1365   000264                     __end_of_comando1:
  1366                           	callstack 0
  1367   000264                     _frase3:
  1368                           	callstack 0
  1369   000264  4D                 	db	77
  1370   000265  4F                 	db	79
  1371   000266  56                 	db	86
  1372   000267  45                 	db	69
  1373   000268  5F                 	db	95
  1374   000269  52                 	db	82
  1375   00026A  49                 	db	73
  1376   00026B  47                 	db	71
  1377   00026C  48                 	db	72
  1378   00026D  54                 	db	84
  1379   00026E  0D                 	db	13
  1380   00026F  0A                 	db	10
  1381   000270  00                 	db	0
  1382   000271                     __end_of_frase3:
  1383                           	callstack 0
  1384   000271                     _comando0:
  1385   000271  47                 	db	71
  1386   000272  45                 	db	69
  1387   000273  54                 	db	84
  1388   000274  5F                 	db	95
  1389   000275  41                 	db	65
  1390   000276  4E                 	db	78
  1391   000277  49                 	db	73
  1392   000278  4D                 	db	77
  1393   000279  41                 	db	65
  1394   00027A  4C                 	db	76
  1395   00027B  53                 	db	83
  1396   00027C  00                 	db	0
  1397   00027D                     __end_of_comando0:
  1398                           	callstack 0
  1399   00027D                     _frase2:
  1400                           	callstack 0
  1401   00027D  4D                 	db	77
  1402   00027E  4F                 	db	79
  1403   00027F  56                 	db	86
  1404   000280  45                 	db	69
  1405   000281  5F                 	db	95
  1406   000282  4C                 	db	76
  1407   000283  45                 	db	69
  1408   000284  46                 	db	70
  1409   000285  54                 	db	84
  1410   000286  0D                 	db	13
  1411   000287  0A                 	db	10
  1412   000288  00                 	db	0
  1413   000289                     __end_of_frase2:
  1414                           	callstack 0
  1415   000289                     _frase1:
  1416                           	callstack 0
  1417   000289  4D                 	db	77
  1418   00028A  4F                 	db	79
  1419   00028B  56                 	db	86
  1420   00028C  45                 	db	69
  1421   00028D  5F                 	db	95
  1422   00028E  44                 	db	68
  1423   00028F  4F                 	db	79
  1424   000290  57                 	db	87
  1425   000291  4E                 	db	78
  1426   000292  0D                 	db	13
  1427   000293  0A                 	db	10
  1428   000294  00                 	db	0
  1429   000295                     __end_of_frase1:
  1430                           	callstack 0
  1431   000295                     _comando7:
  1432   000295  49                 	db	73
  1433   000296  4E                 	db	78
  1434   000297  49                 	db	73
  1435   000298  54                 	db	84
  1436   000299  49                 	db	73
  1437   00029A  41                 	db	65
  1438   00029B  4C                 	db	76
  1439   00029C  49                 	db	73
  1440   00029D  5A                 	db	90
  1441   00029E  45                 	db	69
  1442   00029F  00                 	db	0
  1443   0002A0                     __end_of_comando7:
  1444                           	callstack 0
  1445   0002A0                     _frase0:
  1446                           	callstack 0
  1447   0002A0  4D                 	db	77
  1448   0002A1  4F                 	db	79
  1449   0002A2  56                 	db	86
  1450   0002A3  45                 	db	69
  1451   0002A4  5F                 	db	95
  1452   0002A5  55                 	db	85
  1453   0002A6  50                 	db	80
  1454   0002A7  0D                 	db	13
  1455   0002A8  0A                 	db	10
  1456   0002A9  00                 	db	0
  1457   0002AA                     __end_of_frase0:
  1458                           	callstack 0
  1459   0002AA                     _frase4:
  1460                           	callstack 0
  1461   0002AA  53                 	db	83
  1462   0002AB  45                 	db	69
  1463   0002AC  4C                 	db	76
  1464   0002AD  45                 	db	69
  1465   0002AE  43                 	db	67
  1466   0002AF  54                 	db	84
  1467   0002B0  0D                 	db	13
  1468   0002B1  0A                 	db	10
  1469   0002B2  00                 	db	0
  1470   0002B3                     __end_of_frase4:
  1471                           	callstack 0
  1472   0002B3                     _comando2:
  1473   0002B3  43                 	db	67
  1474   0002B4  4F                 	db	79
  1475   0002B5  4E                 	db	78
  1476   0002B6  53                 	db	83
  1477   0002B7  55                 	db	85
  1478   0002B8  4D                 	db	77
  1479   0002B9  45                 	db	69
  1480   0002BA  00                 	db	0
  1481   0002BB                     __end_of_comando2:
  1482                           	callstack 0
  1483   0002BB                     _comando6:
  1484   0002BB  53                 	db	83
  1485   0002BC  4C                 	db	76
  1486   0002BD  45                 	db	69
  1487   0002BE  45                 	db	69
  1488   0002BF  50                 	db	80
  1489   0002C0  00                 	db	0
  1490   0002C1                     __end_of_comando6:
  1491                           	callstack 0
  1492   0002C1                     _comando3:
  1493   0002C1  52                 	db	82
  1494   0002C2  45                 	db	69
  1495   0002C3  53                 	db	83
  1496   0002C4  45                 	db	69
  1497   0002C5  54                 	db	84
  1498   0002C6  00                 	db	0
  1499   0002C7                     __end_of_comando3:
  1500                           	callstack 0
  1501   007F92                     _TMR0IF         set	32658
  1502   000FD6                     _TMR0           set	4054
  1503   000F89                     _LATAbits       set	3977
  1504   000FF2                     _INTCONbits     set	4082
  1505   000FD5                     _T0CON          set	4053
  1506   000FAE                     _RCREG          set	4014
  1507   000FAD                     _TXREG          set	4013
  1508   000F9E                     _PIR1bits       set	3998
  1509   000FB0                     _SPBRGH         set	4016
  1510   000FAF                     _SPBRG          set	4015
  1511   000FAB                     _RCSTAbits      set	4011
  1512   000FAC                     _TXSTAbits      set	4012
  1513   000F81                     _PORTBbits      set	3969
  1514   000FC3                     _ADRESL         set	4035
  1515   000FC4                     _ADRESH         set	4036
  1516   000FC2                     _ADCON0bits     set	4034
  1517   000F92                     _TRISAbits      set	3986
  1518   000FC0                     _ADCON2         set	4032
  1519   000FC1                     _ADCON1         set	4033
  1520   000FC2                     _ADCON0         set	4034
  1521   000FF1                     _INTCON2bits    set	4081
  1522   000F93                     _TRISBbits      set	3987
  1523   0002C7  00                 	db	0	; dummy byte at the end
  1524   000200                     __smallconst    set	__psmallconst
  1525   000200                     __mediumconst   set	__psmallconst
  1526   000002                     __activetblptr  equ	2
  1527                           
  1528                           ; #config settings
  1529                           
  1530                           	psect	cinit
  1531   0006DA                     __pcinit:
  1532                           	callstack 0
  1533   0006DA                     start_initialization:
  1534                           	callstack 0
  1535   0006DA                     __initialization:
  1536                           	callstack 0
  1537                           
  1538                           ; Initialize objects allocated to COMRAM (7 bytes)
  1539                           ; load TBLPTR registers with __pidataCOMRAM
  1540   0006DA  0EA0               	movlw	low __pidataCOMRAM
  1541   0006DC  6EF6               	movwf	tblptrl,c
  1542   0006DE  0E08               	movlw	high __pidataCOMRAM
  1543   0006E0  6EF7               	movwf	tblptrh,c
  1544   0006E2  0E00               	movlw	low (__pidataCOMRAM shr (0+16))
  1545   0006E4  6EF8               	movwf	tblptru,c
  1546   0006E6  EE00  F06D         	lfsr	0,__pdataCOMRAM
  1547   0006EA  EE10 F007          	lfsr	1,7
  1548   0006EE                     copy_data0:
  1549   0006EE  0009               	tblrd		*+
  1550   0006F0  CFF5 FFEE          	movff	tablat,postinc0
  1551   0006F4  50E5               	movf	postdec1,w,c
  1552   0006F6  50E1               	movf	fsr1l,w,c
  1553   0006F8  E1FA               	bnz	copy_data0
  1554                           
  1555                           ; Clear objects allocated to COMRAM (90 bytes)
  1556   0006FA  EE00  F001         	lfsr	0,__pbssCOMRAM
  1557   0006FE  0E5A               	movlw	90
  1558   000700                     clear_0:
  1559   000700  6AEE               	clrf	postinc0,c
  1560   000702  06E8               	decf	wreg,f,c
  1561   000704  E1FD               	bnz	clear_0
  1562   000706                     end_of_initialization:
  1563                           	callstack 0
  1564   000706                     __end_of__initialization:
  1565                           	callstack 0
  1566   000706  9074               	bcf	int$flags,0,c	;clear compiler interrupt flag (level 1)
  1567   000708  9274               	bcf	int$flags,1,c	;clear compiler interrupt flag (level 2)
  1568   00070A  0E00               	movlw	low (__Lmediumconst shr (0+16))
  1569   00070C  6EF8               	movwf	tblptru,c
  1570   00070E  0100               	movlb	0
  1571   000710  EF8A  F003         	goto	_main	;jump to C main() function
  1572                           
  1573                           	psect	bssCOMRAM
  1574   000001                     __pbssCOMRAM:
  1575                           	callstack 0
  1576   000001                     _comando:
  1577                           	callstack 0
  1578   000001                     	ds	30
  1579   00001F                     _Timers:
  1580                           	callstack 0
  1581   00001F                     	ds	20
  1582   000033                     _Tics:
  1583                           	callstack 0
  1584   000033                     	ds	4
  1585   000037                     	ds	2
  1586   000039                     _valorY:
  1587                           	callstack 0
  1588   000039                     	ds	2
  1589   00003B                     _valorX:
  1590                           	callstack 0
  1591   00003B                     	ds	2
  1592   00003D                     _valueLDR:
  1593                           	callstack 0
  1594   00003D                     	ds	2
  1595   00003F                     _valueY:
  1596                           	callstack 0
  1597   00003F                     	ds	2
  1598   000041                     _valueX:
  1599                           	callstack 0
  1600   000041                     	ds	2
  1601   000043                     	ds	1
  1602   000044                     _indice@TAD_HEARTBEAT$F792:
  1603                           	callstack 0
  1604   000044                     	ds	1
  1605   000045                     	ds	1
  1606   000046                     	ds	1
  1607   000047                     _pTxFrase:
  1608                           	callstack 0
  1609   000047                     	ds	1
  1610   000048                     _indice:
  1611                           	callstack 0
  1612   000048                     	ds	1
  1613   000049                     _estado:
  1614                           	callstack 0
  1615   000049                     	ds	1
  1616   00004A                     _cmdInitialize:
  1617                           	callstack 0
  1618   00004A                     	ds	1
  1619   00004B                     _cmdSleep:
  1620                           	callstack 0
  1621   00004B                     	ds	1
  1622   00004C                     _cmdStopRebel:
  1623                           	callstack 0
  1624   00004C                     	ds	1
  1625   00004D                     _cmdStartRebel:
  1626                           	callstack 0
  1627   00004D                     	ds	1
  1628   00004E                     _cmdReset:
  1629                           	callstack 0
  1630   00004E                     	ds	1
  1631   00004F                     _cmdConsume:
  1632                           	callstack 0
  1633   00004F                     	ds	1
  1634   000050                     _cmdGetProducts:
  1635                           	callstack 0
  1636   000050                     	ds	1
  1637   000051                     _cmdGetAnimals:
  1638                           	callstack 0
  1639   000051                     	ds	1
  1640   000052                     DSP_Motor@i:
  1641                           	callstack 0
  1642   000052                     	ds	1
  1643   000053                     DSP_Motor@estado:
  1644                           	callstack 0
  1645   000053                     	ds	1
  1646   000054                     _flagRebotes:
  1647                           	callstack 0
  1648   000054                     	ds	1
  1649   000055                     _dataReadyLDR:
  1650                           	callstack 0
  1651   000055                     	ds	1
  1652   000056                     _dataReady:
  1653                           	callstack 0
  1654   000056                     	ds	1
  1655   000057                     _estat:
  1656                           	callstack 0
  1657   000057                     	ds	1
  1658   000058                     _timerDutyCycle:
  1659                           	callstack 0
  1660   000058                     	ds	1
  1661   000059                     _timerLDR:
  1662                           	callstack 0
  1663   000059                     	ds	1
  1664   00005A                     _timerRebotes:
  1665                           	callstack 0
  1666   00005A                     	ds	1
  1667                           
  1668                           	psect	dataCOMRAM
  1669   00006D                     __pdataCOMRAM:
  1670                           	callstack 0
  1671   00006D                     _dutyCycle:
  1672                           	callstack 0
  1673   00006D                     	ds	4
  1674   000071                     _estado@TAD_HEARTBEAT$F793:
  1675                           	callstack 0
  1676   000071                     	ds	1
  1677   000072                     _lastDirY:
  1678                           	callstack 0
  1679   000072                     	ds	1
  1680   000073                     _lastDirX:
  1681                           	callstack 0
  1682   000073                     	ds	1
  1683                           
  1684                           	psect	cstackCOMRAM
  1685   00005B                     __pcstackCOMRAM:
  1686                           	callstack 0
  1687   00005B                     ?_ADC_GetX:
  1688                           	callstack 0
  1689   00005B                     ?_ADC_GetY:
  1690                           	callstack 0
  1691   00005B                     ?_TI_GetTics:
  1692                           	callstack 0
  1693   00005B                     SERIAL_ReadByte@b:
  1694                           	callstack 0
  1695   00005B                     guardarCharArr@aux:
  1696                           	callstack 0
  1697   00005B                     TI_Init@counter:
  1698                           	callstack 0
  1699   00005B                     TI_NewTimer@TimerHandle:
  1700                           	callstack 0
  1701   00005B                     TI_ResetTics@TimerHandle:
  1702                           	callstack 0
  1703   00005B                     ??_ADC_Motor:
  1704   00005B                     ??_SERIAL_PutString:
  1705   00005B                     
  1706                           ; 1 bytes @ 0x0
  1707   00005B                     	ds	1
  1708   00005C                     SERIAL_PutString@s:
  1709                           	callstack 0
  1710   00005C                     Motor_Serial@c:
  1711                           	callstack 0
  1712   00005C                     
  1713                           ; 1 bytes @ 0x1
  1714   00005C                     	ds	1
  1715   00005D                     Motor_Serial@aux:
  1716                           	callstack 0
  1717   00005D                     TI_NewTimer@Comptador:
  1718                           	callstack 0
  1719   00005D                     
  1720                           ; 1 bytes @ 0x2
  1721   00005D                     	ds	1
  1722   00005E                     
  1723                           ; 1 bytes @ 0x3
  1724   00005E                     	ds	1
  1725   00005F                     ??_TI_GetTics:
  1726                           
  1727                           ; 1 bytes @ 0x4
  1728   00005F                     	ds	4
  1729   000063                     TI_GetTics@CopiaTicsActual:
  1730                           	callstack 0
  1731                           
  1732                           ; 4 bytes @ 0x8
  1733   000063                     	ds	4
  1734   000067                     TI_GetTics@TimerHandle:
  1735                           	callstack 0
  1736                           
  1737                           ; 1 bytes @ 0xC
  1738   000067                     	ds	1
  1739   000068                     ??_DSP_Motor:
  1740   000068                     ??_HEARTBEAT_Motor:
  1741                           
  1742                           ; 1 bytes @ 0xD
  1743   000068                     	ds	5
  1744   00006D                     
  1745                           ; 1 bytes @ 0x12
  1746 ;;
  1747 ;;Main: autosize = 0, tempsize = 0, incstack = 0, save=0
  1748 ;;
  1749 ;; *************** function _main *****************
  1750 ;; Defined at:
  1751 ;;		line 37 in file "main.c"
  1752 ;; Parameters:    Size  Location     Type
  1753 ;;		None
  1754 ;; Auto vars:     Size  Location     Type
  1755 ;;		None
  1756 ;; Return value:  Size  Location     Type
  1757 ;;                  1    wreg      void 
  1758 ;; Registers used:
  1759 ;;		wreg, fsr2l, fsr2h, status,2, status,0, tblptrl, tblptrh, tblptru, prodl, prodh, cstack
  1760 ;; Tracked objects:
  1761 ;;		On entry : 0/0
  1762 ;;		On exit  : 0/0
  1763 ;;		Unchanged: 0/0
  1764 ;; Data sizes:     COMRAM   BANK0   BANK1
  1765 ;;      Params:         0       0       0
  1766 ;;      Locals:         0       0       0
  1767 ;;      Temps:          0       0       0
  1768 ;;      Totals:         0       0       0
  1769 ;;Total ram usage:        0 bytes
  1770 ;; Hardware stack levels required when called: 4
  1771 ;; This function calls:
  1772 ;;		_ADC_Init
  1773 ;;		_ADC_Motor
  1774 ;;		_DSP_Init
  1775 ;;		_DSP_Motor
  1776 ;;		_HEARTBEAT_Motor
  1777 ;;		_HREATBEAT_Init
  1778 ;;		_LDR_Init
  1779 ;;		_Motor_Serial
  1780 ;;		_SERIAL_Init
  1781 ;;		_TI_Init
  1782 ;;		_initPorts
  1783 ;; This function is called by:
  1784 ;;		Startup code after reset
  1785 ;; This function uses a non-reentrant model
  1786 ;;
  1787                           
  1788                           	psect	text0
  1789   000714                     __ptext0:
  1790                           	callstack 0
  1791   000714                     _main:
  1792                           	callstack 27
  1793                           
  1794                           ;incstack = 0
  1795   000714  EC1B  F004         	call	_initPorts	;wreg free
  1796   000718  ECA1  F003         	call	_TI_Init	;wreg free
  1797   00071C  EC25  F004         	call	_ADC_Init	;wreg free
  1798   000720  EC02  F004         	call	_DSP_Init	;wreg free
  1799   000724  ECD9  F003         	call	_SERIAL_Init	;wreg free
  1800   000728  EC3C  F004         	call	_LDR_Init	;wreg free
  1801   00072C  EC41  F004         	call	_HREATBEAT_Init	;wreg free
  1802   000730                     l1757:
  1803   000730  EC91  F002         	call	_ADC_Motor	;wreg free
  1804   000734  EC64  F001         	call	_DSP_Motor	;wreg free
  1805   000738  EC1A  F002         	call	_Motor_Serial	;wreg free
  1806   00073C  ECE6  F002         	call	_HEARTBEAT_Motor	;wreg free
  1807   000740  D7F7               	goto	l1757
  1808   000742                     __end_of_main:
  1809                           	callstack 0
  1810                           
  1811 ;; *************** function _initPorts *****************
  1812 ;; Defined at:
  1813 ;;		line 28 in file "main.c"
  1814 ;; Parameters:    Size  Location     Type
  1815 ;;		None
  1816 ;; Auto vars:     Size  Location     Type
  1817 ;;		None
  1818 ;; Return value:  Size  Location     Type
  1819 ;;                  1    wreg      void 
  1820 ;; Registers used:
  1821 ;;		wreg, status,2
  1822 ;; Tracked objects:
  1823 ;;		On entry : 0/0
  1824 ;;		On exit  : 0/0
  1825 ;;		Unchanged: 0/0
  1826 ;; Data sizes:     COMRAM   BANK0   BANK1
  1827 ;;      Params:         0       0       0
  1828 ;;      Locals:         0       0       0
  1829 ;;      Temps:          0       0       0
  1830 ;;      Totals:         0       0       0
  1831 ;;Total ram usage:        0 bytes
  1832 ;; Hardware stack levels used: 1
  1833 ;; Hardware stack levels required when called: 2
  1834 ;; This function calls:
  1835 ;;		Nothing
  1836 ;; This function is called by:
  1837 ;;		_main
  1838 ;; This function uses a non-reentrant model
  1839 ;;
  1840                           
  1841                           	psect	text1
  1842   000836                     __ptext1:
  1843                           	callstack 0
  1844   000836                     _initPorts:
  1845                           	callstack 28
  1846                           
  1847                           ;main.c: 29:         ADC_Motor();
  1848                           
  1849                           ;incstack = 0
  1850   000836  8493               	bsf	147,2,c	;volatile
  1851                           
  1852                           ;main.c: 30:         DSP_Motor();
  1853   000838  9EF1               	bcf	241,7,c	;volatile
  1854                           
  1855                           ;main.c: 31:         Motor_Serial();
  1856   00083A  0E01               	movlw	1
  1857   00083C  6EC2               	movwf	194,c	;volatile
  1858                           
  1859                           ;main.c: 32:         HEARTBEAT_Motor();
  1860   00083E  0E0C               	movlw	12
  1861   000840  6EC1               	movwf	193,c	;volatile
  1862                           
  1863                           ;main.c: 33:     }
  1864   000842  0E80               	movlw	128
  1865   000844  6EC0               	movwf	192,c	;volatile
  1866                           
  1867                           ;main.c: 34: }
  1868   000846  9692               	bcf	146,3,c	;volatile
  1869   000848  0012               	return		;funcret
  1870   00084A                     __end_of_initPorts:
  1871                           	callstack 0
  1872                           
  1873 ;; *************** function _TI_Init *****************
  1874 ;; Defined at:
  1875 ;;		line 24 in file "TAD_TIMER.c"
  1876 ;; Parameters:    Size  Location     Type
  1877 ;;		None
  1878 ;; Auto vars:     Size  Location     Type
  1879 ;;  counter         1    0[COMRAM] unsigned char 
  1880 ;; Return value:  Size  Location     Type
  1881 ;;                  1    wreg      void 
  1882 ;; Registers used:
  1883 ;;		wreg, fsr2l, fsr2h, status,2, status,0, prodl, prodh
  1884 ;; Tracked objects:
  1885 ;;		On entry : 0/0
  1886 ;;		On exit  : 0/0
  1887 ;;		Unchanged: 0/0
  1888 ;; Data sizes:     COMRAM   BANK0   BANK1
  1889 ;;      Params:         0       0       0
  1890 ;;      Locals:         1       0       0
  1891 ;;      Temps:          0       0       0
  1892 ;;      Totals:         1       0       0
  1893 ;;Total ram usage:        1 bytes
  1894 ;; Hardware stack levels used: 1
  1895 ;; Hardware stack levels required when called: 2
  1896 ;; This function calls:
  1897 ;;		Nothing
  1898 ;; This function is called by:
  1899 ;;		_main
  1900 ;; This function uses a non-reentrant model
  1901 ;;
  1902                           
  1903                           	psect	text2
  1904   000742                     __ptext2:
  1905                           	callstack 0
  1906   000742                     _TI_Init:
  1907                           	callstack 28
  1908                           
  1909                           ;TAD_TIMER.c: 25:  for (unsigned char counter=0; counter<4; counter++) {
  1910                           
  1911                           ;incstack = 0
  1912   000742  6A5B               	clrf	TI_Init@counter^0,c
  1913   000744                     l1237:
  1914                           
  1915                           ;TAD_TIMER.c: 26:   Timers[counter].Busy=0;
  1916   000744  505B               	movf	TI_Init@counter^0,w,c
  1917   000746  0D05               	mullw	5
  1918   000748  50F3               	movf	243,w,c
  1919   00074A  0F23               	addlw	low (_Timers+4)
  1920   00074C  6ED9               	movwf	fsr2l,c
  1921   00074E  6ADA               	clrf	fsr2h,c
  1922   000750  6ADF               	clrf	indf2,c
  1923                           
  1924                           ;TAD_TIMER.c: 27:  }
  1925   000752  2A5B               	incf	TI_Init@counter^0,f,c
  1926   000754  0E03               	movlw	3
  1927   000756  645B               	cpfsgt	TI_Init@counter^0,c
  1928   000758  D7F5               	goto	l1237
  1929                           
  1930                           ;TAD_TIMER.c: 28:  T0CON=0x82;
  1931   00075A  0E82               	movlw	130
  1932   00075C  6ED5               	movwf	213,c	;volatile
  1933                           
  1934                           ;TAD_TIMER.c: 29:     TMR0=65224;
  1935   00075E  0EFE               	movlw	254
  1936   000760  6ED7               	movwf	215,c	;volatile
  1937   000762  0EC8               	movlw	200
  1938   000764  6ED6               	movwf	214,c	;volatile
  1939                           
  1940                           ;TAD_TIMER.c: 30:  INTCONbits.TMR0IF = 0;
  1941   000766  94F2               	bcf	242,2,c	;volatile
  1942                           
  1943                           ;TAD_TIMER.c: 31:  INTCONbits.TMR0IE = 1;
  1944   000768  8AF2               	bsf	242,5,c	;volatile
  1945   00076A  0012               	return		;funcret
  1946   00076C                     __end_of_TI_Init:
  1947                           	callstack 0
  1948                           
  1949 ;; *************** function _SERIAL_Init *****************
  1950 ;; Defined at:
  1951 ;;		line 56 in file "TAD_SERIAL.c"
  1952 ;; Parameters:    Size  Location     Type
  1953 ;;		None
  1954 ;; Auto vars:     Size  Location     Type
  1955 ;;		None
  1956 ;; Return value:  Size  Location     Type
  1957 ;;                  1    wreg      void 
  1958 ;; Registers used:
  1959 ;;		wreg, status,2
  1960 ;; Tracked objects:
  1961 ;;		On entry : 0/0
  1962 ;;		On exit  : 0/0
  1963 ;;		Unchanged: 0/0
  1964 ;; Data sizes:     COMRAM   BANK0   BANK1
  1965 ;;      Params:         0       0       0
  1966 ;;      Locals:         0       0       0
  1967 ;;      Temps:          0       0       0
  1968 ;;      Totals:         0       0       0
  1969 ;;Total ram usage:        0 bytes
  1970 ;; Hardware stack levels used: 1
  1971 ;; Hardware stack levels required when called: 2
  1972 ;; This function calls:
  1973 ;;		Nothing
  1974 ;; This function is called by:
  1975 ;;		_main
  1976 ;; This function uses a non-reentrant model
  1977 ;;
  1978                           
  1979                           	psect	text3
  1980   0007B2                     __ptext3:
  1981                           	callstack 0
  1982   0007B2                     _SERIAL_Init:
  1983                           	callstack 28
  1984                           
  1985                           ;TAD_SERIAL.c: 58:     TXSTAbits.SYNC = 0;
  1986                           
  1987                           ;incstack = 0
  1988   0007B2  98AC               	bcf	172,4,c	;volatile
  1989                           
  1990                           ;TAD_SERIAL.c: 59:     TXSTAbits.TX9 = 0;
  1991   0007B4  9CAC               	bcf	172,6,c	;volatile
  1992                           
  1993                           ;TAD_SERIAL.c: 60:     TXSTAbits.BRGH = 1;
  1994   0007B6  84AC               	bsf	172,2,c	;volatile
  1995                           
  1996                           ;TAD_SERIAL.c: 61:     TXSTAbits.TXEN = 1;
  1997   0007B8  8AAC               	bsf	172,5,c	;volatile
  1998                           
  1999                           ;TAD_SERIAL.c: 64:     RCSTAbits.SPEN = 1;
  2000   0007BA  8EAB               	bsf	171,7,c	;volatile
  2001                           
  2002                           ;TAD_SERIAL.c: 65:     RCSTAbits.RX9 = 0;
  2003   0007BC  9CAB               	bcf	171,6,c	;volatile
  2004                           
  2005                           ;TAD_SERIAL.c: 66:     RCSTAbits.CREN = 1;
  2006   0007BE  88AB               	bsf	171,4,c	;volatile
  2007                           
  2008                           ;TAD_SERIAL.c: 71:     SPBRG = (unsigned char)((10000000UL / (16UL * 9600UL)) - 1UL);
  2009   0007C0  0E40               	movlw	64
  2010   0007C2  6EAF               	movwf	175,c	;volatile
  2011                           
  2012                           ;TAD_SERIAL.c: 72:     SPBRGH = 0;
  2013   0007C4  6AB0               	clrf	176,c	;volatile
  2014                           
  2015                           ;TAD_SERIAL.c: 75:     PIR1bits.RCIF = 0;
  2016   0007C6  9A9E               	bcf	158,5,c	;volatile
  2017                           
  2018                           ;TAD_SERIAL.c: 76:     estado = 1;
  2019   0007C8  0E01               	movlw	1
  2020   0007CA  6E49               	movwf	_estado^0,c
  2021   0007CC  0012               	return		;funcret
  2022   0007CE                     __end_of_SERIAL_Init:
  2023                           	callstack 0
  2024                           
  2025 ;; *************** function _Motor_Serial *****************
  2026 ;; Defined at:
  2027 ;;		line 199 in file "TAD_SERIAL.c"
  2028 ;; Parameters:    Size  Location     Type
  2029 ;;		None
  2030 ;; Auto vars:     Size  Location     Type
  2031 ;;  c               1    1[COMRAM] unsigned char 
  2032 ;;  aux             1    2[COMRAM] unsigned char 
  2033 ;; Return value:  Size  Location     Type
  2034 ;;                  1    wreg      void 
  2035 ;; Registers used:
  2036 ;;		wreg, fsr2l, fsr2h, status,2, status,0, tblptrl, tblptrh, tblptru, cstack
  2037 ;; Tracked objects:
  2038 ;;		On entry : 0/0
  2039 ;;		On exit  : 0/0
  2040 ;;		Unchanged: 0/0
  2041 ;; Data sizes:     COMRAM   BANK0   BANK1
  2042 ;;      Params:         0       0       0
  2043 ;;      Locals:         2       0       0
  2044 ;;      Temps:          0       0       0
  2045 ;;      Totals:         2       0       0
  2046 ;;Total ram usage:        2 bytes
  2047 ;; Hardware stack levels used: 1
  2048 ;; Hardware stack levels required when called: 3
  2049 ;; This function calls:
  2050 ;;		_SERIAL_ReadByte
  2051 ;;		_guardarCharArr
  2052 ;; This function is called by:
  2053 ;;		_main
  2054 ;; This function uses a non-reentrant model
  2055 ;;
  2056                           
  2057                           	psect	text4
  2058   000434                     __ptext4:
  2059                           	callstack 0
  2060   000434                     _Motor_Serial:
  2061                           	callstack 27
  2062                           
  2063                           ;TAD_SERIAL.c: 200:     unsigned char aux;;TAD_SERIAL.c: 202:     switch(estado){
  2064                           
  2065                           ;incstack = 0
  2066   000434  D06B               	goto	l1717
  2067   000436                     l308:
  2068                           
  2069                           ;TAD_SERIAL.c: 204:             if (PIR1bits.TXIF) {
  2070   000436  A89E               	btfss	158,4,c	;volatile
  2071   000438  0012               	return	
  2072                           
  2073                           ;TAD_SERIAL.c: 205:                 if(pTxFrase && *pTxFrase != '\0') {
  2074   00043A  5047               	movf	_pTxFrase^0,w,c
  2075   00043C  B4D8               	btfsc	status,2,c
  2076   00043E  D014               	goto	l310
  2077   000440  C047  FFF6         	movff	_pTxFrase,tblptrl
  2078   000444                     	if	1	;There is more than 1 active tblptr byte
  2079   000444  0E02               	movlw	high __psmallconst
  2080   000446  6EF7               	movwf	tblptrh,c
  2081   000448                     	endif
  2082   000448                     	if	0	;tblptru may be non-zero
  2083   000448                     	endif
  2084   000448                     	if	0	;tblptru may be non-zero
  2085   000448                     	endif
  2086   000448  0008               	tblrd		*
  2087   00044A  50F5               	movf	tablat,w,c
  2088   00044C  0900               	iorlw	0
  2089   00044E  B4D8               	btfsc	status,2,c
  2090   000450  D00B               	goto	l310
  2091                           
  2092                           ;TAD_SERIAL.c: 206:                     char c = *pTxFrase++;
  2093   000452  C047  FFF6         	movff	_pTxFrase,tblptrl
  2094   000456                     	if	1	;There is more than 1 active tblptr byte
  2095   000456  0E02               	movlw	high __psmallconst
  2096   000458  6EF7               	movwf	tblptrh,c
  2097   00045A                     	endif
  2098   00045A                     	if	0	;tblptru may be non-zero
  2099   00045A                     	endif
  2100   00045A                     	if	0	;tblptru may be non-zero
  2101   00045A                     	endif
  2102   00045A  0008               	tblrd		*
  2103   00045C  CFF5 F05C          	movff	tablat,Motor_Serial@c
  2104   000460  2A47               	incf	_pTxFrase^0,f,c
  2105                           
  2106                           ;TAD_SERIAL.c: 207:                     TXREG = (unsigned char)c;
  2107   000462  C05C  FFAD         	movff	Motor_Serial@c,4013	;volatile
  2108                           
  2109                           ;TAD_SERIAL.c: 208:                 }else {
  2110   000466  0012               	return	
  2111   000468                     l310:
  2112                           
  2113                           ;TAD_SERIAL.c: 209:                     pTxFrase = 0;
  2114   000468  6A47               	clrf	_pTxFrase^0,c
  2115   00046A                     l1667:
  2116                           
  2117                           ;TAD_SERIAL.c: 210:                     estado = 1;
  2118   00046A  0E01               	movlw	1
  2119   00046C  6E49               	movwf	_estado^0,c
  2120   00046E  0012               	return	
  2121   000470                     l1669:
  2122                           
  2123                           ;TAD_SERIAL.c: 215:         if(SERIAL_ReadByte(&aux)){
  2124   000470  0E5D               	movlw	low Motor_Serial@aux
  2125   000472  6E5B               	movwf	SERIAL_ReadByte@b^0,c
  2126   000474  ECC8  F003         	call	_SERIAL_ReadByte	;wreg free
  2127   000478  0900               	iorlw	0
  2128   00047A  B4D8               	btfsc	status,2,c
  2129   00047C  0012               	return	
  2130                           
  2131                           ;TAD_SERIAL.c: 216:             if(aux == '\r'){
  2132   00047E  0E0D               	movlw	13
  2133   000480  185D               	xorwf	Motor_Serial@aux^0,w,c
  2134   000482  A4D8               	btfss	status,2,c
  2135   000484  D003               	goto	l1677
  2136                           
  2137                           ;TAD_SERIAL.c: 217:                 indice = 0;
  2138   000486  6A48               	clrf	_indice^0,c
  2139                           
  2140                           ;TAD_SERIAL.c: 218:                 estado++;
  2141   000488  2A49               	incf	_estado^0,f,c
  2142                           
  2143                           ;TAD_SERIAL.c: 219:             } else if(aux == '\n'){
  2144   00048A  0012               	return	
  2145   00048C                     l1677:
  2146   00048C  0E0A               	movlw	10
  2147   00048E  185D               	xorwf	Motor_Serial@aux^0,w,c
  2148   000490  B4D8               	btfsc	status,2,c
  2149   000492  0012               	return	
  2150                           
  2151                           ;TAD_SERIAL.c: 222:                 guardarCharArr(aux);
  2152   000494  505D               	movf	Motor_Serial@aux^0,w,c
  2153   000496  ECE7  F003         	call	_guardarCharArr
  2154   00049A  0012               	return	
  2155   00049C                     l1683:
  2156                           
  2157                           ;TAD_SERIAL.c: 227:             if(comando[0] == 'S'){
  2158   00049C  0E53               	movlw	83
  2159   00049E  1801               	xorwf	_comando^0,w,c
  2160   0004A0  A4D8               	btfss	status,2,c
  2161   0004A2  D003               	goto	l1687
  2162                           
  2163                           ;TAD_SERIAL.c: 228:                 cmdSleep = 1;
  2164   0004A4  0E01               	movlw	1
  2165   0004A6  6E4B               	movwf	_cmdSleep^0,c
  2166                           
  2167                           ;TAD_SERIAL.c: 229:             }else if(comando[0] == 'R'){
  2168   0004A8  D7E0               	goto	l1667
  2169   0004AA                     l1687:
  2170   0004AA  0E52               	movlw	82
  2171   0004AC  1801               	xorwf	_comando^0,w,c
  2172   0004AE  A4D8               	btfss	status,2,c
  2173   0004B0  D003               	goto	l1691
  2174                           
  2175                           ;TAD_SERIAL.c: 230:                 cmdReset = 1;
  2176   0004B2  0E01               	movlw	1
  2177   0004B4  6E4E               	movwf	_cmdReset^0,c
  2178                           
  2179                           ;TAD_SERIAL.c: 231:             }else if(comando[0] == 'C'){
  2180   0004B6  D7D9               	goto	l1667
  2181   0004B8                     l1691:
  2182   0004B8  0E43               	movlw	67
  2183   0004BA  1801               	xorwf	_comando^0,w,c
  2184   0004BC  A4D8               	btfss	status,2,c
  2185   0004BE  D003               	goto	l1695
  2186                           
  2187                           ;TAD_SERIAL.c: 232:                 cmdConsume = 1;
  2188   0004C0  0E01               	movlw	1
  2189   0004C2  6E4F               	movwf	_cmdConsume^0,c
  2190                           
  2191                           ;TAD_SERIAL.c: 233:             }else if(comando[0] == 'I'){
  2192   0004C4  D7D2               	goto	l1667
  2193   0004C6                     l1695:
  2194   0004C6  0E49               	movlw	73
  2195   0004C8  1801               	xorwf	_comando^0,w,c
  2196   0004CA  A4D8               	btfss	status,2,c
  2197   0004CC  D003               	goto	l1699
  2198                           
  2199                           ;TAD_SERIAL.c: 234:                 cmdInitialize = 1;
  2200   0004CE  0E01               	movlw	1
  2201   0004D0  6E4A               	movwf	_cmdInitialize^0,c
  2202                           
  2203                           ;TAD_SERIAL.c: 235:             }else if(comando[0] == 'S'){
  2204   0004D2  D7CB               	goto	l1667
  2205   0004D4                     l1699:
  2206   0004D4  0E53               	movlw	83
  2207   0004D6  1801               	xorwf	_comando^0,w,c
  2208   0004D8  A4D8               	btfss	status,2,c
  2209   0004DA  D00A               	goto	l1707
  2210                           
  2211                           ;TAD_SERIAL.c: 236:                 if(comando[2] == 'A'){
  2212   0004DC  0E41               	movlw	65
  2213   0004DE  1803               	xorwf	(_comando+2)^0,w,c
  2214   0004E0  A4D8               	btfss	status,2,c
  2215   0004E2  D003               	goto	l1705
  2216                           
  2217                           ;TAD_SERIAL.c: 237:                     cmdStartRebel = 1;
  2218   0004E4  0E01               	movlw	1
  2219   0004E6  6E4D               	movwf	_cmdStartRebel^0,c
  2220                           
  2221                           ;TAD_SERIAL.c: 238:                 }else{
  2222   0004E8  D7C0               	goto	l1667
  2223   0004EA                     l1705:
  2224                           
  2225                           ;TAD_SERIAL.c: 239:                     cmdStopRebel = 1;
  2226   0004EA  0E01               	movlw	1
  2227   0004EC  6E4C               	movwf	_cmdStopRebel^0,c
  2228   0004EE  D7BD               	goto	l1667
  2229   0004F0                     l1707:
  2230   0004F0  0E47               	movlw	71
  2231   0004F2  1801               	xorwf	_comando^0,w,c
  2232   0004F4  A4D8               	btfss	status,2,c
  2233   0004F6  D7B9               	goto	l1667
  2234                           
  2235                           ;TAD_SERIAL.c: 242:                 if(comando[4] == 'A'){
  2236   0004F8  0E41               	movlw	65
  2237   0004FA  1805               	xorwf	(_comando+4)^0,w,c
  2238   0004FC  A4D8               	btfss	status,2,c
  2239   0004FE  D003               	goto	l1713
  2240                           
  2241                           ;TAD_SERIAL.c: 243:                     cmdGetAnimals = 1;
  2242   000500  0E01               	movlw	1
  2243   000502  6E51               	movwf	_cmdGetAnimals^0,c
  2244                           
  2245                           ;TAD_SERIAL.c: 244:                 }else{
  2246   000504  D7B2               	goto	l1667
  2247   000506                     l1713:
  2248                           
  2249                           ;TAD_SERIAL.c: 245:                     cmdGetProducts = 1;
  2250   000506  0E01               	movlw	1
  2251   000508  6E50               	movwf	_cmdGetProducts^0,c
  2252   00050A  D7AF               	goto	l1667
  2253   00050C                     l1717:
  2254   00050C  5049               	movf	_estado^0,w,c
  2255                           
  2256                           ; Switch size 1, requested type "simple"
  2257                           ; Number of cases is 3, Range of values is 0 to 2
  2258                           ; switch strategies available:
  2259                           ; Name         Instructions Cycles
  2260                           ; simple_byte           10     6 (average)
  2261                           ;	Chosen strategy is simple_byte
  2262   00050E  0A00               	xorlw	0	; case 0
  2263   000510  B4D8               	btfsc	status,2,c
  2264   000512  D791               	goto	l308
  2265   000514  0A01               	xorlw	1	; case 1
  2266   000516  B4D8               	btfsc	status,2,c
  2267   000518  D7AB               	goto	l1669
  2268   00051A  0A03               	xorlw	3	; case 2
  2269   00051C  A4D8               	btfss	status,2,c
  2270   00051E  0012               	return	
  2271   000520  D7BD               	goto	l1683
  2272   000522                     __end_of_Motor_Serial:
  2273                           	callstack 0
  2274                           
  2275 ;; *************** function _guardarCharArr *****************
  2276 ;; Defined at:
  2277 ;;		line 117 in file "TAD_SERIAL.c"
  2278 ;; Parameters:    Size  Location     Type
  2279 ;;  aux             1    wreg     unsigned char 
  2280 ;; Auto vars:     Size  Location     Type
  2281 ;;  aux             1    0[COMRAM] unsigned char 
  2282 ;; Return value:  Size  Location     Type
  2283 ;;                  1    wreg      void 
  2284 ;; Registers used:
  2285 ;;		wreg, fsr2l, fsr2h, status,2, status,0
  2286 ;; Tracked objects:
  2287 ;;		On entry : 0/0
  2288 ;;		On exit  : 0/0
  2289 ;;		Unchanged: 0/0
  2290 ;; Data sizes:     COMRAM   BANK0   BANK1
  2291 ;;      Params:         0       0       0
  2292 ;;      Locals:         1       0       0
  2293 ;;      Temps:          0       0       0
  2294 ;;      Totals:         1       0       0
  2295 ;;Total ram usage:        1 bytes
  2296 ;; Hardware stack levels used: 1
  2297 ;; Hardware stack levels required when called: 2
  2298 ;; This function calls:
  2299 ;;		Nothing
  2300 ;; This function is called by:
  2301 ;;		_Motor_Serial
  2302 ;; This function uses a non-reentrant model
  2303 ;;
  2304                           
  2305                           	psect	text5
  2306   0007CE                     __ptext5:
  2307                           	callstack 0
  2308   0007CE                     _guardarCharArr:
  2309                           	callstack 27
  2310                           
  2311                           ;incstack = 0
  2312                           ;guardarCharArr@aux stored from wreg
  2313   0007CE  6E5B               	movwf	guardarCharArr@aux^0,c
  2314                           
  2315                           ;TAD_SERIAL.c: 118:     comando[indice] = aux;
  2316   0007D0  5048               	movf	_indice^0,w,c
  2317   0007D2  0F01               	addlw	low _comando
  2318   0007D4  6ED9               	movwf	fsr2l,c
  2319   0007D6  6ADA               	clrf	fsr2h,c
  2320   0007D8  C05B  FFDF         	movff	guardarCharArr@aux,indf2
  2321                           
  2322                           ;TAD_SERIAL.c: 119:     indice++;
  2323   0007DC  2A48               	incf	_indice^0,f,c
  2324                           
  2325                           ;TAD_SERIAL.c: 120:     comando[indice] = '\0';
  2326   0007DE  5048               	movf	_indice^0,w,c
  2327   0007E0  0F01               	addlw	low _comando
  2328   0007E2  6ED9               	movwf	fsr2l,c
  2329   0007E4  6ADA               	clrf	fsr2h,c
  2330   0007E6  6ADF               	clrf	indf2,c
  2331   0007E8  0012               	return		;funcret
  2332   0007EA                     __end_of_guardarCharArr:
  2333                           	callstack 0
  2334                           
  2335 ;; *************** function _SERIAL_ReadByte *****************
  2336 ;; Defined at:
  2337 ;;		line 96 in file "TAD_SERIAL.c"
  2338 ;; Parameters:    Size  Location     Type
  2339 ;;  b               1    0[COMRAM] PTR unsigned char 
  2340 ;;		 -> Motor_Serial@aux(1), 
  2341 ;; Auto vars:     Size  Location     Type
  2342 ;;		None
  2343 ;; Return value:  Size  Location     Type
  2344 ;;                  1    wreg      unsigned char 
  2345 ;; Registers used:
  2346 ;;		wreg, fsr2l, fsr2h, status,2
  2347 ;; Tracked objects:
  2348 ;;		On entry : 0/0
  2349 ;;		On exit  : 0/0
  2350 ;;		Unchanged: 0/0
  2351 ;; Data sizes:     COMRAM   BANK0   BANK1
  2352 ;;      Params:         1       0       0
  2353 ;;      Locals:         0       0       0
  2354 ;;      Temps:          0       0       0
  2355 ;;      Totals:         1       0       0
  2356 ;;Total ram usage:        1 bytes
  2357 ;; Hardware stack levels used: 1
  2358 ;; Hardware stack levels required when called: 2
  2359 ;; This function calls:
  2360 ;;		Nothing
  2361 ;; This function is called by:
  2362 ;;		_Motor_Serial
  2363 ;; This function uses a non-reentrant model
  2364 ;;
  2365                           
  2366                           	psect	text6
  2367   000790                     __ptext6:
  2368                           	callstack 0
  2369   000790                     _SERIAL_ReadByte:
  2370                           	callstack 27
  2371                           
  2372                           ;TAD_SERIAL.c: 97:     if (PIR1bits.RCIF == 0) return 0;
  2373                           
  2374                           ;incstack = 0
  2375   000790  BA9E               	btfsc	158,5,c	;volatile
  2376   000792  D002               	goto	l266
  2377   000794                     u520:
  2378   000794  0E00               	movlw	0
  2379   000796  0012               	return	
  2380   000798                     l266:
  2381                           
  2382                           ;TAD_SERIAL.c: 100:     if (RCSTAbits.OERR) {
  2383   000798  A2AB               	btfss	171,1,c	;volatile
  2384   00079A  D002               	goto	l1545
  2385                           
  2386                           ;TAD_SERIAL.c: 101:         RCSTAbits.CREN = 0;
  2387   00079C  98AB               	bcf	171,4,c	;volatile
  2388                           
  2389                           ;TAD_SERIAL.c: 102:         RCSTAbits.CREN = 1;
  2390   00079E  88AB               	bsf	171,4,c	;volatile
  2391   0007A0                     l1545:
  2392                           
  2393                           ;TAD_SERIAL.c: 105:     *b = RCREG;
  2394   0007A0  505B               	movf	SERIAL_ReadByte@b^0,w,c
  2395   0007A2  6ED9               	movwf	fsr2l,c
  2396   0007A4  6ADA               	clrf	fsr2h,c
  2397   0007A6  CFAE FFDF          	movff	4014,indf2	;volatile
  2398                           
  2399                           ;TAD_SERIAL.c: 108:     if (RCSTAbits.FERR) return 0;
  2400   0007AA  B4AB               	btfsc	171,2,c	;volatile
  2401   0007AC  D7F3               	goto	u520
  2402                           
  2403                           ;TAD_SERIAL.c: 110:     return 1;
  2404   0007AE  0E01               	movlw	1
  2405   0007B0  0012               	return		;funcret
  2406   0007B2                     __end_of_SERIAL_ReadByte:
  2407                           	callstack 0
  2408                           
  2409 ;; *************** function _LDR_Init *****************
  2410 ;; Defined at:
  2411 ;;		line 13 in file "TAD_LDR.c"
  2412 ;; Parameters:    Size  Location     Type
  2413 ;;		None
  2414 ;; Auto vars:     Size  Location     Type
  2415 ;;		None
  2416 ;; Return value:  Size  Location     Type
  2417 ;;                  1    wreg      void 
  2418 ;; Registers used:
  2419 ;;		wreg, fsr2l, fsr2h, status,2, status,0, prodl, prodh, cstack
  2420 ;; Tracked objects:
  2421 ;;		On entry : 0/0
  2422 ;;		On exit  : 0/0
  2423 ;;		Unchanged: 0/0
  2424 ;; Data sizes:     COMRAM   BANK0   BANK1
  2425 ;;      Params:         0       0       0
  2426 ;;      Locals:         0       0       0
  2427 ;;      Temps:          0       0       0
  2428 ;;      Totals:         0       0       0
  2429 ;;Total ram usage:        0 bytes
  2430 ;; Hardware stack levels used: 1
  2431 ;; Hardware stack levels required when called: 3
  2432 ;; This function calls:
  2433 ;;		_TI_NewTimer
  2434 ;; This function is called by:
  2435 ;;		_main
  2436 ;; This function uses a non-reentrant model
  2437 ;;
  2438                           
  2439                           	psect	text7
  2440   000878                     __ptext7:
  2441                           	callstack 0
  2442   000878                     _LDR_Init:
  2443                           	callstack 27
  2444                           
  2445                           ;TAD_LDR.c: 14:     TI_NewTimer(&timerLDR);
  2446                           
  2447                           ;incstack = 0
  2448   000878  0E59               	movlw	low _timerLDR
  2449   00087A  6E5B               	movwf	TI_NewTimer@TimerHandle^0,c
  2450   00087C  EC4F  F003         	call	_TI_NewTimer	;wreg free
  2451   000880  0012               	return		;funcret
  2452   000882                     __end_of_LDR_Init:
  2453                           	callstack 0
  2454                           
  2455 ;; *************** function _HREATBEAT_Init *****************
  2456 ;; Defined at:
  2457 ;;		line 15 in file "TAD_HEARTBEAT.c"
  2458 ;; Parameters:    Size  Location     Type
  2459 ;;		None
  2460 ;; Auto vars:     Size  Location     Type
  2461 ;;		None
  2462 ;; Return value:  Size  Location     Type
  2463 ;;                  1    wreg      void 
  2464 ;; Registers used:
  2465 ;;		wreg, fsr2l, fsr2h, status,2, status,0, prodl, prodh, cstack
  2466 ;; Tracked objects:
  2467 ;;		On entry : 0/0
  2468 ;;		On exit  : 0/0
  2469 ;;		Unchanged: 0/0
  2470 ;; Data sizes:     COMRAM   BANK0   BANK1
  2471 ;;      Params:         0       0       0
  2472 ;;      Locals:         0       0       0
  2473 ;;      Temps:          0       0       0
  2474 ;;      Totals:         0       0       0
  2475 ;;Total ram usage:        0 bytes
  2476 ;; Hardware stack levels used: 1
  2477 ;; Hardware stack levels required when called: 3
  2478 ;; This function calls:
  2479 ;;		_TI_NewTimer
  2480 ;; This function is called by:
  2481 ;;		_main
  2482 ;; This function uses a non-reentrant model
  2483 ;;
  2484                           
  2485                           	psect	text8
  2486   000882                     __ptext8:
  2487                           	callstack 0
  2488   000882                     _HREATBEAT_Init:
  2489                           	callstack 27
  2490                           
  2491                           ;TAD_HEARTBEAT.c: 16:     TI_NewTimer(&timerDutyCycle);
  2492                           
  2493                           ;incstack = 0
  2494   000882  0E58               	movlw	low _timerDutyCycle
  2495   000884  6E5B               	movwf	TI_NewTimer@TimerHandle^0,c
  2496   000886  EC4F  F003         	call	_TI_NewTimer	;wreg free
  2497   00088A  0012               	return		;funcret
  2498   00088C                     __end_of_HREATBEAT_Init:
  2499                           	callstack 0
  2500                           
  2501 ;; *************** function _HEARTBEAT_Motor *****************
  2502 ;; Defined at:
  2503 ;;		line 28 in file "TAD_HEARTBEAT.c"
  2504 ;; Parameters:    Size  Location     Type
  2505 ;;		None
  2506 ;; Auto vars:     Size  Location     Type
  2507 ;;		None
  2508 ;; Return value:  Size  Location     Type
  2509 ;;                  1    wreg      void 
  2510 ;; Registers used:
  2511 ;;		wreg, fsr2l, fsr2h, status,2, status,0, prodl, prodh, cstack
  2512 ;; Tracked objects:
  2513 ;;		On entry : 0/0
  2514 ;;		On exit  : 0/0
  2515 ;;		Unchanged: 0/0
  2516 ;; Data sizes:     COMRAM   BANK0   BANK1
  2517 ;;      Params:         0       0       0
  2518 ;;      Locals:         0       0       0
  2519 ;;      Temps:          5       0       0
  2520 ;;      Totals:         5       0       0
  2521 ;;Total ram usage:        5 bytes
  2522 ;; Hardware stack levels used: 1
  2523 ;; Hardware stack levels required when called: 3
  2524 ;; This function calls:
  2525 ;;		_TI_GetTics
  2526 ;;		_TI_ResetTics
  2527 ;; This function is called by:
  2528 ;;		_main
  2529 ;; This function uses a non-reentrant model
  2530 ;;
  2531                           
  2532                           	psect	text9
  2533   0005CC                     __ptext9:
  2534                           	callstack 0
  2535   0005CC                     _HEARTBEAT_Motor:
  2536                           	callstack 27
  2537                           
  2538                           ;TAD_HEARTBEAT.c: 30:     switch(estado){
  2539                           
  2540                           ;incstack = 0
  2541   0005CC  D037               	goto	l1743
  2542   0005CE                     l446:
  2543                           
  2544                           ;TAD_HEARTBEAT.c: 32:             LATAbits.LA3 = 0;
  2545   0005CE  9689               	bcf	137,3,c	;volatile
  2546                           
  2547                           ;TAD_HEARTBEAT.c: 33:             break;
  2548   0005D0  0012               	return	
  2549   0005D2                     l1721:
  2550                           
  2551                           ;TAD_HEARTBEAT.c: 35:             TI_ResetTics(timerDutyCycle);
  2552   0005D2  5058               	movf	_timerDutyCycle^0,w,c
  2553   0005D4  ECB6  F003         	call	_TI_ResetTics
  2554                           
  2555                           ;TAD_HEARTBEAT.c: 36:             LATAbits.LA3 = 1;
  2556   0005D8  8689               	bsf	137,3,c	;volatile
  2557                           
  2558                           ;TAD_HEARTBEAT.c: 37:             estado++;
  2559   0005DA  2A71               	incf	_estado@TAD_HEARTBEAT$F793^0,f,c
  2560                           
  2561                           ;TAD_HEARTBEAT.c: 38:             break;
  2562   0005DC  0012               	return	
  2563   0005DE                     l1727:
  2564                           
  2565                           ;TAD_HEARTBEAT.c: 40:             if(TI_GetTics(timerDutyCycle) >= dutyCycle[indice]){
  2566   0005DE  5044               	movf	_indice@TAD_HEARTBEAT$F792^0,w,c
  2567   0005E0  0F6D               	addlw	low _dutyCycle
  2568   0005E2  6ED9               	movwf	fsr2l,c
  2569   0005E4  6ADA               	clrf	fsr2h,c
  2570   0005E6  50DF               	movf	indf2,w,c
  2571   0005E8  6E68               	movwf	??_HEARTBEAT_Motor^0,c
  2572   0005EA  C068  F069         	movff	??_HEARTBEAT_Motor,??_HEARTBEAT_Motor+1
  2573   0005EE  6A6A               	clrf	(??_HEARTBEAT_Motor+2)^0,c
  2574   0005F0  6A6B               	clrf	(??_HEARTBEAT_Motor+3)^0,c
  2575   0005F2  6A6C               	clrf	(??_HEARTBEAT_Motor+4)^0,c
  2576   0005F4  5058               	movf	_timerDutyCycle^0,w,c
  2577   0005F6  EC29  F003         	call	_TI_GetTics
  2578   0005FA  5069               	movf	(??_HEARTBEAT_Motor+1)^0,w,c
  2579   0005FC  5C5B               	subwf	?_TI_GetTics^0,w,c
  2580   0005FE  506A               	movf	(??_HEARTBEAT_Motor+2)^0,w,c
  2581   000600  585C               	subwfb	(?_TI_GetTics+1)^0,w,c
  2582   000602  506B               	movf	(??_HEARTBEAT_Motor+3)^0,w,c
  2583   000604  585D               	subwfb	(?_TI_GetTics+2)^0,w,c
  2584   000606  506C               	movf	(??_HEARTBEAT_Motor+4)^0,w,c
  2585   000608  585E               	subwfb	(?_TI_GetTics+3)^0,w,c
  2586   00060A  A0D8               	btfss	status,0,c
  2587   00060C  D008               	goto	l1737
  2588                           
  2589                           ;TAD_HEARTBEAT.c: 41:                 LATAbits.LA3 = 0;
  2590   00060E  9689               	bcf	137,3,c	;volatile
  2591                           
  2592                           ;TAD_HEARTBEAT.c: 42:                 if(indice == 3){
  2593   000610  0E03               	movlw	3
  2594   000612  1844               	xorwf	_indice@TAD_HEARTBEAT$F792^0,w,c
  2595   000614  A4D8               	btfss	status,2,c
  2596   000616  D002               	goto	l1735
  2597                           
  2598                           ;TAD_HEARTBEAT.c: 43:                     indice = 0;
  2599   000618  6A44               	clrf	_indice@TAD_HEARTBEAT$F792^0,c
  2600                           
  2601                           ;TAD_HEARTBEAT.c: 44:                 }else{
  2602   00061A  D001               	goto	l1737
  2603   00061C                     l1735:
  2604                           
  2605                           ;TAD_HEARTBEAT.c: 45:                     indice++;
  2606   00061C  2A44               	incf	_indice@TAD_HEARTBEAT$F792^0,f,c
  2607   00061E                     l1737:
  2608                           
  2609                           ;TAD_HEARTBEAT.c: 48:             if(TI_GetTics(timerDutyCycle) >= 500){
  2610   00061E  5058               	movf	_timerDutyCycle^0,w,c
  2611   000620  EC29  F003         	call	_TI_GetTics
  2612   000624  505E               	movf	(?_TI_GetTics+3)^0,w,c
  2613   000626  105D               	iorwf	(?_TI_GetTics+2)^0,w,c
  2614   000628  E106               	bnz	u890
  2615   00062A  0EF4               	movlw	244
  2616   00062C  5C5B               	subwf	?_TI_GetTics^0,w,c
  2617   00062E  0E01               	movlw	1
  2618   000630  585C               	subwfb	(?_TI_GetTics+1)^0,w,c
  2619   000632  A0D8               	btfss	status,0,c
  2620   000634  0012               	return	
  2621   000636                     u890:
  2622                           
  2623                           ;TAD_HEARTBEAT.c: 49:                 estado = 1;
  2624   000636  0E01               	movlw	1
  2625   000638  6E71               	movwf	_estado@TAD_HEARTBEAT$F793^0,c
  2626   00063A  0012               	return	
  2627   00063C                     l1743:
  2628   00063C  5071               	movf	_estado@TAD_HEARTBEAT$F793^0,w,c
  2629                           
  2630                           ; Switch size 1, requested type "simple"
  2631                           ; Number of cases is 3, Range of values is 0 to 2
  2632                           ; switch strategies available:
  2633                           ; Name         Instructions Cycles
  2634                           ; simple_byte           10     6 (average)
  2635                           ;	Chosen strategy is simple_byte
  2636   00063E  0A00               	xorlw	0	; case 0
  2637   000640  B4D8               	btfsc	status,2,c
  2638   000642  D7C5               	goto	l446
  2639   000644  0A01               	xorlw	1	; case 1
  2640   000646  B4D8               	btfsc	status,2,c
  2641   000648  D7C4               	goto	l1721
  2642   00064A  0A03               	xorlw	3	; case 2
  2643   00064C  A4D8               	btfss	status,2,c
  2644   00064E  0012               	return	
  2645   000650  D7C6               	goto	l1727
  2646   000652                     __end_of_HEARTBEAT_Motor:
  2647                           	callstack 0
  2648                           
  2649 ;; *************** function _DSP_Motor *****************
  2650 ;; Defined at:
  2651 ;;		line 38 in file "TAD_DISPLAY.c"
  2652 ;; Parameters:    Size  Location     Type
  2653 ;;		None
  2654 ;; Auto vars:     Size  Location     Type
  2655 ;;		None
  2656 ;; Return value:  Size  Location     Type
  2657 ;;                  1    wreg      void 
  2658 ;; Registers used:
  2659 ;;		wreg, fsr2l, fsr2h, status,2, status,0, tblptrl, tblptrh, tblptru, prodl, prodh, cstack
  2660 ;; Tracked objects:
  2661 ;;		On entry : 0/0
  2662 ;;		On exit  : 0/0
  2663 ;;		Unchanged: 0/0
  2664 ;; Data sizes:     COMRAM   BANK0   BANK1
  2665 ;;      Params:         0       0       0
  2666 ;;      Locals:         0       0       0
  2667 ;;      Temps:          2       0       0
  2668 ;;      Totals:         2       0       0
  2669 ;;Total ram usage:        2 bytes
  2670 ;; Hardware stack levels used: 1
  2671 ;; Hardware stack levels required when called: 3
  2672 ;; This function calls:
  2673 ;;		_ADC_ExistValue
  2674 ;;		_ADC_GetX
  2675 ;;		_ADC_GetY
  2676 ;;		_SERIAL_PutString
  2677 ;;		_TI_GetTics
  2678 ;;		_TI_ResetTics
  2679 ;; This function is called by:
  2680 ;;		_main
  2681 ;; This function uses a non-reentrant model
  2682 ;;
  2683                           
  2684                           	psect	text10
  2685   0002C8                     __ptext10:
  2686                           	callstack 0
  2687   0002C8                     _DSP_Motor:
  2688                           	callstack 27
  2689                           
  2690                           ;TAD_DISPLAY.c: 39:     static unsigned char estado = 0;;TAD_DISPLAY.c: 40:     static u
      +                          nsigned char i;;TAD_DISPLAY.c: 42:     switch(estado){
  2691                           
  2692                           ;incstack = 0
  2693   0002C8  D0A4               	goto	l1653
  2694   0002CA                     l1567:
  2695                           
  2696                           ;TAD_DISPLAY.c: 44:             if(ADC_ExistValue()){
  2697   0002CA  EC2F  F004         	call	_ADC_ExistValue	;wreg free
  2698   0002CE  0900               	iorlw	0
  2699   0002D0  B4D8               	btfsc	status,2,c
  2700   0002D2  0012               	return	
  2701                           
  2702                           ;TAD_DISPLAY.c: 45:                 valorX = ADC_GetX();
  2703   0002D4  EC4B  F004         	call	_ADC_GetX	;wreg free
  2704   0002D8  C05B  F03B         	movff	?_ADC_GetX,_valorX
  2705   0002DC  C05C  F03C         	movff	?_ADC_GetX+1,_valorX+1
  2706                           
  2707                           ;TAD_DISPLAY.c: 46:                 valorY = ADC_GetY();
  2708   0002E0  EC46  F004         	call	_ADC_GetY	;wreg free
  2709   0002E4  C05B  F039         	movff	?_ADC_GetY,_valorY
  2710   0002E8  C05C  F03A         	movff	?_ADC_GetY+1,_valorY+1
  2711                           
  2712                           ;TAD_DISPLAY.c: 47:                 i = 0;
  2713   0002EC  6A52               	clrf	DSP_Motor@i^0,c
  2714   0002EE                     l1573:
  2715                           
  2716                           ;TAD_DISPLAY.c: 48:                 estado++;
  2717   0002EE  2A53               	incf	DSP_Motor@estado^0,f,c
  2718                           
  2719                           ;TAD_DISPLAY.c: 50:             break;
  2720                           
  2721                           ;TAD_DISPLAY.c: 49:             }
  2722   0002F0  0012               	return	
  2723   0002F2                     l1575:
  2724                           
  2725                           ;TAD_DISPLAY.c: 52:             if(i == 7){
  2726   0002F2  0E07               	movlw	7
  2727   0002F4  1852               	xorwf	DSP_Motor@i^0,w,c
  2728   0002F6  B4D8               	btfsc	status,2,c
  2729   0002F8  D7FA               	goto	l1573
  2730                           
  2731                           ;TAD_DISPLAY.c: 55:                 i++;
  2732   0002FA  2A52               	incf	DSP_Motor@i^0,f,c
  2733                           
  2734                           ;TAD_DISPLAY.c: 56:                 valorX = valorX >> 1;
  2735   0002FC  90D8               	bcf	status,0,c
  2736   0002FE  303C               	rrcf	(_valorX+1)^0,w,c
  2737   000300  6E68               	movwf	??_DSP_Motor^0,c
  2738   000302  303B               	rrcf	_valorX^0,w,c
  2739   000304  6E3B               	movwf	_valorX^0,c
  2740   000306  C068  F03C         	movff	??_DSP_Motor,_valorX+1
  2741                           
  2742                           ;TAD_DISPLAY.c: 57:                 valorY = valorY >> 1;
  2743   00030A  90D8               	bcf	status,0,c
  2744   00030C  303A               	rrcf	(_valorY+1)^0,w,c
  2745   00030E  6E68               	movwf	??_DSP_Motor^0,c
  2746   000310  3039               	rrcf	_valorY^0,w,c
  2747   000312  6E39               	movwf	_valorY^0,c
  2748   000314  C068  F03A         	movff	??_DSP_Motor,_valorY+1
  2749   000318  0012               	return	
  2750   00031A                     l1585:
  2751                           
  2752                           ;TAD_DISPLAY.c: 61:             valorX = valorX & 0x07;
  2753   00031A  0E07               	movlw	7
  2754   00031C  143B               	andwf	_valorX^0,w,c
  2755   00031E  6E3B               	movwf	_valorX^0,c
  2756   000320  6A3C               	clrf	(_valorX+1)^0,c
  2757                           
  2758                           ;TAD_DISPLAY.c: 62:             valorY = valorY & 0x07;
  2759   000322  0E07               	movlw	7
  2760   000324  1439               	andwf	_valorY^0,w,c
  2761   000326  6E39               	movwf	_valorY^0,c
  2762   000328  6A3A               	clrf	(_valorY+1)^0,c
  2763                           
  2764                           ;TAD_DISPLAY.c: 64:             if(flagRebotes == 0){
  2765   00032A  5054               	movf	_flagRebotes^0,w,c
  2766   00032C  A4D8               	btfss	status,2,c
  2767   00032E  D042               	goto	l1627
  2768                           
  2769                           ;TAD_DISPLAY.c: 66:                 if(!PORTBbits.RB2){
  2770   000330  B481               	btfsc	129,2,c	;volatile
  2771   000332  D006               	goto	l157
  2772                           
  2773                           ;TAD_DISPLAY.c: 68:                     TI_ResetTics(timerRebotes);
  2774   000334  505A               	movf	_timerRebotes^0,w,c
  2775   000336  ECB6  F003         	call	_TI_ResetTics
  2776                           
  2777                           ;TAD_DISPLAY.c: 69:                     flagRebotes = 2;
  2778   00033A  0E02               	movlw	2
  2779   00033C  6E54               	movwf	_flagRebotes^0,c
  2780                           
  2781                           ;TAD_DISPLAY.c: 71:                 } else {
  2782   00033E  0012               	return	
  2783   000340                     l157:
  2784                           
  2785                           ;TAD_DISPLAY.c: 72:                     estado = 0;
  2786   000340  6A53               	clrf	DSP_Motor@estado^0,c
  2787                           
  2788                           ;TAD_DISPLAY.c: 75:                     if(valorX == 0){
  2789   000342  503B               	movf	_valorX^0,w,c
  2790   000344  103C               	iorwf	(_valorX+1)^0,w,c
  2791   000346  A4D8               	btfss	status,2,c
  2792   000348  D008               	goto	l1603
  2793                           
  2794                           ;TAD_DISPLAY.c: 77:                         if(lastDirX != 0){
  2795   00034A  5073               	movf	_lastDirX^0,w,c
  2796   00034C  B4D8               	btfsc	status,2,c
  2797   00034E  D015               	goto	l1611
  2798                           
  2799                           ;TAD_DISPLAY.c: 78:                             SERIAL_PutString(3);
  2800   000350  0E03               	movlw	3
  2801   000352  ECF5  F003         	call	_SERIAL_PutString
  2802                           
  2803                           ;TAD_DISPLAY.c: 79:                             lastDirX = 0;
  2804   000356  6A73               	clrf	_lastDirX^0,c
  2805   000358  D010               	goto	l1611
  2806   00035A                     l1603:
  2807   00035A  0E07               	movlw	7
  2808   00035C  183B               	xorwf	_valorX^0,w,c
  2809   00035E  103C               	iorwf	(_valorX+1)^0,w,c
  2810   000360  A4D8               	btfss	status,2,c
  2811   000362  D00A               	goto	l162
  2812                           
  2813                           ;TAD_DISPLAY.c: 83:                         if(lastDirX != 7){
  2814   000364  0E07               	movlw	7
  2815   000366  1873               	xorwf	_lastDirX^0,w,c
  2816   000368  B4D8               	btfsc	status,2,c
  2817   00036A  D007               	goto	l1611
  2818                           
  2819                           ;TAD_DISPLAY.c: 84:                             SERIAL_PutString(2);
  2820   00036C  0E02               	movlw	2
  2821   00036E  ECF5  F003         	call	_SERIAL_PutString
  2822                           
  2823                           ;TAD_DISPLAY.c: 85:                             lastDirX = 7;
  2824   000372  0E07               	movlw	7
  2825   000374  6E73               	movwf	_lastDirX^0,c
  2826   000376  D001               	goto	l1611
  2827   000378                     l162:
  2828                           
  2829                           ;TAD_DISPLAY.c: 88:                         lastDirX = 0xFF;
  2830   000378  6873               	setf	_lastDirX^0,c
  2831   00037A                     l1611:
  2832                           
  2833                           ;TAD_DISPLAY.c: 92:                     if(valorY == 0){
  2834   00037A  5039               	movf	_valorY^0,w,c
  2835   00037C  103A               	iorwf	(_valorY+1)^0,w,c
  2836   00037E  A4D8               	btfss	status,2,c
  2837   000380  D008               	goto	l1619
  2838                           
  2839                           ;TAD_DISPLAY.c: 94:                         if(lastDirY != 0){
  2840   000382  5072               	movf	_lastDirY^0,w,c
  2841   000384  B4D8               	btfsc	status,2,c
  2842   000386  0012               	return	
  2843                           
  2844                           ;TAD_DISPLAY.c: 95:                             SERIAL_PutString(1);
  2845   000388  0E01               	movlw	1
  2846   00038A  ECF5  F003         	call	_SERIAL_PutString
  2847                           
  2848                           ;TAD_DISPLAY.c: 96:                             lastDirY = 0;
  2849   00038E  6A72               	clrf	_lastDirY^0,c
  2850   000390  0012               	return	
  2851   000392                     l1619:
  2852   000392  0E07               	movlw	7
  2853   000394  1839               	xorwf	_valorY^0,w,c
  2854   000396  103A               	iorwf	(_valorY+1)^0,w,c
  2855   000398  A4D8               	btfss	status,2,c
  2856   00039A  D00A               	goto	l168
  2857                           
  2858                           ;TAD_DISPLAY.c: 100:                         if(lastDirY != 7){
  2859   00039C  0E07               	movlw	7
  2860   00039E  1872               	xorwf	_lastDirY^0,w,c
  2861   0003A0  B4D8               	btfsc	status,2,c
  2862   0003A2  0012               	return	
  2863                           
  2864                           ;TAD_DISPLAY.c: 101:                             SERIAL_PutString(0);
  2865   0003A4  0E00               	movlw	0
  2866   0003A6  ECF5  F003         	call	_SERIAL_PutString
  2867                           
  2868                           ;TAD_DISPLAY.c: 102:                             lastDirY = 7;
  2869   0003AA  0E07               	movlw	7
  2870   0003AC  6E72               	movwf	_lastDirY^0,c
  2871   0003AE  0012               	return	
  2872   0003B0                     l168:
  2873                           
  2874                           ;TAD_DISPLAY.c: 105:                         lastDirY = 0xFF;
  2875   0003B0  6872               	setf	_lastDirY^0,c
  2876   0003B2  0012               	return	
  2877   0003B4                     l1627:
  2878   0003B4  0E02               	movlw	2
  2879   0003B6  1854               	xorwf	_flagRebotes^0,w,c
  2880   0003B8  A4D8               	btfss	status,2,c
  2881   0003BA  0012               	return	
  2882                           
  2883                           ;TAD_DISPLAY.c: 111:                 if(TI_GetTics(timerRebotes) >= 16){
  2884   0003BC  505A               	movf	_timerRebotes^0,w,c
  2885   0003BE  EC29  F003         	call	_TI_GetTics
  2886   0003C2  505E               	movf	(?_TI_GetTics+3)^0,w,c
  2887   0003C4  105D               	iorwf	(?_TI_GetTics+2)^0,w,c
  2888   0003C6  105C               	iorwf	(?_TI_GetTics+1)^0,w,c
  2889   0003C8  E104               	bnz	u680
  2890   0003CA  0E10               	movlw	16
  2891   0003CC  5C5B               	subwf	?_TI_GetTics^0,w,c
  2892   0003CE  A0D8               	btfss	status,0,c
  2893   0003D0  0012               	return	
  2894   0003D2                     u680:
  2895                           
  2896                           ;TAD_DISPLAY.c: 112:                     if(!PORTBbits.RB2){
  2897   0003D2  B481               	btfsc	129,2,c	;volatile
  2898   0003D4  D006               	goto	l174
  2899                           
  2900                           ;TAD_DISPLAY.c: 114:                         SERIAL_PutString(4);
  2901   0003D6  0E04               	movlw	4
  2902   0003D8  ECF5  F003         	call	_SERIAL_PutString
  2903                           
  2904                           ;TAD_DISPLAY.c: 115:                         flagRebotes = 1;
  2905   0003DC  0E01               	movlw	1
  2906   0003DE  6E54               	movwf	_flagRebotes^0,c
  2907   0003E0  D786               	goto	l1573
  2908   0003E2                     l174:
  2909                           
  2910                           ;TAD_DISPLAY.c: 120:                         flagRebotes = 0;
  2911   0003E2  6A54               	clrf	_flagRebotes^0,c
  2912                           
  2913                           ;TAD_DISPLAY.c: 121:                         estado = 0;
  2914   0003E4  6A53               	clrf	DSP_Motor@estado^0,c
  2915   0003E6  0012               	return	
  2916   0003E8                     l176:
  2917                           
  2918                           ;TAD_DISPLAY.c: 128:             if(PORTBbits.RB2){
  2919   0003E8  A481               	btfss	129,2,c	;volatile
  2920   0003EA  0012               	return	
  2921                           
  2922                           ;TAD_DISPLAY.c: 129:                 TI_ResetTics(timerRebotes);
  2923   0003EC  505A               	movf	_timerRebotes^0,w,c
  2924   0003EE  ECB6  F003         	call	_TI_ResetTics
  2925   0003F2  D77D               	goto	l1573
  2926   0003F4                     l1643:
  2927                           
  2928                           ;TAD_DISPLAY.c: 134:             if(TI_GetTics(timerRebotes) >= 16){
  2929   0003F4  505A               	movf	_timerRebotes^0,w,c
  2930   0003F6  EC29  F003         	call	_TI_GetTics
  2931   0003FA  505E               	movf	(?_TI_GetTics+3)^0,w,c
  2932   0003FC  105D               	iorwf	(?_TI_GetTics+2)^0,w,c
  2933   0003FE  105C               	iorwf	(?_TI_GetTics+1)^0,w,c
  2934   000400  E104               	bnz	u710
  2935   000402  0E10               	movlw	16
  2936   000404  5C5B               	subwf	?_TI_GetTics^0,w,c
  2937   000406  A0D8               	btfss	status,0,c
  2938   000408  0012               	return	
  2939   00040A                     u710:
  2940                           
  2941                           ;TAD_DISPLAY.c: 135:                 if(PORTBbits.RB2){
  2942   00040A  B481               	btfsc	129,2,c	;volatile
  2943   00040C  D7EA               	goto	l174
  2944                           
  2945                           ;TAD_DISPLAY.c: 141:                     estado--;
  2946   00040E  0653               	decf	DSP_Motor@estado^0,f,c
  2947   000410  0012               	return	
  2948   000412                     l1653:
  2949   000412  5053               	movf	DSP_Motor@estado^0,w,c
  2950                           
  2951                           ; Switch size 1, requested type "simple"
  2952                           ; Number of cases is 5, Range of values is 0 to 4
  2953                           ; switch strategies available:
  2954                           ; Name         Instructions Cycles
  2955                           ; simple_byte           16     9 (average)
  2956                           ;	Chosen strategy is simple_byte
  2957   000414  0A00               	xorlw	0	; case 0
  2958   000416  B4D8               	btfsc	status,2,c
  2959   000418  D758               	goto	l1567
  2960   00041A  0A01               	xorlw	1	; case 1
  2961   00041C  B4D8               	btfsc	status,2,c
  2962   00041E  D769               	goto	l1575
  2963   000420  0A03               	xorlw	3	; case 2
  2964   000422  B4D8               	btfsc	status,2,c
  2965   000424  D77A               	goto	l1585
  2966   000426  0A01               	xorlw	1	; case 3
  2967   000428  B4D8               	btfsc	status,2,c
  2968   00042A  D7DE               	goto	l176
  2969   00042C  0A07               	xorlw	7	; case 4
  2970   00042E  A4D8               	btfss	status,2,c
  2971   000430  0012               	return	
  2972   000432  D7E0               	goto	l1643
  2973   000434                     __end_of_DSP_Motor:
  2974                           	callstack 0
  2975                           
  2976 ;; *************** function _TI_ResetTics *****************
  2977 ;; Defined at:
  2978 ;;		line 44 in file "TAD_TIMER.c"
  2979 ;; Parameters:    Size  Location     Type
  2980 ;;  TimerHandle     1    wreg     unsigned char 
  2981 ;; Auto vars:     Size  Location     Type
  2982 ;;  TimerHandle     1    0[COMRAM] unsigned char 
  2983 ;; Return value:  Size  Location     Type
  2984 ;;                  1    wreg      void 
  2985 ;; Registers used:
  2986 ;;		wreg, fsr2l, fsr2h, status,2, status,0, prodl, prodh
  2987 ;; Tracked objects:
  2988 ;;		On entry : 0/0
  2989 ;;		On exit  : 0/0
  2990 ;;		Unchanged: 0/0
  2991 ;; Data sizes:     COMRAM   BANK0   BANK1
  2992 ;;      Params:         0       0       0
  2993 ;;      Locals:         1       0       0
  2994 ;;      Temps:          0       0       0
  2995 ;;      Totals:         1       0       0
  2996 ;;Total ram usage:        1 bytes
  2997 ;; Hardware stack levels used: 1
  2998 ;; Hardware stack levels required when called: 2
  2999 ;; This function calls:
  3000 ;;		Nothing
  3001 ;; This function is called by:
  3002 ;;		_DSP_Motor
  3003 ;;		_HEARTBEAT_Motor
  3004 ;; This function uses a non-reentrant model
  3005 ;;
  3006                           
  3007                           	psect	text11
  3008   00076C                     __ptext11:
  3009                           	callstack 0
  3010   00076C                     _TI_ResetTics:
  3011                           	callstack 27
  3012                           
  3013                           ;incstack = 0
  3014                           ;TI_ResetTics@TimerHandle stored from wreg
  3015   00076C  6E5B               	movwf	TI_ResetTics@TimerHandle^0,c
  3016                           
  3017                           ;TAD_TIMER.c: 45:  (INTCONbits.GIE = 0); Timers[TimerHandle].TicsInicials=Tics; (INTCONb
      +                          its.GIE = 1);
  3018   00076E  9EF2               	bcf	242,7,c	;volatile
  3019   000770  505B               	movf	TI_ResetTics@TimerHandle^0,w,c
  3020   000772  0D05               	mullw	5
  3021   000774  50F3               	movf	243,w,c
  3022   000776  0F1F               	addlw	low _Timers
  3023   000778  6ED9               	movwf	fsr2l,c
  3024   00077A  6ADA               	clrf	fsr2h,c
  3025   00077C  C033  FFDE         	movff	_Tics,postinc2	;volatile
  3026   000780  C034  FFDE         	movff	_Tics+1,postinc2	;volatile
  3027   000784  C035  FFDE         	movff	_Tics+2,postinc2	;volatile
  3028   000788  C036  FFDE         	movff	_Tics+3,postinc2	;volatile
  3029   00078C  8EF2               	bsf	242,7,c	;volatile
  3030   00078E  0012               	return		;funcret
  3031   000790                     __end_of_TI_ResetTics:
  3032                           	callstack 0
  3033                           
  3034 ;; *************** function _TI_GetTics *****************
  3035 ;; Defined at:
  3036 ;;		line 49 in file "TAD_TIMER.c"
  3037 ;; Parameters:    Size  Location     Type
  3038 ;;  TimerHandle     1    wreg     unsigned char 
  3039 ;; Auto vars:     Size  Location     Type
  3040 ;;  TimerHandle     1   12[COMRAM] unsigned char 
  3041 ;;  CopiaTicsAct    4    8[COMRAM] unsigned long 
  3042 ;; Return value:  Size  Location     Type
  3043 ;;                  4    0[COMRAM] unsigned long 
  3044 ;; Registers used:
  3045 ;;		wreg, fsr2l, fsr2h, status,2, status,0, prodl, prodh
  3046 ;; Tracked objects:
  3047 ;;		On entry : 0/0
  3048 ;;		On exit  : 0/0
  3049 ;;		Unchanged: 0/0
  3050 ;; Data sizes:     COMRAM   BANK0   BANK1
  3051 ;;      Params:         4       0       0
  3052 ;;      Locals:         5       0       0
  3053 ;;      Temps:          4       0       0
  3054 ;;      Totals:        13       0       0
  3055 ;;Total ram usage:       13 bytes
  3056 ;; Hardware stack levels used: 1
  3057 ;; Hardware stack levels required when called: 2
  3058 ;; This function calls:
  3059 ;;		Nothing
  3060 ;; This function is called by:
  3061 ;;		_DSP_Motor
  3062 ;;		_HEARTBEAT_Motor
  3063 ;; This function uses a non-reentrant model
  3064 ;;
  3065                           
  3066                           	psect	text12
  3067   000652                     __ptext12:
  3068                           	callstack 0
  3069   000652                     _TI_GetTics:
  3070                           	callstack 27
  3071                           
  3072                           ;incstack = 0
  3073                           ;TI_GetTics@TimerHandle stored from wreg
  3074   000652  6E67               	movwf	TI_GetTics@TimerHandle^0,c
  3075                           
  3076                           ;TAD_TIMER.c: 50:     (INTCONbits.GIE = 0); unsigned long CopiaTicsActual=Tics; (INTCONb
      +                          its.GIE = 1);
  3077   000654  9EF2               	bcf	242,7,c	;volatile
  3078   000656  C033  F063         	movff	_Tics,TI_GetTics@CopiaTicsActual	;volatile
  3079   00065A  C034  F064         	movff	_Tics+1,TI_GetTics@CopiaTicsActual+1	;volatile
  3080   00065E  C035  F065         	movff	_Tics+2,TI_GetTics@CopiaTicsActual+2	;volatile
  3081   000662  C036  F066         	movff	_Tics+3,TI_GetTics@CopiaTicsActual+3	;volatile
  3082   000666  8EF2               	bsf	242,7,c	;volatile
  3083                           
  3084                           ;TAD_TIMER.c: 51:  return (CopiaTicsActual-(Timers[TimerHandle].TicsInicials));
  3085   000668  5067               	movf	TI_GetTics@TimerHandle^0,w,c
  3086   00066A  0D05               	mullw	5
  3087   00066C  50F3               	movf	243,w,c
  3088   00066E  0F1F               	addlw	low _Timers
  3089   000670  6ED9               	movwf	fsr2l,c
  3090   000672  6ADA               	clrf	fsr2h,c
  3091   000674  CFDE F05F          	movff	postinc2,??_TI_GetTics
  3092   000678  CFDE F060          	movff	postinc2,??_TI_GetTics+1
  3093   00067C  CFDE F061          	movff	postinc2,??_TI_GetTics+2
  3094   000680  CFDE F062          	movff	postinc2,??_TI_GetTics+3
  3095   000684  505F               	movf	??_TI_GetTics^0,w,c
  3096   000686  5C63               	subwf	TI_GetTics@CopiaTicsActual^0,w,c
  3097   000688  6E5B               	movwf	?_TI_GetTics^0,c
  3098   00068A  5060               	movf	(??_TI_GetTics+1)^0,w,c
  3099   00068C  5864               	subwfb	(TI_GetTics@CopiaTicsActual+1)^0,w,c
  3100   00068E  6E5C               	movwf	(?_TI_GetTics+1)^0,c
  3101   000690  5061               	movf	(??_TI_GetTics+2)^0,w,c
  3102   000692  5865               	subwfb	(TI_GetTics@CopiaTicsActual+2)^0,w,c
  3103   000694  6E5D               	movwf	(?_TI_GetTics+2)^0,c
  3104   000696  5062               	movf	(??_TI_GetTics+3)^0,w,c
  3105   000698  5866               	subwfb	(TI_GetTics@CopiaTicsActual+3)^0,w,c
  3106   00069A  6E5E               	movwf	(?_TI_GetTics+3)^0,c
  3107   00069C  0012               	return		;funcret
  3108   00069E                     __end_of_TI_GetTics:
  3109                           	callstack 0
  3110                           
  3111 ;; *************** function _SERIAL_PutString *****************
  3112 ;; Defined at:
  3113 ;;		line 87 in file "TAD_SERIAL.c"
  3114 ;; Parameters:    Size  Location     Type
  3115 ;;  s               1    wreg     unsigned char 
  3116 ;; Auto vars:     Size  Location     Type
  3117 ;;  s               1    1[COMRAM] unsigned char 
  3118 ;; Return value:  Size  Location     Type
  3119 ;;                  1    wreg      void 
  3120 ;; Registers used:
  3121 ;;		wreg, status,2, status,0, tblptrl, tblptrh, tblptru
  3122 ;; Tracked objects:
  3123 ;;		On entry : 0/0
  3124 ;;		On exit  : 0/0
  3125 ;;		Unchanged: 0/0
  3126 ;; Data sizes:     COMRAM   BANK0   BANK1
  3127 ;;      Params:         0       0       0
  3128 ;;      Locals:         1       0       0
  3129 ;;      Temps:          1       0       0
  3130 ;;      Totals:         2       0       0
  3131 ;;Total ram usage:        2 bytes
  3132 ;; Hardware stack levels used: 1
  3133 ;; Hardware stack levels required when called: 2
  3134 ;; This function calls:
  3135 ;;		Nothing
  3136 ;; This function is called by:
  3137 ;;		_DSP_Motor
  3138 ;; This function uses a non-reentrant model
  3139 ;;
  3140                           
  3141                           	psect	text13
  3142   0007EA                     __ptext13:
  3143                           	callstack 0
  3144   0007EA                     _SERIAL_PutString:
  3145                           	callstack 27
  3146                           
  3147                           ;incstack = 0
  3148                           ;SERIAL_PutString@s stored from wreg
  3149   0007EA  6E5C               	movwf	SERIAL_PutString@s^0,c
  3150                           
  3151                           ;TAD_SERIAL.c: 88:     pTxFrase = frases[s];
  3152   0007EC  505C               	movf	SERIAL_PutString@s^0,w,c
  3153   0007EE  0F09               	addlw	low _frases
  3154   0007F0  6E5B               	movwf	??_SERIAL_PutString^0,c
  3155   0007F2  C05B  FFF6         	movff	??_SERIAL_PutString,tblptrl
  3156   0007F6                     	if	1	;There is more than 1 active tblptr byte
  3157   0007F6  0E02               	movlw	high __psmallconst
  3158   0007F8  6EF7               	movwf	tblptrh,c
  3159   0007FA                     	endif
  3160   0007FA                     	if	0	;tblptru may be non-zero
  3161   0007FA                     	endif
  3162   0007FA                     	if	0	;tblptru may be non-zero
  3163   0007FA                     	endif
  3164   0007FA  0008               	tblrd		*
  3165   0007FC  CFF5 F047          	movff	tablat,_pTxFrase
  3166                           
  3167                           ;TAD_SERIAL.c: 89:     estado = 0;
  3168   000800  6A49               	clrf	_estado^0,c
  3169   000802  0012               	return		;funcret
  3170   000804                     __end_of_SERIAL_PutString:
  3171                           	callstack 0
  3172                           
  3173 ;; *************** function _ADC_GetY *****************
  3174 ;; Defined at:
  3175 ;;		line 33 in file "TAD_ADC.c"
  3176 ;; Parameters:    Size  Location     Type
  3177 ;;		None
  3178 ;; Auto vars:     Size  Location     Type
  3179 ;;		None
  3180 ;; Return value:  Size  Location     Type
  3181 ;;                  2    0[COMRAM] unsigned int 
  3182 ;; Registers used:
  3183 ;;		None
  3184 ;; Tracked objects:
  3185 ;;		On entry : 0/0
  3186 ;;		On exit  : 0/0
  3187 ;;		Unchanged: 0/0
  3188 ;; Data sizes:     COMRAM   BANK0   BANK1
  3189 ;;      Params:         2       0       0
  3190 ;;      Locals:         0       0       0
  3191 ;;      Temps:          0       0       0
  3192 ;;      Totals:         2       0       0
  3193 ;;Total ram usage:        2 bytes
  3194 ;; Hardware stack levels used: 1
  3195 ;; Hardware stack levels required when called: 2
  3196 ;; This function calls:
  3197 ;;		Nothing
  3198 ;; This function is called by:
  3199 ;;		_DSP_Motor
  3200 ;; This function uses a non-reentrant model
  3201 ;;
  3202                           
  3203                           	psect	text14
  3204   00088C                     __ptext14:
  3205                           	callstack 0
  3206   00088C                     _ADC_GetY:
  3207                           	callstack 27
  3208                           
  3209                           ;TAD_ADC.c: 34:     return valueY;
  3210                           
  3211                           ;incstack = 0
  3212   00088C  C03F  F05B         	movff	_valueY,?_ADC_GetY
  3213   000890  C040  F05C         	movff	_valueY+1,?_ADC_GetY+1
  3214   000894  0012               	return		;funcret
  3215   000896                     __end_of_ADC_GetY:
  3216                           	callstack 0
  3217                           
  3218 ;; *************** function _ADC_GetX *****************
  3219 ;; Defined at:
  3220 ;;		line 29 in file "TAD_ADC.c"
  3221 ;; Parameters:    Size  Location     Type
  3222 ;;		None
  3223 ;; Auto vars:     Size  Location     Type
  3224 ;;		None
  3225 ;; Return value:  Size  Location     Type
  3226 ;;                  2    0[COMRAM] unsigned int 
  3227 ;; Registers used:
  3228 ;;		None
  3229 ;; Tracked objects:
  3230 ;;		On entry : 0/0
  3231 ;;		On exit  : 0/0
  3232 ;;		Unchanged: 0/0
  3233 ;; Data sizes:     COMRAM   BANK0   BANK1
  3234 ;;      Params:         2       0       0
  3235 ;;      Locals:         0       0       0
  3236 ;;      Temps:          0       0       0
  3237 ;;      Totals:         2       0       0
  3238 ;;Total ram usage:        2 bytes
  3239 ;; Hardware stack levels used: 1
  3240 ;; Hardware stack levels required when called: 2
  3241 ;; This function calls:
  3242 ;;		Nothing
  3243 ;; This function is called by:
  3244 ;;		_DSP_Motor
  3245 ;; This function uses a non-reentrant model
  3246 ;;
  3247                           
  3248                           	psect	text15
  3249   000896                     __ptext15:
  3250                           	callstack 0
  3251   000896                     _ADC_GetX:
  3252                           	callstack 27
  3253                           
  3254                           ;TAD_ADC.c: 30:     return valueX;
  3255                           
  3256                           ;incstack = 0
  3257   000896  C041  F05B         	movff	_valueX,?_ADC_GetX
  3258   00089A  C042  F05C         	movff	_valueX+1,?_ADC_GetX+1
  3259   00089E  0012               	return		;funcret
  3260   0008A0                     __end_of_ADC_GetX:
  3261                           	callstack 0
  3262                           
  3263 ;; *************** function _ADC_ExistValue *****************
  3264 ;; Defined at:
  3265 ;;		line 17 in file "TAD_ADC.c"
  3266 ;; Parameters:    Size  Location     Type
  3267 ;;		None
  3268 ;; Auto vars:     Size  Location     Type
  3269 ;;		None
  3270 ;; Return value:  Size  Location     Type
  3271 ;;                  1    wreg      unsigned char 
  3272 ;; Registers used:
  3273 ;;		wreg, status,2, status,0
  3274 ;; Tracked objects:
  3275 ;;		On entry : 0/0
  3276 ;;		On exit  : 0/0
  3277 ;;		Unchanged: 0/0
  3278 ;; Data sizes:     COMRAM   BANK0   BANK1
  3279 ;;      Params:         0       0       0
  3280 ;;      Locals:         0       0       0
  3281 ;;      Temps:          0       0       0
  3282 ;;      Totals:         0       0       0
  3283 ;;Total ram usage:        0 bytes
  3284 ;; Hardware stack levels used: 1
  3285 ;; Hardware stack levels required when called: 2
  3286 ;; This function calls:
  3287 ;;		Nothing
  3288 ;; This function is called by:
  3289 ;;		_DSP_Motor
  3290 ;; This function uses a non-reentrant model
  3291 ;;
  3292                           
  3293                           	psect	text16
  3294   00085E                     __ptext16:
  3295                           	callstack 0
  3296   00085E                     _ADC_ExistValue:
  3297                           	callstack 27
  3298                           
  3299                           ;TAD_ADC.c: 18:     return dataReady == 1;
  3300                           
  3301                           ;incstack = 0
  3302   00085E  0456               	decf	_dataReady^0,w,c
  3303   000860  A4D8               	btfss	status,2,c
  3304   000862  D002               	goto	u10
  3305   000864  0E01               	movlw	1
  3306   000866  0012               	return	
  3307   000868                     u10:
  3308   000868  0E00               	movlw	0
  3309   00086A  0012               	return		;funcret
  3310   00086C                     __end_of_ADC_ExistValue:
  3311                           	callstack 0
  3312                           
  3313 ;; *************** function _DSP_Init *****************
  3314 ;; Defined at:
  3315 ;;		line 26 in file "TAD_DISPLAY.c"
  3316 ;; Parameters:    Size  Location     Type
  3317 ;;		None
  3318 ;; Auto vars:     Size  Location     Type
  3319 ;;		None
  3320 ;; Return value:  Size  Location     Type
  3321 ;;                  1    wreg      void 
  3322 ;; Registers used:
  3323 ;;		wreg, fsr2l, fsr2h, status,2, status,0, prodl, prodh, cstack
  3324 ;; Tracked objects:
  3325 ;;		On entry : 0/0
  3326 ;;		On exit  : 0/0
  3327 ;;		Unchanged: 0/0
  3328 ;; Data sizes:     COMRAM   BANK0   BANK1
  3329 ;;      Params:         0       0       0
  3330 ;;      Locals:         0       0       0
  3331 ;;      Temps:          0       0       0
  3332 ;;      Totals:         0       0       0
  3333 ;;Total ram usage:        0 bytes
  3334 ;; Hardware stack levels used: 1
  3335 ;; Hardware stack levels required when called: 3
  3336 ;; This function calls:
  3337 ;;		_TI_NewTimer
  3338 ;; This function is called by:
  3339 ;;		_main
  3340 ;; This function uses a non-reentrant model
  3341 ;;
  3342                           
  3343                           	psect	text17
  3344   000804                     __ptext17:
  3345                           	callstack 0
  3346   000804                     _DSP_Init:
  3347                           	callstack 27
  3348                           
  3349                           ;TAD_DISPLAY.c: 27:     valorX = 0;
  3350                           
  3351                           ;incstack = 0
  3352   000804  0E00               	movlw	0
  3353   000806  6E3C               	movwf	(_valorX+1)^0,c
  3354   000808  0E00               	movlw	0
  3355   00080A  6E3B               	movwf	_valorX^0,c
  3356                           
  3357                           ;TAD_DISPLAY.c: 28:     valorY = 0;
  3358   00080C  0E00               	movlw	0
  3359   00080E  6E3A               	movwf	(_valorY+1)^0,c
  3360   000810  0E00               	movlw	0
  3361   000812  6E39               	movwf	_valorY^0,c
  3362                           
  3363                           ;TAD_DISPLAY.c: 29:     TI_NewTimer(&timerRebotes);
  3364   000814  0E5A               	movlw	low _timerRebotes
  3365   000816  6E5B               	movwf	TI_NewTimer@TimerHandle^0,c
  3366   000818  EC4F  F003         	call	_TI_NewTimer	;wreg free
  3367   00081C  0012               	return		;funcret
  3368   00081E                     __end_of_DSP_Init:
  3369                           	callstack 0
  3370                           
  3371 ;; *************** function _TI_NewTimer *****************
  3372 ;; Defined at:
  3373 ;;		line 34 in file "TAD_TIMER.c"
  3374 ;; Parameters:    Size  Location     Type
  3375 ;;  TimerHandle     1    0[COMRAM] PTR unsigned char 
  3376 ;;		 -> timerDutyCycle(1), timerLDR(1), timerRebotes(1), 
  3377 ;; Auto vars:     Size  Location     Type
  3378 ;;  Comptador       1    2[COMRAM] unsigned char 
  3379 ;; Return value:  Size  Location     Type
  3380 ;;                  1    wreg      unsigned char 
  3381 ;; Registers used:
  3382 ;;		wreg, fsr2l, fsr2h, status,2, status,0, prodl, prodh
  3383 ;; Tracked objects:
  3384 ;;		On entry : 0/0
  3385 ;;		On exit  : 0/0
  3386 ;;		Unchanged: 0/0
  3387 ;; Data sizes:     COMRAM   BANK0   BANK1
  3388 ;;      Params:         1       0       0
  3389 ;;      Locals:         1       0       0
  3390 ;;      Temps:          1       0       0
  3391 ;;      Totals:         3       0       0
  3392 ;;Total ram usage:        3 bytes
  3393 ;; Hardware stack levels used: 1
  3394 ;; Hardware stack levels required when called: 2
  3395 ;; This function calls:
  3396 ;;		Nothing
  3397 ;; This function is called by:
  3398 ;;		_DSP_Init
  3399 ;;		_LDR_Init
  3400 ;;		_HREATBEAT_Init
  3401 ;; This function uses a non-reentrant model
  3402 ;;
  3403                           
  3404                           	psect	text18
  3405   00069E                     __ptext18:
  3406                           	callstack 0
  3407   00069E                     _TI_NewTimer:
  3408                           	callstack 27
  3409                           
  3410                           ;TAD_TIMER.c: 35:  unsigned char Comptador=0;
  3411                           
  3412                           ;incstack = 0
  3413   00069E  6A5D               	clrf	TI_NewTimer@Comptador^0,c
  3414                           
  3415                           ;TAD_TIMER.c: 36:  while (Timers[Comptador].Busy==1) {
  3416   0006A0  D005               	goto	l1523
  3417   0006A2                     l1519:
  3418                           
  3419                           ;TAD_TIMER.c: 37:   if (++Comptador == 4) return (0);
  3420   0006A2  2A5D               	incf	TI_NewTimer@Comptador^0,f,c
  3421   0006A4  0E04               	movlw	4
  3422   0006A6  185D               	xorwf	TI_NewTimer@Comptador^0,w,c
  3423   0006A8  B4D8               	btfsc	status,2,c
  3424   0006AA  0012               	return	
  3425   0006AC                     l1523:
  3426                           
  3427                           ;TAD_TIMER.c: 36:  while (Timers[Comptador].Busy==1) {
  3428   0006AC  505D               	movf	TI_NewTimer@Comptador^0,w,c
  3429   0006AE  0D05               	mullw	5
  3430   0006B0  50F3               	movf	243,w,c
  3431   0006B2  0F23               	addlw	low (_Timers+4)
  3432   0006B4  6ED9               	movwf	fsr2l,c
  3433   0006B6  6ADA               	clrf	fsr2h,c
  3434   0006B8  04DE               	decf	postinc2,w,c
  3435   0006BA  B4D8               	btfsc	status,2,c
  3436   0006BC  D7F2               	goto	l1519
  3437                           
  3438                           ;TAD_TIMER.c: 39:  Timers[Comptador].Busy=1;
  3439   0006BE  505D               	movf	TI_NewTimer@Comptador^0,w,c
  3440   0006C0  0D05               	mullw	5
  3441   0006C2  50F3               	movf	243,w,c
  3442   0006C4  0F23               	addlw	low (_Timers+4)
  3443   0006C6  6ED9               	movwf	fsr2l,c
  3444   0006C8  6ADA               	clrf	fsr2h,c
  3445   0006CA  0E01               	movlw	1
  3446   0006CC  6EDF               	movwf	indf2,c
  3447                           
  3448                           ;TAD_TIMER.c: 40:  *TimerHandle=Comptador;
  3449   0006CE  505B               	movf	TI_NewTimer@TimerHandle^0,w,c
  3450   0006D0  6ED9               	movwf	fsr2l,c
  3451   0006D2  6ADA               	clrf	fsr2h,c
  3452   0006D4  C05D  FFDF         	movff	TI_NewTimer@Comptador,indf2
  3453   0006D8  0012               	return		;funcret
  3454   0006DA                     __end_of_TI_NewTimer:
  3455                           	callstack 0
  3456                           
  3457 ;; *************** function _ADC_Motor *****************
  3458 ;; Defined at:
  3459 ;;		line 52 in file "TAD_ADC.c"
  3460 ;; Parameters:    Size  Location     Type
  3461 ;;		None
  3462 ;; Auto vars:     Size  Location     Type
  3463 ;;		None
  3464 ;; Return value:  Size  Location     Type
  3465 ;;                  1    wreg      void 
  3466 ;; Registers used:
  3467 ;;		wreg, status,2, status,0, cstack
  3468 ;; Tracked objects:
  3469 ;;		On entry : 0/0
  3470 ;;		On exit  : 0/0
  3471 ;;		Unchanged: 0/0
  3472 ;; Data sizes:     COMRAM   BANK0   BANK1
  3473 ;;      Params:         0       0       0
  3474 ;;      Locals:         0       0       0
  3475 ;;      Temps:          2       0       0
  3476 ;;      Totals:         2       0       0
  3477 ;;Total ram usage:        2 bytes
  3478 ;; Hardware stack levels used: 1
  3479 ;; Hardware stack levels required when called: 3
  3480 ;; This function calls:
  3481 ;;		_ADC_Finished
  3482 ;;		_ADC_Start
  3483 ;; This function is called by:
  3484 ;;		_main
  3485 ;; This function uses a non-reentrant model
  3486 ;;
  3487                           
  3488                           	psect	text19
  3489   000522                     __ptext19:
  3490                           	callstack 0
  3491   000522                     _ADC_Motor:
  3492                           	callstack 27
  3493                           
  3494                           ;TAD_ADC.c: 53:     switch(estat){
  3495                           
  3496                           ;incstack = 0
  3497   000522  D040               	goto	l1307
  3498   000524                     l97:
  3499                           
  3500                           ;TAD_ADC.c: 55:             ADCON0bits.CHS3 = 0;
  3501   000524  9AC2               	bcf	194,5,c	;volatile
  3502                           
  3503                           ;TAD_ADC.c: 56:             ADCON0bits.CHS2 = 0;
  3504   000526  98C2               	bcf	194,4,c	;volatile
  3505                           
  3506                           ;TAD_ADC.c: 57:             ADCON0bits.CHS1 = 0;
  3507   000528  96C2               	bcf	194,3,c	;volatile
  3508                           
  3509                           ;TAD_ADC.c: 58:             ADCON0bits.CHS0 = 0;
  3510   00052A  94C2               	bcf	194,2,c	;volatile
  3511   00052C                     l1271:
  3512                           
  3513                           ;TAD_ADC.c: 59:             estat++;
  3514   00052C  2A57               	incf	_estat^0,f,c
  3515                           
  3516                           ;TAD_ADC.c: 60:             dataReady = 0;
  3517   00052E  6A56               	clrf	_dataReady^0,c
  3518                           
  3519                           ;TAD_ADC.c: 61:             ADC_Start();
  3520   000530  EC54  F004         	call	_ADC_Start	;wreg free
  3521                           
  3522                           ;TAD_ADC.c: 62:             break;
  3523   000534  0012               	return	
  3524   000536                     l1277:
  3525                           
  3526                           ;TAD_ADC.c: 64:             if(ADC_Finished()){
  3527   000536  EC36  F004         	call	_ADC_Finished	;wreg free
  3528   00053A  0900               	iorlw	0
  3529   00053C  B4D8               	btfsc	status,2,c
  3530   00053E  0012               	return	
  3531                           
  3532                           ;TAD_ADC.c: 65:                 valueX = ((unsigned int)ADRESH * 256) | ADRESL;
  3533   000540  50C4               	movf	196,w,c	;volatile
  3534   000542  6E5B               	movwf	??_ADC_Motor^0,c
  3535   000544  50C3               	movf	195,w,c	;volatile
  3536   000546  6E41               	movwf	_valueX^0,c
  3537   000548  C05B  F042         	movff	??_ADC_Motor,_valueX+1
  3538   00054C                     l1281:
  3539                           
  3540                           ;TAD_ADC.c: 67:                 estat++;
  3541   00054C  2A57               	incf	_estat^0,f,c
  3542   00054E  0012               	return	
  3543   000550                     l101:
  3544                           
  3545                           ;TAD_ADC.c: 71:             ADCON0bits.CHS3 = 0;
  3546   000550  9AC2               	bcf	194,5,c	;volatile
  3547                           
  3548                           ;TAD_ADC.c: 72:             ADCON0bits.CHS2 = 0;
  3549   000552  98C2               	bcf	194,4,c	;volatile
  3550                           
  3551                           ;TAD_ADC.c: 73:             ADCON0bits.CHS1 = 0;
  3552   000554  96C2               	bcf	194,3,c	;volatile
  3553                           
  3554                           ;TAD_ADC.c: 74:             ADCON0bits.CHS0 = 1;
  3555   000556  84C2               	bsf	194,2,c	;volatile
  3556   000558  D7E9               	goto	l1271
  3557   00055A                     l1289:
  3558                           
  3559                           ;TAD_ADC.c: 80:             if(ADC_Finished()){
  3560   00055A  EC36  F004         	call	_ADC_Finished	;wreg free
  3561   00055E  0900               	iorlw	0
  3562   000560  B4D8               	btfsc	status,2,c
  3563   000562  0012               	return	
  3564                           
  3565                           ;TAD_ADC.c: 81:                 valueY = ((unsigned int)ADRESH * 256) | ADRESL;
  3566   000564  50C4               	movf	196,w,c	;volatile
  3567   000566  6E5B               	movwf	??_ADC_Motor^0,c
  3568   000568  50C3               	movf	195,w,c	;volatile
  3569   00056A  6E3F               	movwf	_valueY^0,c
  3570   00056C  C05B  F040         	movff	??_ADC_Motor,_valueY+1
  3571                           
  3572                           ;TAD_ADC.c: 83:                 dataReady = 1;
  3573   000570  0E01               	movlw	1
  3574   000572  6E56               	movwf	_dataReady^0,c
  3575   000574  D7EB               	goto	l1281
  3576   000576                     l104:
  3577                           
  3578                           ;TAD_ADC.c: 88:             ADCON0bits.CHS3 = 0;
  3579   000576  9AC2               	bcf	194,5,c	;volatile
  3580                           
  3581                           ;TAD_ADC.c: 89:             ADCON0bits.CHS2 = 0;
  3582   000578  98C2               	bcf	194,4,c	;volatile
  3583                           
  3584                           ;TAD_ADC.c: 90:             ADCON0bits.CHS1 = 1;
  3585   00057A  86C2               	bsf	194,3,c	;volatile
  3586                           
  3587                           ;TAD_ADC.c: 91:             ADCON0bits.CHS0 = 0;
  3588   00057C  94C2               	bcf	194,2,c	;volatile
  3589                           
  3590                           ;TAD_ADC.c: 92:             dataReadyLDR = 0;
  3591   00057E  6A55               	clrf	_dataReadyLDR^0,c
  3592                           
  3593                           ;TAD_ADC.c: 93:             ADC_Start();
  3594   000580  EC54  F004         	call	_ADC_Start	;wreg free
  3595   000584  D7E3               	goto	l1281
  3596   000586                     l1299:
  3597                           
  3598                           ;TAD_ADC.c: 97:             if(ADC_Finished()){
  3599   000586  EC36  F004         	call	_ADC_Finished	;wreg free
  3600   00058A  0900               	iorlw	0
  3601   00058C  B4D8               	btfsc	status,2,c
  3602   00058E  0012               	return	
  3603                           
  3604                           ;TAD_ADC.c: 98:                 valueLDR = ((unsigned int)ADRESH * 256) | ADRESL;
  3605   000590  50C4               	movf	196,w,c	;volatile
  3606   000592  6E5B               	movwf	??_ADC_Motor^0,c
  3607   000594  50C3               	movf	195,w,c	;volatile
  3608   000596  6E3D               	movwf	_valueLDR^0,c
  3609   000598  C05B  F03E         	movff	??_ADC_Motor,_valueLDR+1
  3610                           
  3611                           ;TAD_ADC.c: 99:                 dataReadyLDR = 1;
  3612   00059C  0E01               	movlw	1
  3613   00059E  6E55               	movwf	_dataReadyLDR^0,c
  3614                           
  3615                           ;TAD_ADC.c: 100:                 estat = 0;
  3616   0005A0  6A57               	clrf	_estat^0,c
  3617   0005A2  0012               	return	
  3618   0005A4                     l1307:
  3619   0005A4  5057               	movf	_estat^0,w,c
  3620                           
  3621                           ; Switch size 1, requested type "simple"
  3622                           ; Number of cases is 6, Range of values is 0 to 5
  3623                           ; switch strategies available:
  3624                           ; Name         Instructions Cycles
  3625                           ; simple_byte           19    10 (average)
  3626                           ;	Chosen strategy is simple_byte
  3627   0005A6  0A00               	xorlw	0	; case 0
  3628   0005A8  B4D8               	btfsc	status,2,c
  3629   0005AA  D7BC               	goto	l97
  3630   0005AC  0A01               	xorlw	1	; case 1
  3631   0005AE  B4D8               	btfsc	status,2,c
  3632   0005B0  D7C2               	goto	l1277
  3633   0005B2  0A03               	xorlw	3	; case 2
  3634   0005B4  B4D8               	btfsc	status,2,c
  3635   0005B6  D7CC               	goto	l101
  3636   0005B8  0A01               	xorlw	1	; case 3
  3637   0005BA  B4D8               	btfsc	status,2,c
  3638   0005BC  D7CE               	goto	l1289
  3639   0005BE  0A07               	xorlw	7	; case 4
  3640   0005C0  B4D8               	btfsc	status,2,c
  3641   0005C2  D7D9               	goto	l104
  3642   0005C4  0A01               	xorlw	1	; case 5
  3643   0005C6  A4D8               	btfss	status,2,c
  3644   0005C8  0012               	return	
  3645   0005CA  D7DD               	goto	l1299
  3646   0005CC                     __end_of_ADC_Motor:
  3647                           	callstack 0
  3648                           
  3649 ;; *************** function _ADC_Start *****************
  3650 ;; Defined at:
  3651 ;;		line 37 in file "TAD_ADC.c"
  3652 ;; Parameters:    Size  Location     Type
  3653 ;;		None
  3654 ;; Auto vars:     Size  Location     Type
  3655 ;;		None
  3656 ;; Return value:  Size  Location     Type
  3657 ;;                  1    wreg      void 
  3658 ;; Registers used:
  3659 ;;		None
  3660 ;; Tracked objects:
  3661 ;;		On entry : 0/0
  3662 ;;		On exit  : 0/0
  3663 ;;		Unchanged: 0/0
  3664 ;; Data sizes:     COMRAM   BANK0   BANK1
  3665 ;;      Params:         0       0       0
  3666 ;;      Locals:         0       0       0
  3667 ;;      Temps:          0       0       0
  3668 ;;      Totals:         0       0       0
  3669 ;;Total ram usage:        0 bytes
  3670 ;; Hardware stack levels used: 1
  3671 ;; Hardware stack levels required when called: 2
  3672 ;; This function calls:
  3673 ;;		Nothing
  3674 ;; This function is called by:
  3675 ;;		_ADC_Motor
  3676 ;; This function uses a non-reentrant model
  3677 ;;
  3678                           
  3679                           	psect	text20
  3680   0008A8                     __ptext20:
  3681                           	callstack 0
  3682   0008A8                     _ADC_Start:
  3683                           	callstack 27
  3684                           
  3685                           ;TAD_ADC.c: 38:     ADCON0bits.GO_DONE = 1;
  3686                           
  3687                           ;incstack = 0
  3688   0008A8  82C2               	bsf	194,1,c	;volatile
  3689   0008AA  0012               	return		;funcret
  3690   0008AC                     __end_of_ADC_Start:
  3691                           	callstack 0
  3692                           
  3693 ;; *************** function _ADC_Finished *****************
  3694 ;; Defined at:
  3695 ;;		line 41 in file "TAD_ADC.c"
  3696 ;; Parameters:    Size  Location     Type
  3697 ;;		None
  3698 ;; Auto vars:     Size  Location     Type
  3699 ;;		None
  3700 ;; Return value:  Size  Location     Type
  3701 ;;                  1    wreg      unsigned char 
  3702 ;; Registers used:
  3703 ;;		wreg
  3704 ;; Tracked objects:
  3705 ;;		On entry : 0/0
  3706 ;;		On exit  : 0/0
  3707 ;;		Unchanged: 0/0
  3708 ;; Data sizes:     COMRAM   BANK0   BANK1
  3709 ;;      Params:         0       0       0
  3710 ;;      Locals:         0       0       0
  3711 ;;      Temps:          0       0       0
  3712 ;;      Totals:         0       0       0
  3713 ;;Total ram usage:        0 bytes
  3714 ;; Hardware stack levels used: 1
  3715 ;; Hardware stack levels required when called: 2
  3716 ;; This function calls:
  3717 ;;		Nothing
  3718 ;; This function is called by:
  3719 ;;		_ADC_Motor
  3720 ;; This function uses a non-reentrant model
  3721 ;;
  3722                           
  3723                           	psect	text21
  3724   00086C                     __ptext21:
  3725                           	callstack 0
  3726   00086C                     _ADC_Finished:
  3727                           	callstack 27
  3728                           
  3729                           ;TAD_ADC.c: 42:     return !ADCON0bits.GO_DONE;
  3730                           
  3731                           ;incstack = 0
  3732   00086C  B2C2               	btfsc	194,1,c	;volatile
  3733   00086E  D002               	goto	u30
  3734   000870  0E01               	movlw	1
  3735   000872  0012               	return	
  3736   000874                     u30:
  3737   000874  0E00               	movlw	0
  3738   000876  0012               	return		;funcret
  3739   000878                     __end_of_ADC_Finished:
  3740                           	callstack 0
  3741                           
  3742 ;; *************** function _ADC_Init *****************
  3743 ;; Defined at:
  3744 ;;		line 11 in file "TAD_ADC.c"
  3745 ;; Parameters:    Size  Location     Type
  3746 ;;		None
  3747 ;; Auto vars:     Size  Location     Type
  3748 ;;		None
  3749 ;; Return value:  Size  Location     Type
  3750 ;;                  1    wreg      void 
  3751 ;; Registers used:
  3752 ;;		wreg, status,2
  3753 ;; Tracked objects:
  3754 ;;		On entry : 0/0
  3755 ;;		On exit  : 0/0
  3756 ;;		Unchanged: 0/0
  3757 ;; Data sizes:     COMRAM   BANK0   BANK1
  3758 ;;      Params:         0       0       0
  3759 ;;      Locals:         0       0       0
  3760 ;;      Temps:          0       0       0
  3761 ;;      Totals:         0       0       0
  3762 ;;Total ram usage:        0 bytes
  3763 ;; Hardware stack levels used: 1
  3764 ;; Hardware stack levels required when called: 2
  3765 ;; This function calls:
  3766 ;;		Nothing
  3767 ;; This function is called by:
  3768 ;;		_main
  3769 ;; This function uses a non-reentrant model
  3770 ;;
  3771                           
  3772                           	psect	text22
  3773   00084A                     __ptext22:
  3774                           	callstack 0
  3775   00084A                     _ADC_Init:
  3776                           	callstack 28
  3777                           
  3778                           ;TAD_ADC.c: 12:     estat = 0;
  3779                           
  3780                           ;incstack = 0
  3781   00084A  6A57               	clrf	_estat^0,c
  3782                           
  3783                           ;TAD_ADC.c: 13:     valueX = 0;
  3784   00084C  0E00               	movlw	0
  3785   00084E  6E42               	movwf	(_valueX+1)^0,c
  3786   000850  0E00               	movlw	0
  3787   000852  6E41               	movwf	_valueX^0,c
  3788                           
  3789                           ;TAD_ADC.c: 14:     valueY = 0;
  3790   000854  0E00               	movlw	0
  3791   000856  6E40               	movwf	(_valueY+1)^0,c
  3792   000858  0E00               	movlw	0
  3793   00085A  6E3F               	movwf	_valueY^0,c
  3794   00085C  0012               	return		;funcret
  3795   00085E                     __end_of_ADC_Init:
  3796                           	callstack 0
  3797                           
  3798 ;; *************** function _MyRSI *****************
  3799 ;; Defined at:
  3800 ;;		line 22 in file "main.c"
  3801 ;; Parameters:    Size  Location     Type
  3802 ;;		None
  3803 ;; Auto vars:     Size  Location     Type
  3804 ;;		None
  3805 ;; Return value:  Size  Location     Type
  3806 ;;                  1    wreg      void 
  3807 ;; Registers used:
  3808 ;;		wreg, status,2, status,0, cstack
  3809 ;; Tracked objects:
  3810 ;;		On entry : 0/0
  3811 ;;		On exit  : 0/0
  3812 ;;		Unchanged: 0/0
  3813 ;; Data sizes:     COMRAM   BANK0   BANK1
  3814 ;;      Params:         0       0       0
  3815 ;;      Locals:         0       0       0
  3816 ;;      Temps:          0       0       0
  3817 ;;      Totals:         0       0       0
  3818 ;;Total ram usage:        0 bytes
  3819 ;; Hardware stack levels used: 1
  3820 ;; Hardware stack levels required when called: 1
  3821 ;; This function calls:
  3822 ;;		_RSI_Timer0
  3823 ;; This function is called by:
  3824 ;;		Interrupt level 2
  3825 ;; This function uses a non-reentrant model
  3826 ;;
  3827                           
  3828                           	psect	intcode
  3829   000008                     __pintcode:
  3830                           	callstack 0
  3831   000008                     _MyRSI:
  3832                           	callstack 27
  3833                           
  3834                           ;incstack = 0
  3835   000008  8274               	bsf	btemp,1,c	;set compiler interrupt flag (level 2)
  3836                           
  3837                           ;main.c: 23:     SERIAL_Init();
  3838   00000A  B4F2               	btfsc	4082,2,c	;volatile
  3839                           
  3840                           ;main.c: 24:     LDR_Init();
  3841   00000C  EC0F  F004         	call	_RSI_Timer0	;wreg free
  3842   000010  9274               	bcf	btemp,1,c	;clear compiler interrupt flag (level 2)
  3843   000012  0011               	retfie		f
  3844   000014                     __end_of_MyRSI:
  3845                           	callstack 0
  3846                           
  3847 ;; *************** function _RSI_Timer0 *****************
  3848 ;; Defined at:
  3849 ;;		line 18 in file "TAD_TIMER.c"
  3850 ;; Parameters:    Size  Location     Type
  3851 ;;		None
  3852 ;; Auto vars:     Size  Location     Type
  3853 ;;		None
  3854 ;; Return value:  Size  Location     Type
  3855 ;;                  1    wreg      void 
  3856 ;; Registers used:
  3857 ;;		wreg, status,2, status,0
  3858 ;; Tracked objects:
  3859 ;;		On entry : 0/0
  3860 ;;		On exit  : 0/0
  3861 ;;		Unchanged: 0/0
  3862 ;; Data sizes:     COMRAM   BANK0   BANK1
  3863 ;;      Params:         0       0       0
  3864 ;;      Locals:         0       0       0
  3865 ;;      Temps:          0       0       0
  3866 ;;      Totals:         0       0       0
  3867 ;;Total ram usage:        0 bytes
  3868 ;; Hardware stack levels used: 1
  3869 ;; This function calls:
  3870 ;;		Nothing
  3871 ;; This function is called by:
  3872 ;;		_MyRSI
  3873 ;; This function uses a non-reentrant model
  3874 ;;
  3875                           
  3876                           	psect	text24
  3877   00081E                     __ptext24:
  3878                           	callstack 0
  3879   00081E                     _RSI_Timer0:
  3880                           	callstack 27
  3881                           
  3882                           ;TAD_TIMER.c: 19:     TMR0=65224;
  3883                           
  3884                           ;incstack = 0
  3885   00081E  0EFE               	movlw	254
  3886   000820  6ED7               	movwf	215,c	;volatile
  3887   000822  0EC8               	movlw	200
  3888   000824  6ED6               	movwf	214,c	;volatile
  3889                           
  3890                           ;TAD_TIMER.c: 20:     TMR0IF=0;
  3891   000826  94F2               	bcf	4082,2,c	;volatile
  3892                           
  3893                           ;TAD_TIMER.c: 21:     Tics++;
  3894   000828  0E01               	movlw	1
  3895   00082A  2633               	addwf	_Tics^0,f,c	;volatile
  3896   00082C  0E00               	movlw	0
  3897   00082E  2234               	addwfc	(_Tics+1)^0,f,c	;volatile
  3898   000830  2235               	addwfc	(_Tics+2)^0,f,c	;volatile
  3899   000832  2236               	addwfc	(_Tics+3)^0,f,c	;volatile
  3900   000834  0012               	return		;funcret
  3901   000836                     __end_of_RSI_Timer0:
  3902                           	callstack 0
  3903                           
  3904                           	psect	rparam
  3905   000001                     ___rparam_used  equ	1
  3906   000000                     ___param_bank   equ	0
  3907   000000                     __Lparam        equ	__Lrparam
  3908   000000                     __Hparam        equ	__Hrparam
  3909                           
  3910                           	psect	temp
  3911   000074                     btemp:
  3912                           	callstack 0
  3913   000074                     	ds	1
  3914   000074                     int$flags       set	btemp
  3915   000075                     wtemp8          set	btemp+1
  3916   000075                     ttemp5          set	btemp+1
  3917   000078                     ttemp6          set	btemp+4
  3918   00007C                     ttemp7          set	btemp+8
  3919                           
  3920                           	psect	idloc
  3921                           
  3922                           ;Config register IDLOC0 @ 0x200000
  3923                           ;	unspecified, using default values
  3924   200000                     	org	2097152
  3925   200000  FF                 	db	255
  3926                           
  3927                           ;Config register IDLOC1 @ 0x200001
  3928                           ;	unspecified, using default values
  3929   200001                     	org	2097153
  3930   200001  FF                 	db	255
  3931                           
  3932                           ;Config register IDLOC2 @ 0x200002
  3933                           ;	unspecified, using default values
  3934   200002                     	org	2097154
  3935   200002  FF                 	db	255
  3936                           
  3937                           ;Config register IDLOC3 @ 0x200003
  3938                           ;	unspecified, using default values
  3939   200003                     	org	2097155
  3940   200003  FF                 	db	255
  3941                           
  3942                           ;Config register IDLOC4 @ 0x200004
  3943                           ;	unspecified, using default values
  3944   200004                     	org	2097156
  3945   200004  FF                 	db	255
  3946                           
  3947                           ;Config register IDLOC5 @ 0x200005
  3948                           ;	unspecified, using default values
  3949   200005                     	org	2097157
  3950   200005  FF                 	db	255
  3951                           
  3952                           ;Config register IDLOC6 @ 0x200006
  3953                           ;	unspecified, using default values
  3954   200006                     	org	2097158
  3955   200006  FF                 	db	255
  3956                           
  3957                           ;Config register IDLOC7 @ 0x200007
  3958                           ;	unspecified, using default values
  3959   200007                     	org	2097159
  3960   200007  FF                 	db	255
  3961                           
  3962                           	psect	config
  3963                           
  3964                           ; Padding undefined space
  3965   300000                     	org	3145728
  3966   300000  FF                 	db	255
  3967                           
  3968                           ;Config register CONFIG1H @ 0x300001
  3969                           ;	Oscillator
  3970                           ;	OSC = HS, HS Oscillator
  3971                           ;	Fail-Safe Clock Monitor Enable bit
  3972                           ;	FCMEN = 0x0, unprogrammed default
  3973                           ;	Internal/External Oscillator Switchover bit
  3974                           ;	IESO = 0x0, unprogrammed default
  3975   300001                     	org	3145729
  3976   300001  02                 	db	2
  3977                           
  3978                           ;Config register CONFIG2L @ 0x300002
  3979                           ;	Power-up Timer Enable bit
  3980                           ;	PWRT = OFF, PWRT disabled
  3981                           ;	Brown-out Reset Enable bits
  3982                           ;	BOR = OFF, Brown-out Reset disabled in hardware and software
  3983                           ;	Brown-out Reset Voltage bits
  3984                           ;	BORV = 0x3, unprogrammed default
  3985   300002                     	org	3145730
  3986   300002  19                 	db	25
  3987                           
  3988                           ;Config register CONFIG2H @ 0x300003
  3989                           ;	Watchdog Timer Enable bit
  3990                           ;	WDT = OFF, WDT disabled (control is placed on the SWDTEN bit)
  3991                           ;	Watchdog Timer Postscale Select bits
  3992                           ;	WDTPS = 0xF, unprogrammed default
  3993   300003                     	org	3145731
  3994   300003  1E                 	db	30
  3995                           
  3996                           ; Padding undefined space
  3997   300004                     	org	3145732
  3998   300004  FF                 	db	255
  3999                           
  4000                           ;Config register CONFIG3H @ 0x300005
  4001                           ;	CCP2 MUX bit
  4002                           ;	CCP2MX = 0x1, unprogrammed default
  4003                           ;	PORTB A/D Enable bit
  4004                           ;	PBADEN = DIG, PORTB<4:0> pins are configured as digital I/O on Reset
  4005                           ;	Low-Power Timer1 Oscillator Enable bit
  4006                           ;	LPT1OSC = 0x0, unprogrammed default
  4007                           ;	MCLR Pin Enable bit
  4008                           ;	MCLRE = ON, MCLR pin enabled; RE3 input pin disabled
  4009   300005                     	org	3145733
  4010   300005  81                 	db	129
  4011                           
  4012                           ;Config register CONFIG4L @ 0x300006
  4013                           ;	Stack Full/Underflow Reset Enable bit
  4014                           ;	STVREN = 0x1, unprogrammed default
  4015                           ;	Single-Supply ICSP Enable bit
  4016                           ;	LVP = OFF, Single-Supply ICSP disabled
  4017                           ;	Boot Block Size Select bits
  4018                           ;	BBSIZ = 0x0, unprogrammed default
  4019                           ;	Extended Instruction Set Enable bit
  4020                           ;	XINST = 0x0, unprogrammed default
  4021                           ;	Background Debugger Enable bit
  4022                           ;	DEBUG = OFF, Background debugger disabled, RB6 and RB7 configured as general purpose I
      +                          /O pins
  4023   300006                     	org	3145734
  4024   300006  81                 	db	129
  4025                           
  4026                           ; Padding undefined space
  4027   300007                     	org	3145735
  4028   300007  FF                 	db	255
  4029                           
  4030                           ;Config register CONFIG5L @ 0x300008
  4031                           ;	unspecified, using default values
  4032                           ;	Code Protection bit
  4033                           ;	CP0 = 0x1, unprogrammed default
  4034                           ;	Code Protection bit
  4035                           ;	CP1 = 0x1, unprogrammed default
  4036   300008                     	org	3145736
  4037   300008  03                 	db	3
  4038                           
  4039                           ;Config register CONFIG5H @ 0x300009
  4040                           ;	unspecified, using default values
  4041                           ;	Boot Block Code Protection bitProtect Boot
  4042                           ;	CPB = 0x1, unprogrammed default
  4043                           ;	Data EEPROM Code Protection bit
  4044                           ;	CPD = 0x1, unprogrammed default
  4045   300009                     	org	3145737
  4046   300009  C0                 	db	192
  4047                           
  4048                           ;Config register CONFIG6L @ 0x30000A
  4049                           ;	unspecified, using default values
  4050                           ;	Write Protection bit
  4051                           ;	WRT0 = 0x1, unprogrammed default
  4052                           ;	Write Protection bit
  4053                           ;	WRT1 = 0x1, unprogrammed default
  4054   30000A                     	org	3145738
  4055   30000A  03                 	db	3
  4056                           
  4057                           ;Config register CONFIG6H @ 0x30000B
  4058                           ;	unspecified, using default values
  4059                           ;	Configuration Register Write Protection bit
  4060                           ;	WRTC = 0x1, unprogrammed default
  4061                           ;	Boot Block Write Protection bit
  4062                           ;	WRTB = 0x1, unprogrammed default
  4063                           ;	Data EEPROM Write Protection bit
  4064                           ;	WRTD = 0x1, unprogrammed default
  4065   30000B                     	org	3145739
  4066   30000B  E0                 	db	224
  4067                           
  4068                           ;Config register CONFIG7L @ 0x30000C
  4069                           ;	unspecified, using default values
  4070                           ;	Table Read Protection bit
  4071                           ;	EBTR0 = 0x1, unprogrammed default
  4072                           ;	Table Read Protection bit
  4073                           ;	EBTR1 = 0x1, unprogrammed default
  4074   30000C                     	org	3145740
  4075   30000C  03                 	db	3
  4076                           
  4077                           ;Config register CONFIG7H @ 0x30000D
  4078                           ;	unspecified, using default values
  4079                           ;	Boot Block Table Read Protection bit
  4080                           ;	EBTRB = 0x1, unprogrammed default
  4081   30000D                     	org	3145741
  4082   30000D  40                 	db	64
  4083                           tosu	equ	0xFFF
  4084                           tosh	equ	0xFFE
  4085                           tosl	equ	0xFFD
  4086                           stkptr	equ	0xFFC
  4087                           pclatu	equ	0xFFB
  4088                           pclath	equ	0xFFA
  4089                           pcl	equ	0xFF9
  4090                           tblptru	equ	0xFF8
  4091                           tblptrh	equ	0xFF7
  4092                           tblptrl	equ	0xFF6
  4093                           tablat	equ	0xFF5
  4094                           prodh	equ	0xFF4
  4095                           prodl	equ	0xFF3
  4096                           indf0	equ	0xFEF
  4097                           postinc0	equ	0xFEE
  4098                           postdec0	equ	0xFED
  4099                           preinc0	equ	0xFEC
  4100                           plusw0	equ	0xFEB
  4101                           fsr0h	equ	0xFEA
  4102                           fsr0l	equ	0xFE9
  4103                           wreg	equ	0xFE8
  4104                           indf1	equ	0xFE7
  4105                           postinc1	equ	0xFE6
  4106                           postdec1	equ	0xFE5
  4107                           preinc1	equ	0xFE4
  4108                           plusw1	equ	0xFE3
  4109                           fsr1h	equ	0xFE2
  4110                           fsr1l	equ	0xFE1
  4111                           bsr	equ	0xFE0
  4112                           indf2	equ	0xFDF
  4113                           postinc2	equ	0xFDE
  4114                           postdec2	equ	0xFDD
  4115                           preinc2	equ	0xFDC
  4116                           plusw2	equ	0xFDB
  4117                           fsr2h	equ	0xFDA
  4118                           fsr2l	equ	0xFD9
  4119                           status	equ	0xFD8

Data Sizes:
    Strings     0
    Constant    198
    Data        7
    BSS         90
    Persistent  0
    Stack       0

Auto Spaces:
    Space          Size  Autos    Used
    COMRAM          126     18     115
    BANK0           128      0       0
    BANK1           256      0       0

Pointer List with Targets:

    comandos	const PTR const unsigned char [8] size(1) Largest target is 16
		 -> comando0(CODE[12]), comando1(CODE[13]), comando2(CODE[8]), comando3(CODE[6]), 
		 -> comando4(CODE[16]), comando5(CODE[15]), comando6(CODE[6]), comando7(CODE[11]), 

    frases	const PTR const unsigned char [7] size(1) Largest target is 21
		 -> frase0(CODE[10]), frase1(CODE[12]), frase2(CODE[12]), frase3(CODE[13]), 
		 -> frase4(CODE[9]), frase5(CODE[19]), frase6(CODE[21]), 

    pTxFrase	PTR const unsigned char  size(1) Largest target is 21
		 -> frase0(CODE[10]), frase1(CODE[12]), frase2(CODE[12]), frase3(CODE[13]), 
		 -> frase4(CODE[9]), frase5(CODE[19]), frase6(CODE[21]), NULL(NULL[0]), 

    SERIAL_ReadByte@b	PTR unsigned char  size(1) Largest target is 1
		 -> Motor_Serial@aux(COMRAM[1]), 

    TI_NewTimer@TimerHandle	PTR unsigned char  size(1) Largest target is 1
		 -> timerDutyCycle(COMRAM[1]), timerLDR(COMRAM[1]), timerRebotes(COMRAM[1]), 


Critical Paths under _main in COMRAM

    _main->_HEARTBEAT_Motor
    _Motor_Serial->_SERIAL_ReadByte
    _Motor_Serial->_guardarCharArr
    _LDR_Init->_TI_NewTimer
    _HREATBEAT_Init->_TI_NewTimer
    _HEARTBEAT_Motor->_TI_GetTics
    _DSP_Motor->_TI_GetTics
    _DSP_Init->_TI_NewTimer

Critical Paths under _MyRSI in COMRAM

    None.

Critical Paths under _main in BANK0

    None.

Critical Paths under _MyRSI in BANK0

    None.

Critical Paths under _main in BANK1

    None.

Critical Paths under _MyRSI in BANK1

    None.

Call Graph Tables:

 ---------------------------------------------------------------------------------
 (Depth) Function   	        Calls       Base Space   Used Autos Params    Refs
 ---------------------------------------------------------------------------------
 (0) _main                                                 0     0      0     687
                           _ADC_Init
                          _ADC_Motor
                           _DSP_Init
                          _DSP_Motor
                    _HEARTBEAT_Motor
                     _HREATBEAT_Init
                           _LDR_Init
                       _Motor_Serial
                        _SERIAL_Init
                            _TI_Init
                          _initPorts
 ---------------------------------------------------------------------------------
 (1) _initPorts                                            0     0      0       0
 ---------------------------------------------------------------------------------
 (1) _TI_Init                                              1     1      0      45
                                              0 COMRAM     1     1      0
 ---------------------------------------------------------------------------------
 (1) _SERIAL_Init                                          0     0      0       0
 ---------------------------------------------------------------------------------
 (1) _Motor_Serial                                         2     2      0     151
                                              1 COMRAM     2     2      0
                    _SERIAL_ReadByte
                     _guardarCharArr
 ---------------------------------------------------------------------------------
 (2) _guardarCharArr                                       1     1      0      15
                                              0 COMRAM     1     1      0
 ---------------------------------------------------------------------------------
 (2) _SERIAL_ReadByte                                      1     0      1      23
                                              0 COMRAM     1     0      1
 ---------------------------------------------------------------------------------
 (1) _LDR_Init                                             0     0      0     114
                        _TI_NewTimer
 ---------------------------------------------------------------------------------
 (1) _HREATBEAT_Init                                       0     0      0     114
                        _TI_NewTimer
 ---------------------------------------------------------------------------------
 (1) _HEARTBEAT_Motor                                      5     5      0      67
                                             13 COMRAM     5     5      0
                         _TI_GetTics
                       _TI_ResetTics
 ---------------------------------------------------------------------------------
 (1) _DSP_Motor                                            2     2      0      82
                                             13 COMRAM     2     2      0
                     _ADC_ExistValue
                           _ADC_GetX
                           _ADC_GetY
                   _SERIAL_PutString
                         _TI_GetTics
                       _TI_ResetTics
 ---------------------------------------------------------------------------------
 (2) _TI_ResetTics                                         1     1      0      15
                                              0 COMRAM     1     1      0
 ---------------------------------------------------------------------------------
 (2) _TI_GetTics                                          13     9      4      52
                                              0 COMRAM    13     9      4
 ---------------------------------------------------------------------------------
 (2) _SERIAL_PutString                                     2     2      0      15
                                              0 COMRAM     2     2      0
 ---------------------------------------------------------------------------------
 (2) _ADC_GetY                                             2     0      2       0
                                              0 COMRAM     2     0      2
 ---------------------------------------------------------------------------------
 (2) _ADC_GetX                                             2     0      2       0
                                              0 COMRAM     2     0      2
 ---------------------------------------------------------------------------------
 (2) _ADC_ExistValue                                       0     0      0       0
 ---------------------------------------------------------------------------------
 (1) _DSP_Init                                             0     0      0     114
                        _TI_NewTimer
 ---------------------------------------------------------------------------------
 (2) _TI_NewTimer                                          3     2      1     114
                                              0 COMRAM     3     2      1
 ---------------------------------------------------------------------------------
 (1) _ADC_Motor                                            2     2      0       0
                                              0 COMRAM     2     2      0
                       _ADC_Finished
                          _ADC_Start
 ---------------------------------------------------------------------------------
 (2) _ADC_Start                                            0     0      0       0
 ---------------------------------------------------------------------------------
 (2) _ADC_Finished                                         0     0      0       0
 ---------------------------------------------------------------------------------
 (1) _ADC_Init                                             0     0      0       0
 ---------------------------------------------------------------------------------
 Estimated maximum stack depth 2
 ---------------------------------------------------------------------------------
 (Depth) Function   	        Calls       Base Space   Used Autos Params    Refs
 ---------------------------------------------------------------------------------
 (3) _MyRSI                                                0     0      0       0
                         _RSI_Timer0
 ---------------------------------------------------------------------------------
 (4) _RSI_Timer0                                           0     0      0       0
 ---------------------------------------------------------------------------------
 Estimated maximum stack depth 4
 ---------------------------------------------------------------------------------

 Call Graph Graphs:

 _main (ROOT)
   _ADC_Init
   _ADC_Motor
     _ADC_Finished
     _ADC_Start
   _DSP_Init
     _TI_NewTimer
   _DSP_Motor
     _ADC_ExistValue
     _ADC_GetX
     _ADC_GetY
     _SERIAL_PutString
     _TI_GetTics
     _TI_ResetTics
   _HEARTBEAT_Motor
     _TI_GetTics
     _TI_ResetTics
   _HREATBEAT_Init
     _TI_NewTimer
   _LDR_Init
     _TI_NewTimer
   _Motor_Serial
     _SERIAL_ReadByte
     _guardarCharArr
   _SERIAL_Init
   _TI_Init
   _initPorts

 _MyRSI (ROOT)
   _RSI_Timer0

Address spaces:
Name               Size   Autos  Total    Usage
BIGRAM             511      0       0      0.0%
BITBANK1           256      0       0      0.0%
BANK1              256      0       0      0.0%
BITBANK0           128      0       0      0.0%
BANK0              128      0       0      0.0%
BITCOMRAM          126      0       0      0.0%
COMRAM             126     18     115     91.3%
BITBIGSFRhll        39      0       0      0.0%
BITBIGSFRlhlh       29      0       0      0.0%
BITBIGSFRhlh        26      0       0      0.0%
BITBIGSFRhh         13      0       0      0.0%
BITBIGSFRlhll        7      0       0      0.0%
BITBIGSFRlhh         5      0       0      0.0%
BITBIGSFRll          1      0       0      0.0%
STACK                0      0       0      0.0%
DATA                 0      0     115      0.0%


Microchip Technology PIC18 Macro Assembler V3.00 build 20241204225717 
Symbol Table                                                                                   Mon Apr 13 15:47:03 2026

               _RSI_Timer0 081E                         l97 0524                         u10 0868  
                       u30 0874                 _TI_GetTics 0652                        l101 0550  
                      l104 0576                        l310 0468                        l162 0378  
                      l308 0436                        l157 0340                        l174 03E2  
                      l176 03E8                        l168 03B0                        l266 0798  
                      l446 05CE                        u520 0794                        u710 040A  
                      u680 03D2                        u890 0636                        wreg 0FE8  
                     l1307 05A4                       l1237 0744                       l1271 052C  
                     l1281 054C                       l1523 06AC                       l1611 037A  
                     l1603 035A                       l1277 0536                       l1519 06A2  
                     l1289 055A                       l1721 05D2                       l1545 07A0  
                     l1713 0506                       l1705 04EA                       l1299 0586  
                     l1643 03F4                       l1619 0392                       l1627 03B4  
                     l1707 04F0                       l1573 02EE                       l1653 0412  
                     l1717 050C                       l1575 02F2                       l1567 02CA  
                     l1735 061C                       l1727 05DE                       l1743 063C  
                     l1585 031A                       l1737 061E                       l1691 04B8  
                     l1683 049C                       l1667 046A                       l1677 048C  
                     l1669 0470                       l1757 0730                       l1695 04C6  
                     l1687 04AA                _TI_NewTimer 069E                       l1699 04D4  
                     _TMR0 0FD6            Motor_Serial@aux 005D                       _Tics 0033  
                     _flag 0043                       _main 0714                       fsr2h 0FDA  
                     indf2 0FDF                       fsr1l 0FE1                       fsr2l 0FD9  
                     btemp 0074           __end_of_ADC_GetX 08A0           __end_of_ADC_GetY 0896  
         __end_of_ADC_Init 085E            __end_of_TI_Init 076C                       prodl 0FF3  
                     start 0014               ___param_bank 0000            _HEARTBEAT_Motor 05CC  
         __end_of_DSP_Init 081E                      ?_main 005B           ?_SERIAL_ReadByte 005B  
         __end_of_LDR_Init 0882                      _T0CON 0FD5                      _RCREG 0FAE  
                    _SPBRG 0FAF                      _TXREG 0FAD                      _MyRSI 0008  
                    _estat 0057               _TI_ResetTics 076C                      tablat 0FF5  
        __end_of_ADC_Motor 05CC          __end_of_ADC_Start 08AC                      ttemp5 0075  
                    ttemp6 0078                      ttemp7 007C                      status 0FD8  
                    wtemp8 0075               _ADC_Finished 086C               ?_SERIAL_Init 005B  
          __initialization 06DA               __end_of_main 0742                ?_RSI_Timer0 005B  
           TI_Init@counter 005B           ??_HREATBEAT_Init 005E                ?_TI_GetTics 005B  
                   ??_main 006D              __activetblptr 0002          guardarCharArr@aux 005B  
                   ?_MyRSI 005B                     _ADCON0 0FC2                     _ADCON1 0FC1  
                   _ADCON2 0FC0          __end_of_DSP_Motor 0434                     _ADRESH 0FC4  
                   _ADRESL 0FC3                  ??_TI_Init 005B                     _TMR0IF 7F92  
                   _SPBRGH 0FB0          SERIAL_PutString@s 005C    __end_of_HEARTBEAT_Motor 0652  
         __end_of_comando0 027D           __end_of_comando1 0264           __end_of_comando2 02BB  
         __end_of_comando3 02C7           __end_of_comando4 0248           __end_of_comando5 0257  
         __end_of_comando6 02C1           __end_of_comando7 02A0           __end_of_comandos 0209  
                   _Timers 001F                     _frase0 02A0                     _frase1 0289  
                   _frase2 027D                     _frase3 0264                     _frase4 02AA  
                   _frase5 0225                     _frase6 0210                     _indice 0048  
                   _frases 0209                     _estado 0049                     clear_0 0700  
                   _valueX 0041                     _valueY 003F                     isa$std 0001  
                   _valorX 003B                     _valorY 0039          ?_SERIAL_PutString 005B  
             __pdataCOMRAM 006D                  ?_ADC_GetX 005B                  ?_ADC_GetY 005B  
                ?_ADC_Init 005B         ??_SERIAL_PutString 005B               __mediumconst 0200  
                   tblptrh 0FF7                     tblptrl 0FF6                     tblptru 0FF8  
             _dataReadyLDR 0055                 __accesstop 0080    __end_of__initialization 0706  
            ___rparam_used 0001                  ?_DSP_Init 005B                  ?_LDR_Init 005B  
            __end_of_MyRSI 0014             __pcstackCOMRAM 005B       TI_NewTimer@Comptador 005D  
               ??_ADC_GetX 005D                 ??_ADC_GetY 005D                 ??_ADC_Init 005B  
             _cmdStopRebel 004C                    ??_MyRSI 005B                 _cmdConsume 004F  
             ?_TI_NewTimer 005B                 ??_DSP_Init 005E                 ??_LDR_Init 005E  
   TI_NewTimer@TimerHandle 005B           ?_HEARTBEAT_Motor 005B    TI_ResetTics@TimerHandle 005B  
            ?_Motor_Serial 005B                    _TI_Init 0742                  _ADC_Motor 0522  
                _ADC_Start 08A8                    __Hparam 0000                    __Lparam 0000  
           ??_Motor_Serial 005C               ??_RSI_Timer0 005B              _cmdGetAnimals 0051  
             __psmallconst 0200               ??_TI_GetTics 005F                    __pcinit 06DA  
                  __ramtop 0200                    __ptext0 0714                    __ptext1 0836  
                  __ptext2 0742                    __ptext3 07B2                    __ptext4 0434  
                  __ptext5 07CE                    __ptext6 0790                    __ptext7 0878  
                  __ptext8 0882                    __ptext9 05CC                    _comando 0001  
        __end_of_initPorts 084A       end_of_initialization 0706         __end_of_RSI_Timer0 0836  
                _DSP_Motor 02C8              __Lmediumconst 0000         __end_of_TI_GetTics 069E  
               ?_ADC_Motor 005B                 ?_ADC_Start 005B                  _RCSTAbits 0FAB  
                  postdec1 0FE5                    postinc0 0FEE                    postinc2 0FDE  
          LDR_Motor@estado 0046                  _PORTBbits 0F81              _cmdInitialize 004A  
           _guardarCharArr 07CE      TI_GetTics@TimerHandle 0067                  _TRISAbits 0F92  
                _TRISBbits 0F93           SERIAL_ReadByte@b 005B              Motor_Serial@c 005C  
               ?_DSP_Motor 005B                  _TXSTAbits 0FAC              __pidataCOMRAM 08A0  
   __end_of_guardarCharArr 07EA             __end_of_frase0 02AA             __end_of_frase1 0295  
           __end_of_frase2 0289             __end_of_frase3 0271             __end_of_frase4 02B3  
           __end_of_frase5 0238             __end_of_frase6 0225             __end_of_frases 0210  
           _ADC_ExistValue 085E        start_initialization 06DA       __end_of_Motor_Serial 0522  
            _cmdStartRebel 004D          ??_SERIAL_ReadByte 005C                 DSP_Motor@i 0052  
              ??_ADC_Motor 005B                ??_ADC_Start 005B                 LDR_Motor@i 0045  
          ?_guardarCharArr 005B     __end_of_ADC_ExistValue 086C                __pbssCOMRAM 0001  
            ?_TI_ResetTics 005B                   ?_TI_Init 005B                ??_DSP_Motor 0068  
                _dataReady 0056              ?_ADC_Finished 005B              ??_SERIAL_Init 005B  
                __pintcode 0008                _flagRebotes 0054             _timerDutyCycle 0058  
          ?_ADC_ExistValue 005B                __smallconst 0200                   _ADC_GetX 0896  
                 _ADC_GetY 088C                   _ADC_Init 084A             ??_TI_ResetTics 005B  
                _initPorts 0836                  _dutyCycle 006D           _SERIAL_PutString 07EA  
                 _LATAbits 0F89             ??_ADC_Finished 005B                   _DSP_Init 0804  
                 _LDR_Init 0878                   _PIR1bits 0F9E        __end_of_SERIAL_Init 07CE  
               _ADCON0bits 0FC2  _indice@TAD_HEARTBEAT$F792 0044             _HREATBEAT_Init 0882  
               ?_initPorts 005B                _INTCON2bits 0FF1                  copy_data0 06EE  
_estado@TAD_HEARTBEAT$F793 0071                   __Hrparam 0000                   __Lrparam 0000  
             _Motor_Serial 0434     __end_of_HREATBEAT_Init 088C                   _cmdReset 004E  
                 _cmdSleep 004B            _SERIAL_ReadByte 0790          ??_HEARTBEAT_Motor 0068  
                 __ptext10 02C8                   __ptext11 076C                   __ptext20 08A8  
                 __ptext12 0652                   __ptext21 086C                   __ptext13 07EA  
                 __ptext22 084A                   __ptext14 088C                   __ptext15 0896  
                 __ptext24 081E                   __ptext16 085E                   __ptext17 0804  
                 __ptext18 069E                   __ptext19 0522                   _pTxFrase 0047  
                 _comando0 0271                   _comando1 0257                   _comando2 02B3  
                 _comando3 02C1                   _comando4 0238                   _comando5 0248  
                 _comando6 02BB                   _comando7 0295              ??_TI_NewTimer 005C  
                 _comandos 0201                   _lastDirX 0073                   _lastDirY 0072  
           _cmdGetProducts 0050                _SERIAL_Init 07B2                   _valueLDR 003D  
                 _timerLDR 0059           ??_guardarCharArr 005B                   isa$xinst 0000  
     __end_of_TI_ResetTics 0790                   int$flags 0074       __end_of_ADC_Finished 0878  
          ?_HREATBEAT_Init 005B                 _INTCONbits 0FF2  TI_GetTics@CopiaTicsActual 0063  
              ??_initPorts 005B                   intlevel2 0000               _timerRebotes 005A  
      __end_of_TI_NewTimer 06DA          LDR_Motor@valorLDR 0037           ??_ADC_ExistValue 005B  
          DSP_Motor@estado 0053    __end_of_SERIAL_ReadByte 07B2   __end_of_SERIAL_PutString 0804  
